(dp0
S'permeable'
p1
F4.614670991897583
sS'founder'
p2
F1.572662115097046
sS'coda'
p3
F24.93089199066162
sS'elysian'
p4
F4.010502815246582
sS'precarious'
p5
F8.855343103408813
sS'sedulous'
p6
F3.39314603805542
sS'obviate'
p7
F4.710618019104004
sS'dupe'
p8
F4.236046075820923
sS'preempt'
p9
F7.339781999588013
sS'canard'
p10
F2.738905906677246
sS'elegy'
p11
F14.476521015167236
sS'dissident'
p12
F3.8064699172973633
sS'carnal'
p13
F4.495882034301758
sS'fidelity'
p14
F9.645388126373291
sS'obsequious'
p15
F6.178395986557007
sS'recluse'
p16
F5.366188049316406
sS'homeostasis'
p17
F5.1332619190216064
sS'distend'
p18
F3.9895761013031006
sS'penchant'
p19
F2.314913034439087
sS'latent'
p20
F18.605756998062134
sS'nexus'
p21
F4.037840127944946
sS'fissure'
p22
F8.570250034332275
sS'disseminate'
p23
F3.737823009490967
sS'ethnocentric'
p24
F4.64160680770874
sS'decorum'
p25
F2.6867339611053467
sS'miscreant'
p26
F11.90194582939148
sS'herbivorous'
p27
F2.4489638805389404
sS'odyssey'
p28
F2.8322560787200928
sS'satyr'
p29
F7.446613073348999
sS'dross'
p30
F4.33400821685791
sS'hirsute'
p31
F2.578110933303833
sS'convoluted'
p32
F1.9231250286102295
sS'fervor'
p33
F6.762326955795288
sS'derivative'
p34
F4.947758913040161
sS'clamor'
p35
F9.352443933486938
sS'plaintive'
p36
F11.914607048034668
sS'immutable'
p37
F3.263871908187866
sS'froward'
p38
F3.070003032684326
sS'occult'
p39
F5.902491092681885
sS'mollify'
p40
F2.9350380897521973
sS'cantankerous'
p41
F2.1509010791778564
sS'minatory'
p42
F2.304399013519287
sS'eulogy'
p43
F29.84348487854004
sS'denigrate'
p44
F13.710526943206787
sS'misogynist'
p45
F2.9336698055267334
sS'cacophonous'
p46
F5.126969814300537
sS'felicitous'
p47
F4.590430021286011
sS'gainsay'
p48
F3.3350749015808105
sS'pervasive'
p49
F7.266945838928223
sS'dirge'
p50
F3.842705011367798
sS'placate'
p51
F4.503319025039673
sS'feral'
p52
F6.0643310546875
sS'laconic'
p53
F1.5229928493499756
sS'igneous'
p54
F1.9474871158599854
sS'concave'
p55
F15.559887886047363
sS'egoism'
p56
F4.278409004211426
sS'gullible'
p57
F10.063497066497803
sS'discrete'
p58
F3.965212821960449
sS'expository'
p59
F19.088326930999756
sS'burgeon'
p60
F8.685536861419678
sS'dogmatic'
p61
F6.678879976272583
sS'enhance'
p62
F2.861297130584717
sS'disparage'
p63
F5.69420599937439
sS'homogeneous'
p64
F3.490854024887085
sS'cartography'
p65
F2.509903907775879
sS'grouse'
p66
F7.116966962814331
sS'detraction'
p67
F3.472946882247925
sS'pragmatic'
p68
F6.186756134033203
sS'contiguous'
p69
F3.153409004211426
sS'misanthrope'
p70
F4.238117933273315
sS'supplant'
p71
F10.697700023651123
sS'nostrum'
p72
F4.794249057769775
sS'expiate'
p73
F11.983082056045532
sS'gerrymander'
p74
F4.277437925338745
sS'idolatry'
p75
F2.814939022064209
sS'contend'
p76
F2.656055212020874
sS'denouement'
p77
F47.8113489151001
sS'loquacious'
p78
F2.7485201358795166
sS'plummet'
p79
F3.229300022125244
sS'effete'
p80
F11.07542896270752
sS'continence'
p81
F5.730798959732056
sS'flux'
p82
F2.7587761878967285
sS'minuscule'
p83
F2.866441011428833
sS'equivocate'
p84
F8.632503032684326
sS'gossamer'
p85
F24.50884509086609
sS'multifarious'
p86
F2.178766965866089
sS'exacerbate'
p87
F7.710998058319092
sS'diverge'
p88
F3.344541072845459
sS'etymology'
p89
F3.071697950363159
sS'discretion'
p90
F5.112486124038696
sS'convivial'
p91
F1.6716210842132568
sS'pristine'
p92
F11.75987195968628
sS'mnemonic'
p93
F5.1828930377960205
sS'commensurate'
p94
F19.42054510116577
sS'centripetal'
p95
F2.5894110202789307
sS'satiate'
p96
F1.961496114730835
sS'credo'
p97
F4.83103084564209
sS'sentient'
p98
F5.069499969482422
sS'platitude'
p99
F19.394174098968506
sS'complement'
p100
F8.646483898162842
sS'militate'
p101
F2.158017873764038
sS'ornithologist'
p102
F4.910995960235596
sS'mettlesome'
p103
F1.6333119869232178
sS'nostalgia'
p104
F2.495469093322754
sS'hermetic'
p105
F-7.471950054168701
sS'fawning'
p106
F7.353832006454468
sS'clique'
p107
F5.4481120109558105
sS'desiccate'
p108
F29.312034130096436
sS'encomium'
p109
F8.619767904281616
sS'preamble'
p110
F22.559391975402832
sS'fiat'
p111
F7.994419097900391
sS'homily'
p112
F14.942224979400635
sS'doctrinaire'
p113
F1.8284051418304443
sS'disjointed'
p114
F6.242076873779297
sS'piquant'
p115
F11.246522188186646
sS'fulminate'
p116
F6.315346002578735
sS'somatic'
p117
F11.396902084350586
sS'etiology'
p118
F14.892850875854492
sS'overweening'
p119
F19.139010906219482
sS'hieroglyphics'
p120
F2.2121119499206543
sS'inveigh'
p121
F4.711714029312134
sS'equable'
p122
F23.364936113357544
sS'fulsome'
p123
F7.079324007034302
sS'penury'
p124
F2.7503488063812256
sS'thespian'
p125
F2.248507022857666
sS'chivalry'
p126
F4.985894203186035
sS'plethora'
p127
F8.61630892753601
sS'stultify'
p128
F2.2779769897460938
sS'unfeigned'
p129
F13.510313987731934
sS'fatuous'
p130
F5.239099979400635
sS'plumb'
p131
F27.869637966156006
sS'consecrate'
p132
F11.723369121551514
sS'extirpate'
p133
F7.115254878997803
sS'negate'
p134
F7.320521831512451
sS'flourish'
p135
F3.75468111038208
sS'causal'
p136
F4.053532123565674
sS'endemic'
p137
F8.820788145065308
sS'credence'
p138
F10.10685920715332
sS'epistemology'
p139
F3.8817291259765625
sS'gouge'
p140
F30.538084983825684
sS'dissonance'
p141
F3.0994369983673096
sS'coalesce'
p142
F14.037990808486938
sS'explicate'
p143
F9.287251949310303
sS'codify'
p144
F2.6239190101623535
sS'preternatural'
p145
F2.612912893295288
sS'euphoria'
p146
F3.812688112258911
sS'hallowed'
p147
F26.023401975631714
sS'modicum'
p148
F3.971389055252075
sS'dissolution'
p149
F7.029159069061279
sS'futile'
p150
F3.864765167236328
sS'contrite'
p151
F8.270041942596436
sS'daunt'
p152
F3.4836909770965576
sS'calumny'
p153
F12.411494970321655
sS'foment'
p154
F7.854988098144531
sS'harrowing'
p155
F4.959078073501587
sS'errant'
p156
F4.437278985977173
sS'filibuster'
p157
F8.458434104919434
sS'exculpate'
p158
F4.371840953826904
sS'dormant'
p159
F9.73767900466919
sS'compunction'
p160
F13.728868961334229
sS'champion'
p161
F5.62750506401062
sS'efficacy'
p162
F3.2090630531311035
sS'mesmerize'
p163
F7.2309019565582275
sS'dismiss'
p164
F17.826272010803223
sS'esoteric'
p165
F8.346716165542603
sS'embellish'
p166
F3.95625901222229
sS'flag'
p167
F3.076936960220337
sS'demotic'
p168
F13.258096933364868
sS'discrepancy'
p169
F44.63469195365906
sS'precipitate'
p170
F22.92368793487549
sS'finesse'
p171
F8.421474933624268
sS'diffuse'
p172
F2.8859989643096924
sS'mundane'
p173
F4.346063852310181
sS'perennial'
p174
F4.789988040924072
sS'neologism'
p175
F25.10907793045044
sS'discomfit'
p176
F4.614070892333984
sS'gauche'
p177
F2.7785019874572754
sS'disingenuous'
p178
F43.089564085006714
sS'oligarchy'
p179
F10.107774019241333
sS'bucolic'
p180
F3.2108168601989746
sS'empirical'
p181
F50.87359309196472
sS'distill'
p182
F11.86962103843689
sS'perturb'
p183
F5.045853137969971
sS'forbearance'
p184
F10.631757974624634
sS'fallow'
p185
F22.848640203475952
sS'impute'
p186
F20.51120615005493
sS'guise'
p187
F7.917838096618652
sS'gambol'
p188
F5.669157981872559
sS'patois'
p189
F8.155746936798096
sS'torpor'
p190
F10.723896980285645
sS'celestial'
p191
F25.03367280960083
sS'concomitant'
p192
F10.100335121154785
sS'visage'
p193
F4.173082113265991
sS'onomatopoeia'
p194
F4.2285051345825195
sS'conundrum'
p195
F6.457870006561279
sS'covert'
p196
F1.6627790927886963
sS'stupefy'
p197
F4.163283109664917
sS'canon'
p198
F1.8824920654296875
sS'shard'
p199
F2.3128600120544434
sS'dearth'
p200
F3.728095054626465
sS'impair'
p201
F20.09798502922058
sS'divest'
p202
F2.4830880165100098
sS'regale'
p203
F8.947707176208496
sS'euthanasia'
p204
F4.3803629875183105
sS'cadge'
p205
F22.479053020477295
sS'enervate'
p206
F1.6182868480682373
sS'evocative'
p207
F9.88802695274353
sS'sylvan'
p208
F5.847640037536621
sS'effervescence'
p209
F2.4930498600006104
sS'discordant'
p210
F9.70627212524414
sS'impassive'
p211
F3.9036948680877686
sS'engender'
p212
F7.0441601276397705
sS'castigation'
p213
F2.135329008102417
sS'florid'
p214
F8.236131191253662
sS'paleontology'
p215
F8.468653917312622
sS'goad'
p216
F1.7209060192108154
sS'discredit'
p217
F14.752434015274048
sS'schematic'
p218
F2.801805019378662
sS'invective'
p219
F18.253509998321533
sS'emollient'
p220
F7.6676061153411865
sS'premonition'
p221
F18.77591109275818
sS'document'
p222
F4.618579864501953
sS'gustatory'
p223
F4.337669134140015
sS'morose'
p224
F5.151119947433472
sS'miscellany'
p225
F7.9525370597839355
sS'fresco'
p226
F3.0865797996520996
sS'defame'
p227
F5.154717922210693
sS'monolithic'
p228
F11.212861061096191
sS'fetid'
p229
F3.5103890895843506
sS'sensuous'
p230
F3.080836057662964
sS'heterodox'
p231
F3.907708168029785
sS'impede'
p232
F2.9235360622406006
sS'wistful'
p233
F16.13825821876526
sS'fracas'
p234
F4.6732048988342285
sS'coagulate'
p235
F32.3638801574707
sS'gregarious'
p236
F9.433290958404541
sS'mettle'
p237
F2.289777994155884
sS'effrontery'
p238
F2.860186815261841
sS'egotistical'
p239
F6.4734179973602295
sS'complacent'
p240
F12.810134172439575
sS'execrable'
p241
F5.3757851123809814
sS'sextant'
p242
F6.119487047195435
sS'plasticity'
p243
F10.71139407157898
sS'peremptory'
p244
F11.625138998031616
sS'prehensile'
p245
F2.5825068950653076
sS'craven'
p246
F3.4811959266662598
sS'variegated'
p247
F1.9896769523620605
sS'complaisant'
p248
F9.743617057800293
sS'contumacious'
p249
F3.930424928665161
sS'ramification'
p250
F4.15444803237915
sS'forswear'
p251
F7.403310060501099
sS'cloister'
p252
F7.97511100769043
sS'conjugal'
p253
F2.860576868057251
sS'disparate'
p254
F3.6419918537139893
sS'partisan'
p255
F4.935662031173706
s.