(dp0
S'permeable'
p1
F4.614670991897583
sS'founder'
p2
F1.572662115097046
sS'coda'
p3
F24.93089199066162
sS'elysian'
p4
F4.010502815246582
sS'precarious'
p5
F8.855343103408813
sS'sedulous'
p6
F3.39314603805542
sS'obviate'
p7
F4.710618019104004
sS'dupe'
p8
F4.236046075820923
sS'preempt'
p9
F7.339781999588013
sS'canard'
p10
F2.738905906677246
sS'elegy'
p11
F14.476521015167236
sS'dissident'
p12
F3.8064699172973633
sS'carnal'
p13
F4.495882034301758
sS'fidelity'
p14
F9.645388126373291
sS'obsequious'
p15
F6.178395986557007
sS'recluse'
p16
F5.366188049316406
sS'homeostasis'
p17
F5.1332619190216064
sS'distend'
p18
F3.9895761013031006
sS'penchant'
p19
F2.314913034439087
sS'latent'
p20
F18.605756998062134
sS'nexus'
p21
F4.037840127944946
sS'fissure'
p22
F8.570250034332275
sS'disseminate'
p23
F3.737823009490967
sS'ethnocentric'
p24
F4.64160680770874
sS'decorum'
p25
F2.6867339611053467
sS'welter'
p26
F1.9610011577606201
sS'herbivorous'
p27
F2.4489638805389404
sS'odyssey'
p28
F2.8322560787200928
sS'satyr'
p29
F7.446613073348999
sS'dross'
p30
F4.33400821685791
sS'hirsute'
p31
F2.578110933303833
sS'causal'
p32
F4.053532123565674
sS'convoluted'
p33
F1.9231250286102295
sS'fervor'
p34
F6.762326955795288
sS'derivative'
p35
F4.947758913040161
sS'clamor'
p36
F9.352443933486938
sS'plaintive'
p37
F11.914607048034668
sS'immutable'
p38
F3.263871908187866
sS'froward'
p39
F3.070003032684326
sS'impair'
p40
F20.09798502922058
sS'cantankerous'
p41
F2.1509010791778564
sS'paleontology'
p42
F8.468653917312622
sS'wistful'
p43
F16.13825821876526
sS'eulogy'
p44
F29.84348487854004
sS'denigrate'
p45
F13.710526943206787
sS'misogynist'
p46
F2.9336698055267334
sS'cacophonous'
p47
F5.126969814300537
sS'gainsay'
p48
F3.3350749015808105
sS'occult'
p49
F5.902491092681885
sS'minatory'
p50
F2.304399013519287
sS'placate'
p51
F4.503319025039673
sS'feral'
p52
F6.0643310546875
sS'laconic'
p53
F1.5229928493499756
sS'igneous'
p54
F1.9474871158599854
sS'suffrage'
p55
F31.511613130569458
sS'concave'
p56
F15.559887886047363
sS'multifarious'
p57
F2.178766965866089
sS'gullible'
p58
F10.063497066497803
sS'discrete'
p59
F3.965212821960449
sS'expository'
p60
F19.088326930999756
sS'invidious'
p61
F10.55279016494751
sS'burgeon'
p62
F8.685536861419678
sS'dogmatic'
p63
F6.678879976272583
sS'enhance'
p64
F2.861297130584717
sS'disparage'
p65
F5.69420599937439
sS'homogeneous'
p66
F3.490854024887085
sS'cartography'
p67
F2.509903907775879
sS'grouse'
p68
F7.116966962814331
sS'detraction'
p69
F3.472946882247925
sS'pragmatic'
p70
F6.186756134033203
sS'contiguous'
p71
F3.153409004211426
sS'misanthrope'
p72
F4.238117933273315
sS'supplant'
p73
F10.697700023651123
sS'egoism'
p74
F4.278409004211426
sS'gerrymander'
p75
F4.277437925338745
sS'idolatry'
p76
F2.814939022064209
sS'contend'
p77
F2.656055212020874
sS'denouement'
p78
F47.8113489151001
sS'precept'
p79
F3.2802510261535645
sS'nostrum'
p80
F4.794249057769775
sS'plummet'
p81
F3.229300022125244
sS'effete'
p82
F11.07542896270752
sS'continence'
p83
F5.730798959732056
sS'flux'
p84
F2.7587761878967285
sS'minuscule'
p85
F2.866441011428833
sS'equivocate'
p86
F8.632503032684326
sS'gossamer'
p87
F24.50884509086609
sS'exacerbate'
p88
F7.710998058319092
sS'diverge'
p89
F3.344541072845459
sS'etymology'
p90
F3.071697950363159
sS'insinuate'
p91
F31.91135597229004
sS'discretion'
p92
F5.112486124038696
sS'convivial'
p93
F1.6716210842132568
sS'pristine'
p94
F11.75987195968628
sS'commensurate'
p95
F19.42054510116577
sS'centripetal'
p96
F2.5894110202789307
sS'satiate'
p97
F1.961496114730835
sS'credo'
p98
F4.83103084564209
sS'sentient'
p99
F5.069499969482422
sS'platitude'
p100
F19.394174098968506
sS'complement'
p101
F8.646483898162842
sS'militate'
p102
F2.158017873764038
sS'ornithologist'
p103
F4.910995960235596
sS'mettlesome'
p104
F1.6333119869232178
sS'interpolate'
p105
F6.872771978378296
sS'virtuoso'
p106
F3.375488042831421
sS'hermetic'
p107
F-7.471950054168701
sS'fawning'
p108
F7.353832006454468
sS'provident'
p109
F2.392019033432007
sS'clique'
p110
F5.4481120109558105
sS'desiccate'
p111
F29.312034130096436
sS'encomium'
p112
F8.619767904281616
sS'preamble'
p113
F22.559391975402832
sS'fiat'
p114
F7.994419097900391
sS'homily'
p115
F14.942224979400635
sS'doctrinaire'
p116
F1.8284051418304443
sS'disjointed'
p117
F6.242076873779297
sS'piquant'
p118
F11.246522188186646
sS'fulminate'
p119
F6.315346002578735
sS'somatic'
p120
F11.396902084350586
sS'etiology'
p121
F14.892850875854492
sS'overweening'
p122
F19.139010906219482
sS'inveigh'
p123
F4.711714029312134
sS'equable'
p124
F23.364936113357544
sS'fulsome'
p125
F7.079324007034302
sS'penury'
p126
F2.7503488063812256
sS'punctilious'
p127
F5.51595401763916
sS'thespian'
p128
F2.248507022857666
sS'chivalry'
p129
F4.985894203186035
sS'plethora'
p130
F8.61630892753601
sS'stultify'
p131
F2.2779769897460938
sS'unfeigned'
p132
F13.510313987731934
sS'fatuous'
p133
F5.239099979400635
sS'felicitous'
p134
F4.590430021286011
sS'consecrate'
p135
F11.723369121551514
sS'extirpate'
p136
F7.115254878997803
sS'negate'
p137
F7.320521831512451
sS'flourish'
p138
F3.75468111038208
sS'nostalgia'
p139
F2.495469093322754
sS'endemic'
p140
F8.820788145065308
sS'miscreant'
p141
F11.90194582939148
sS'epistemology'
p142
F3.8817291259765625
sS'gouge'
p143
F30.538084983825684
sS'dissonance'
p144
F3.0994369983673096
sS'coalesce'
p145
F14.037990808486938
sS'explicate'
p146
F9.287251949310303
sS'codify'
p147
F2.6239190101623535
sS'preternatural'
p148
F2.612912893295288
sS'euphoria'
p149
F3.812688112258911
sS'hallowed'
p150
F26.023401975631714
sS'modicum'
p151
F3.971389055252075
sS'dissolution'
p152
F7.029159069061279
sS'futile'
p153
F3.864765167236328
sS'contrite'
p154
F8.270041942596436
sS'mollify'
p155
F2.9350380897521973
sS'calumny'
p156
F12.411494970321655
sS'foment'
p157
F7.854988098144531
sS'harrowing'
p158
F4.959078073501587
sS'errant'
p159
F4.437278985977173
sS'filibuster'
p160
F8.458434104919434
sS'pervasive'
p161
F7.266945838928223
sS'dormant'
p162
F9.73767900466919
sS'compunction'
p163
F13.728868961334229
sS'champion'
p164
F5.62750506401062
sS'dirge'
p165
F3.842705011367798
sS'credence'
p166
F10.10685920715332
sS'mesmerize'
p167
F7.2309019565582275
sS'dismiss'
p168
F17.826272010803223
sS'esoteric'
p169
F8.346716165542603
sS'execrable'
p170
F5.3757851123809814
sS'embellish'
p171
F3.95625901222229
sS'flag'
p172
F3.076936960220337
sS'demotic'
p173
F13.258096933364868
sS'discrepancy'
p174
F44.63469195365906
sS'daunt'
p175
F3.4836909770965576
sS'finesse'
p176
F8.421474933624268
sS'diffuse'
p177
F2.8859989643096924
sS'mundane'
p178
F4.346063852310181
sS'perennial'
p179
F4.789988040924072
sS'neologism'
p180
F25.10907793045044
sS'discomfit'
p181
F4.614070892333984
sS'gauche'
p182
F2.7785019874572754
sS'engender'
p183
F7.0441601276397705
sS'disingenuous'
p184
F43.089564085006714
sS'oligarchy'
p185
F10.107774019241333
sS'bucolic'
p186
F3.2108168601989746
sS'pungent'
p187
F3.5596530437469482
sS'empirical'
p188
F50.87359309196472
sS'distill'
p189
F11.86962103843689
sS'perturb'
p190
F5.045853137969971
sS'forbearance'
p191
F10.631757974624634
sS'fallow'
p192
F22.848640203475952
sS'impute'
p193
F20.51120615005493
sS'guise'
p194
F7.917838096618652
sS'gambol'
p195
F5.669157981872559
sS'expiate'
p196
F11.983082056045532
sS'mnemonic'
p197
F5.1828930377960205
sS'exculpate'
p198
F4.371840953826904
sS'patois'
p199
F8.155746936798096
sS'celestial'
p200
F25.03367280960083
sS'concomitant'
p201
F10.100335121154785
sS'visage'
p202
F4.173082113265991
sS'onomatopoeia'
p203
F4.2285051345825195
sS'conundrum'
p204
F6.457870006561279
sS'covert'
p205
F1.6627790927886963
sS'stupefy'
p206
F4.163283109664917
sS'canon'
p207
F1.8824920654296875
sS'shard'
p208
F2.3128600120544434
sS'dearth'
p209
F3.728095054626465
sS'saturnine'
p210
F11.71077013015747
sS'divest'
p211
F2.4830880165100098
sS'regale'
p212
F8.947707176208496
sS'euthanasia'
p213
F4.3803629875183105
sS'cadge'
p214
F22.479053020477295
sS'enervate'
p215
F1.6182868480682373
sS'evocative'
p216
F9.88802695274353
sS'sylvan'
p217
F5.847640037536621
sS'sensual'
p218
F3.3617970943450928
sS'effervescence'
p219
F2.4930498600006104
sS'discordant'
p220
F9.70627212524414
sS'impassive'
p221
F3.9036948680877686
sS'efficacy'
p222
F3.2090630531311035
sS'castigation'
p223
F2.135329008102417
sS'florid'
p224
F8.236131191253662
sS'plumb'
p225
F27.869637966156006
sS'discredit'
p226
F14.752434015274048
sS'schematic'
p227
F2.801805019378662
sS'invective'
p228
F18.253509998321533
sS'emollient'
p229
F7.6676061153411865
sS'premonition'
p230
F18.77591109275818
sS'document'
p231
F4.618579864501953
sS'gustatory'
p232
F4.337669134140015
sS'morose'
p233
F5.151119947433472
sS'precipitate'
p234
F22.92368793487549
sS'singular'
p235
F5.714637041091919
sS'miscellany'
p236
F7.9525370597839355
sS'fresco'
p237
F3.0865797996520996
sS'defame'
p238
F5.154717922210693
sS'monolithic'
p239
F11.212861061096191
sS'fetid'
p240
F3.5103890895843506
sS'sensuous'
p241
F3.080836057662964
sS'hieroglyphics'
p242
F2.2121119499206543
sS'impede'
p243
F2.9235360622406006
sS'heterodox'
p244
F3.907708168029785
sS'fracas'
p245
F4.6732048988342285
sS'goad'
p246
F1.7209060192108154
sS'coagulate'
p247
F32.3638801574707
sS'gregarious'
p248
F9.433290958404541
sS'mettle'
p249
F2.289777994155884
sS'effrontery'
p250
F2.860186815261841
sS'egotistical'
p251
F6.4734179973602295
sS'complacent'
p252
F12.810134172439575
sS'mitigate'
p253
F9.99223518371582
sS'sextant'
p254
F6.119487047195435
sS'plasticity'
p255
F10.71139407157898
sS'peremptory'
p256
F11.625138998031616
sS'loquacious'
p257
F2.7485201358795166
sS'prehensile'
p258
F2.5825068950653076
sS'craven'
p259
F3.4811959266662598
sS'variegated'
p260
F1.9896769523620605
sS'complaisant'
p261
F9.743617057800293
sS'torpor'
p262
F10.723896980285645
sS'contumacious'
p263
F3.930424928665161
sS'succor'
p264
F7.704370021820068
sS'ramification'
p265
F4.15444803237915
sS'forswear'
p266
F7.403310060501099
sS'cloister'
p267
F7.97511100769043
sS'conjugal'
p268
F2.860576868057251
sS'disparate'
p269
F3.6419918537139893
sS'partisan'
p270
F4.935662031173706
s.