(dp0
S'voluble'
p1
(dp2
S'wrong'
p3
(lp4
sS'right'
p5
(lp6
sS'class'
p7
S'p3000'
p8
sS'exp'
p9
S'fluent, verbal, having easy use of spoken language'
p10
ssS'gossamer'
p11
(dp12
g3
(lp13
sg5
(lp14
sg7
S'b800'
p15
sg9
S'sheer; light and delicate; like cobwebs'
p16
ssS'dissolution'
p17
(dp18
g3
(lp19
sg5
(lp20
sg7
g15
sg9
S'disintegration;debauchery'
p21
ssS'pejorative'
p22
(dp23
g3
(lp24
sg5
(lp25
sg7
g8
sg9
S'adj. insulting'
p26
ssS'elegy'
p27
(dp28
g3
(lp29
sg5
(lp30
sg7
g15
sg9
S'poem or song expressing lamentation'
p31
ssS'tenuous'
p32
(dp33
g3
(lp34
sg5
(lp35
sg7
g15
sg9
S'weak, insubstantial'
p36
ssS'minuscule'
p37
(dp38
g3
(lp39
sg5
(lp40
(lp41
S'28/07/2015'
p42
aF1.7815630435943604
aasg7
g15
sg9
S'very small'
p43
ssS'Wry'
p44
(dp45
g3
(lp46
sg5
(lp47
sg7
g8
sg9
S'Grimly humorous.'
p48
ssS'excoriate'
p49
(dp50
g3
(lp51
sg5
(lp52
sg7
g8
sg9
S'v. criticize angrily'
p53
ssS'etymology'
p54
(dp55
g3
(lp56
sg5
(lp57
sg7
g15
sg9
S'origin and history of a word'
p58
ssS'sinew'
p59
(dp60
g3
(lp61
sg5
(lp62
sg7
g8
sg9
S'vigorous strength, muscular power or the source thereof'
p63
ssS'rankle'
p64
(dp65
g3
(lp66
sg5
(lp67
sg7
g8
sg9
S'(v.) to cause anger, irritation, or bitterness (with the suggestion that the pain grows worse with time)'
p68
ssS'portentous'
p69
(dp70
g3
(lp71
sg5
(lp72
sg7
g8
sg9
S'adj. acting as a sign for the future'
p73
ssS'plaintive'
p74
(dp75
g3
(lp76
sg5
(lp77
sg7
g15
sg9
S'melancholy; mournful'
p78
ssS'vociferous'
p79
(dp80
g3
(lp81
sg5
(lp82
sg7
g8
sg9
S'adj: loud; boisterous'
p83
ssS'intercessor'
p84
(dp85
g3
(lp86
sg5
(lp87
sg7
g8
sg9
S"n. someone who steps in on another's behalf"
p88
ssS'stipulate'
p89
(dp90
g3
(lp91
sg5
(lp92
sg7
g15
sg9
S'to specify as an essential condition'
p93
ssS'eugenics'
p94
(dp95
g3
(lp96
sg5
(lp97
sg7
g15
sg9
S'study of factors that influence the hereditary qualities of the human race and ways to improve those qualities'
p98
ssS'Cogent'
p99
(dp100
g3
(lp101
sg5
(lp102
sg7
g8
sg9
S'Convincing'
p103
ssS'anemic'
p104
(dp105
g3
(lp106
sg5
(lp107
sg7
g8
sg9
S'lacking force, vitality, or spirit(sapless, feeble, decrepit, wan, pale, pallid, effete, lethargic)'
p108
ssS'protean'
p109
(dp110
g3
(lp111
sg5
(lp112
sg7
g8
sg9
S'adj. constantly changing'
p113
ssS'grueling'
p114
(dp115
g3
(lp116
sg5
(lp117
sg7
g8
sg9
S'very tiring and exhausting'
p118
ssS'vitriolic'
p119
(dp120
g3
(lp121
sg5
(lp122
sg7
g8
sg9
S'adj. highly corrosive, bitterly scathing, caustic, virulent'
p123
ssS'enhance'
p124
(dp125
g3
(lp126
sg5
(lp127
sg7
g15
sg9
S'to increase; improve'
p128
ssS'veritable'
p129
(dp130
g3
(lp131
sg5
(lp132
sg7
g8
sg9
S'true'
p133
ssS'pragmatic'
p134
(dp135
g3
(lp136
sg5
(lp137
sg7
g15
sg9
S'practical'
p138
ssS'concise'
p139
(dp140
g3
(lp141
sg5
(lp142
sg7
g8
sg9
S'adj. to the point; expressing a lot in a few words(brevity)'
p143
ssS'reprehension'
p144
(dp145
g3
(lp146
sg5
(lp147
sg7
g8
sg9
S'n. telling off'
p148
ssS'scrutinize'
p149
(dp150
g3
(lp151
sg5
(lp152
sg7
g8
sg9
S'v. examine closely'
p153
ssS'tangential'
p154
(dp155
g3
(lp156
sg5
(lp157
sg7
g15
sg9
S'peripheral, irrelevant, digressing'
p158
ssS'tether'
p159
(dp160
g3
(lp161
sg5
(lp162
sg7
g8
sg9
S'(n.) a rope or chain used to fasten something to a fixed object; the outer limit of strength or resources; (v.) to fasten with a rope or chain'
p163
ssS'sterile'
p164
(dp165
g3
(lp166
sg5
(lp167
sg7
g8
sg9
S'uncontaminated; pure; infertile'
p168
ssS'Retrench'
p169
(dp170
g3
(lp171
sg5
(lp172
sg7
g8
sg9
S'Cut down; economize'
p173
ssS'jocular'
p174
(dp175
g3
(lp176
sg5
(lp177
sg7
g8
sg9
S'adj. in a jokey spirit(not jocund)'
p178
ssS'malleable'
p179
(dp180
g3
(lp181
sg5
(lp182
sg7
g15
sg9
S'able to be hammered or pressed permanently out of shape without breaking or cracking'
p183
ssS'insinuate'
p184
(dp185
g3
(lp186
sg5
(lp187
sg7
g15
sg9
S'to suggest; say indirectly; imply'
p188
ssS'maverick'
p189
(dp190
g3
(lp191
sg5
(lp192
sg7
g15
sg9
S'dissenter'
p193
ssS'prate'
p194
(dp195
g3
(lp196
sg5
(lp197
sg7
g15
sg9
S'to talk idly; chatter'
p198
ssS'itinerary'
p199
(dp200
g3
(lp201
sg5
(lp202
(lp203
S'28/07/2015'
p204
aF3.591089963912964
aasg7
g15
sg9
S"route of a traveler's journey"
p205
ssS'Tinge'
p206
(dp207
g3
(lp208
sg5
(lp209
sg7
g8
sg9
S'color slightly'
p210
ssS'recessive'
p211
(dp212
g3
(lp213
sg5
(lp214
sg7
g8
sg9
S'adj. not dominant'
p215
ssS'connoisseur'
p216
(dp217
g3
(lp218
sg5
(lp219
sg7
g15
sg9
S'expert in matters of taste; expert knowledge or training'
p220
ssS'etiology'
p221
(dp222
g3
(lp223
sg5
(lp224
sg7
g15
sg9
S'causes or origins'
p225
ssS'harass'
p226
(dp227
g3
(lp228
sg5
(lp229
sg7
g8
sg9
S'v. bother'
p230
ssS'leaven'
p231
(dp232
g3
(lp233
sg5
(lp234
sg7
g8
sg9
S'v. add yeast to'
p235
ssS'upbraid'
p236
(dp237
g3
(lp238
sg5
(lp239
sg7
g8
sg9
S'v. to scold bitterly'
p240
ssS'anarchist'
p241
(dp242
g3
(lp243
sg5
(lp244
sg7
g8
sg9
S'n. one who believes in lawless society(chaos,disarray)'
p245
ssS'intrigue'
p246
(dp247
g3
(lp248
sg5
(lp249
sg7
g8
sg9
S'(n.) crafty dealings, underhanded plotting; (v.) to form and carry out plots; to puzzle or excite the curiosity'
p250
ssS'astute'
p251
(dp252
g3
(lp253
sg5
(lp254
sg7
g8
sg9
S'shrewd; keen in judgment'
p255
ssS'punctilious'
p256
(dp257
g3
(lp258
sg5
(lp259
sg7
g15
sg9
S'careful in observing rules fo behavior'
p260
ssS'stray'
p261
(dp262
g3
(lp263
sg5
(lp264
sg7
g8
sg9
S'move away aimlessly from a group or from the right course or place; desultory, haphzard'
p265
ssS'Limber'
p266
(dp267
g3
(lp268
sg5
(lp269
sg7
g8
sg9
S'Flexible(not lissome,lithe)'
p270
ssS'Riveting'
p271
(dp272
g3
(lp273
sg5
(lp274
sg7
g8
sg9
S'Absorbing; engrossing'
p275
ssS'Lampoon'
p276
(dp277
g3
(lp278
sg5
(lp279
sg7
g8
sg9
S'Ridicule'
p280
ssS'circumvent'
p281
(dp282
g3
(lp283
sg5
(lp284
sg7
g8
sg9
S'find a way around (an obstacle).'
p285
ssS'exhort'
p286
(dp287
g3
(lp288
sg5
(lp289
sg7
g15
sg9
S'to urge by strong appeals'
p290
ssS'Jaunty'
p291
(dp292
g3
(lp293
sg5
(lp294
sg7
g8
sg9
S'Lighthearted; animated'
p295
ssS'inchoate'
p296
(dp297
g3
(lp298
sg5
(lp299
sg7
g15
sg9
S'imperfectely formed or formulated'
p300
ssS'barbarous'
p301
(dp302
g3
(lp303
sg5
(lp304
sg7
g8
sg9
S'savage and uncivilised'
p305
ssS'Profane'
p306
(dp307
g3
(lp308
sg5
(lp309
sg7
g8
sg9
S'Violate; desecrate; treat unworthily'
p310
ssS'wary'
p311
(dp312
g3
(lp313
sg5
(lp314
sg7
g15
sg9
S'careful, cautious'
p315
ssS'mesmerize'
p316
(dp317
g3
(lp318
sg5
(lp319
sg7
g15
sg9
S'to hypnotize'
p320
ssS'dogma'
p321
(dp322
g3
(lp323
sg5
(lp324
sg7
g8
sg9
S'n. credo, doctrine,gospel, belief people must accept'
p325
ssS'qualm'
p326
(dp327
g3
(lp328
sg5
(lp329
sg7
g15
sg9
S'sudden feeling of faintness or nausea'
p330
ssS'adamant'
p331
(dp332
g3
(lp333
sg5
(lp334
sg7
g15
sg9
S'uncompromising; unyielding'
p335
ssS'hoax'
p336
(dp337
g3
(lp338
sg5
(lp339
sg7
g8
sg9
S'(n.) Something intended to deceive or trick; (v.) To deceive or trick'
p340
ssS'flora'
p341
(dp342
g3
(lp343
sg5
(lp344
sg7
g15
sg9
S'plants of a region or era'
p345
ssS'somber'
p346
(dp347
g3
(lp348
sg5
(lp349
sg7
g8
sg9
S'gloomy;stygian'
p350
ssS'grovel'
p351
(dp352
g3
(lp353
sg5
(lp354
sg7
g8
sg9
S'(v.) To show submission or fear; To humble oneself'
p355
ssS'guise'
p356
(dp357
g3
(lp358
sg5
(lp359
sg7
g15
sg9
S'outward appearance; false appearance'
p360
ssS'spendthrift'
p361
(dp362
g3
(lp363
sg5
(lp364
sg7
g15
sg9
S'person who spends money recklessly'
p365
ssS'aggrandize'
p366
(dp367
g3
(lp368
sg5
(lp369
sg7
g15
sg9
S'to make larger or greater'
p370
ssS'ascetic'
p371
(dp372
g3
(lp373
sg5
(lp374
sg7
g15
sg9
S'one who practices self-denial'
p375
ssS'mnemonic'
p376
(dp377
g3
(lp378
sg5
(lp379
sg7
g15
sg9
S'realated to memory; assisting memory'
p380
ssS'defile'
p381
(dp382
g3
(lp383
sg5
(lp384
sg7
g8
sg9
S'(v., trans.) to make unclean or dirty, destroy the purity of; (v., intrans.) to march in a single line or in columns; (n.) a narrow passage; gorge, canyon'
p385
ssS'blight'
p386
(dp387
g3
(lp388
sg5
(lp389
sg7
g8
sg9
S'n. disease affecting crops'
p390
ssS'refulgent'
p391
(dp392
g3
(lp393
sg5
(lp394
sg7
g15
sg9
S'brightly shining, resplendent'
p395
ssS'impair'
p396
(dp397
g3
(lp398
sg5
(lp399
sg7
g15
sg9
S'to damage; injure'
p400
ssS'malign'
p401
(dp402
g3
(lp403
sg5
(lp404
sg7
g15
sg9
S'to speak evil of'
p405
ssS'simian'
p406
(dp407
g3
(lp408
(lp409
S'28/07/2015'
p410
aF3.3660950660705566
aS'No idea'
p411
aasg5
(lp412
sg7
g15
sg9
S'apelike, relating to apes'
p413
ssS'minutia'
p414
(dp415
g3
(lp416
(lp417
S'28/07/2015'
p418
aI15
aS'NEN'
p419
aasg5
(lp420
(lp421
S'28/07/2015'
p422
aF14.614742040634155
aasg7
g15
sg9
S'petty details'
p423
ssS'gargantuan'
p424
(dp425
g3
(lp426
sg5
(lp427
sg7
g8
sg9
S'huge'
p428
ssS'obloquy'
p429
(dp430
g3
(lp431
sg5
(lp432
sg7
g8
sg9
S'strong public criticism or verbal abuse. exasperate'
p433
ssS'provincial'
p434
(dp435
g3
(lp436
sg5
(lp437
sg7
g8
sg9
S'(adj.) pertaining to an outlying area; local; narrow in mind or outlook, countrified in the sense of being limited and backward; of a simple, plain design that originated in the countryside; (n.) a pe'
p438
ssS'Panache'
p439
(dp440
g3
(lp441
sg5
(lp442
sg7
g8
sg9
S'Flair; flamboyance'
p443
ssS'impassive'
p444
(dp445
g3
(lp446
sg5
(lp447
sg7
g15
sg9
S'showing no emotion'
p448
ssS'farce'
p449
(dp450
g3
(lp451
sg5
(lp452
sg7
g8
sg9
S'an absurd situation'
p453
ssS'copious'
p454
(dp455
g3
(lp456
sg5
(lp457
sg7
g15
sg9
S'abundant; plentiful'
p458
ssS'debauchery'
p459
(dp460
g3
(lp461
sg5
(lp462
sg7
g15
sg9
S'corruption'
p463
ssS'sate'
p464
(dp465
g3
(lp466
sg5
(lp467
sg7
g8
sg9
S'satisfy (a desire or an appetite) to the full'
p468
ssS'Revolt'
p469
(dp470
g3
(lp471
sg5
(lp472
sg7
g8
sg9
S'The action of protesting against authority.\xe5\x8f\x8d\xe6\x8a\x97\xe3\x80\x82\xe8\xb5\xb7\xe7\xbe\xa9\xe3\x80\x82\xe5\x8f\x9b\xe4\xba\x82\xe3\x80\x82'
p473
ssS'vicious'
p474
(dp475
g3
(lp476
sg5
(lp477
sg7
g8
sg9
S'(adj.) Hurtful; Intending to harm'
p478
ssS'adumbrate'
p479
(dp480
g3
(lp481
sg5
(lp482
sg7
g8
sg9
S'produce an outline or preliminary image; foreshadow'
p483
ssS'fracas'
p484
(dp485
g3
(lp486
sg5
(lp487
(lp488
S'28/07/2015'
p489
aF4.817966938018799
aasg7
g15
sg9
S'a loud quarrel; brawl'
p490
ssS'Boisterous'
p491
(dp492
g3
(lp493
sg5
(lp494
sg7
g8
sg9
S'Violent; rough; noisy(vociferous, blatant, clamorous, raucous, rowdy)'
p495
ssS'complacent'
p496
(dp497
g3
(lp498
sg5
(lp499
sg7
g15
sg9
S'self-satisfied'
p500
ssS'execrable'
p501
(dp502
g3
(lp503
sg5
(lp504
sg7
g15
sg9
S'extremely bad or unpleasant'
p505
ssS'austere'
p506
(dp507
g3
(lp508
sg5
(lp509
sg7
g15
sg9
S'stern; unadorned; simple'
p510
ssS'retort'
p511
(dp512
g3
(lp513
sg5
(lp514
sg7
g8
sg9
S'v. sharp response;riposte; repartee'
p515
ssS'Conspire'
p516
(dp517
g3
(lp518
sg5
(lp519
sg7
g8
sg9
S'Conspiracy; plan illegally, connive'
p520
ssS'hypnotic'
p521
(dp522
g3
(lp523
sg5
(lp524
sg7
g8
sg9
S'adj. causing trances'
p525
ssS'nascent'
p526
(dp527
g3
(lp528
sg5
(lp529
sg7
g8
sg9
S'coming into being; in early developmental stages'
p530
ssS'Swelter'
p531
(dp532
g3
(lp533
sg5
(lp534
sg7
g8
sg9
S'Oppressed by heat'
p535
ssS'remonstrate'
p536
(dp537
g3
(lp538
sg5
(lp539
sg7
g15
sg9
S'to object or protest'
p540
ssS'archaeology'
p541
(dp542
g3
(lp543
sg5
(lp544
sg7
g15
sg9
S'the study of material evidence of past human life'
p545
ssS'fetter'
p546
(dp547
g3
(lp548
sg5
(lp549
sg7
g15
sg9
S'to bind; confine'
p550
ssS'fortify'
p551
(dp552
g3
(lp553
sg5
(lp554
sg7
g8
sg9
S'v. make stronger'
p555
ssS'fable'
p556
(dp557
g3
(lp558
sg5
(lp559
sg7
g8
sg9
S'a story that teaches a lesson'
p560
ssS'toady'
p561
(dp562
g3
(lp563
sg5
(lp564
sg7
g15
sg9
S'flatterer, yes-man'
p565
ssS'carnal'
p566
(dp567
g3
(lp568
sg5
(lp569
sg7
g15
sg9
S'of the flesh or body; related to physical appetites'
p570
ssS'fidelity'
p571
(dp572
g3
(lp573
sg5
(lp574
sg7
g15
sg9
S'loyalty; exact correspondence'
p575
ssS'estrange'
p576
(dp577
g3
(lp578
sg5
(lp579
sg7
g8
sg9
S'to cause to stop being friendly, alienate, disaffect, sour, disgruntle'
p580
ssS'Gaudy'
p581
(dp582
g3
(lp583
sg5
(lp584
sg7
g8
sg9
S'Excessively showy or extravagant.'
p585
ssS'Prowess'
p586
(dp587
g3
(lp588
sg5
(lp589
sg7
g8
sg9
S'Extraordinary ability'
p590
ssS'apothegm'
p591
(dp592
g3
(lp593
sg5
(lp594
sg7
g15
sg9
S'a terse, witty saying'
p595
ssS'supplicant'
p596
(dp597
g3
(lp598
sg5
(lp599
(lp600
S'28/07/2015'
p601
aF3.388498067855835
aasg7
g15
sg9
S'one who asks humbly and earnestly'
p602
ssS'hirsute'
p603
(dp604
g3
(lp605
sg5
(lp606
sg7
g15
sg9
S'covered with hair'
p607
ssS'precipitate'
p608
(dp609
g3
(lp610
(lp611
S'28/07/2015'
p612
aF21.736757040023804
aS'No idea'
p613
aasg5
(lp614
sg7
g15
sg9
S'rash; hasty; sudden; done without deliberation'
p615
ssS'apogee'
p616
(dp617
g3
(lp618
sg5
(lp619
sg7
g15
sg9
S'the point in an orbit most distant from the body being orbited; the highest point'
p620
ssS'imperturbable'
p621
(dp622
g3
(lp623
sg5
(lp624
sg7
g15
sg9
S'not easily disturbed'
p625
ssS'affected'
p626
(dp627
g3
(lp628
sg5
(lp629
sg7
g15
sg9
S'pretentious; phony'
p630
ssS'entomology'
p631
(dp632
g3
(lp633
sg5
(lp634
sg7
g15
sg9
S'the scientific study of insects'
p635
ssS'bane'
p636
(dp637
g3
(lp638
sg5
(lp639
sg7
g8
sg9
S'poison, cause of harm'
p640
ssS'lenient'
p641
(dp642
g3
(lp643
sg5
(lp644
sg7
g8
sg9
S'adj. not strict'
p645
ssS'ebullient'
p646
(dp647
g3
(lp648
sg5
(lp649
sg7
g15
sg9
S'exhilarated; overly enthusiastic'
p650
ssS'acme'
p651
(dp652
g3
(lp653
sg5
(lp654
sg7
g8
sg9
S'(n.) the highest point'
p655
ssS'debut'
p656
(dp657
g3
(lp658
sg5
(lp659
sg7
g8
sg9
S'first public appearance'
p660
ssS'absolve'
p661
(dp662
g3
(lp663
sg5
(lp664
sg7
g8
sg9
S'v. declare free from responsibility'
p665
ssS'herald'
p666
(dp667
g3
(lp668
sg5
(lp669
sg7
g8
sg9
S'a sign that something is about to happen'
p670
ssS'capricious'
p671
(dp672
g3
(lp673
sg5
(lp674
sg7
g15
sg9
S'fickle'
p675
ssS'lofty'
p676
(dp677
g3
(lp678
sg5
(lp679
sg7
g8
sg9
S'(adj.) Having or displaying great dignity or nobility; grand and elevated'
p680
ssS'obdurate'
p681
(dp682
g3
(lp683
sg5
(lp684
sg7
g15
sg9
S'stubborn'
p685
ssS'improvise'
p686
(dp687
g3
(lp688
sg5
(lp689
sg7
g8
sg9
S'to deal with things as they come, without planning'
p690
ssS'dour'
p691
(dp692
g3
(lp693
sg5
(lp694
sg7
g8
sg9
S'adj. sullen, gloomy'
p695
ssS'cartography'
p696
(dp697
g3
(lp698
sg5
(lp699
sg7
g15
sg9
S'science of making maps'
p700
ssS'heterodox'
p701
(dp702
g3
(lp703
sg5
(lp704
sg7
g15
sg9
S'not widely accepted'
p705
ssS'Edifice'
p706
(dp707
g3
(lp708
sg5
(lp709
sg7
g8
sg9
S'Large and usually impressive building'
p710
ssS'caustic'
p711
(dp712
g3
(lp713
(lp714
S'28/07/2015'
p715
aI15
ag419
aasg5
(lp716
sg7
g15
sg9
S'burning; stinging; causing corrosion'
p717
ssS'Latitude'
p718
(dp719
g3
(lp720
sg5
(lp721
sg7
g8
sg9
S'Freedom fron narrow limitations'
p722
ssS'ameliorate'
p723
(dp724
g3
(lp725
sg5
(lp726
sg7
g15
sg9
S'to improve'
p727
ssS'allay'
p728
(dp729
g3
(lp730
sg5
(lp731
sg7
g15
sg9
S'to lessen; ease; soothe'
p732
ssS'contend'
p733
(dp734
g3
(lp735
sg5
(lp736
sg7
g15
sg9
S'to assert'
p737
ssS'fraught'
p738
(dp739
g3
(lp740
sg5
(lp741
sg7
g8
sg9
S'adj. filled with anxiety'
p742
ssS'urbane'
p743
(dp744
g3
(lp745
sg5
(lp746
sg7
g8
sg9
S'adj. refined in behaviour'
p747
ssS'remorse'
p748
(dp749
g3
(lp750
sg5
(lp751
sg7
g8
sg9
S'n. deep regret'
p752
ssS'endemic'
p753
(dp754
g3
(lp755
sg5
(lp756
sg7
g15
sg9
S'inherent; belonging to an area'
p757
ssS'disinterested'
p758
(dp759
g3
(lp760
(lp761
S'28/07/2015'
p762
aI15
ag419
aasg5
(lp763
(lp764
S'28/07/2015'
p765
aF7.6789820194244385
aasg7
g15
sg9
S'unprejudiced; objective'
p766
ssS'eternal'
p767
(dp768
g3
(lp769
sg5
(lp770
sg7
g8
sg9
S'perpetual, ageless, everlasting, immportal, imperishable, perennial, perpetual, undying'
p771
ssS'salient'
p772
(dp773
g3
(lp774
sg5
(lp775
sg7
g8
sg9
S'adj. prominent or conspicuous.'
p776
ssS'Incense'
p777
(dp778
g3
(lp779
sg5
(lp780
sg7
g8
sg9
S'Enrage; infuriate, aggravate, enrage, inflame, infuriate, madden, outrage, rile, roil, rankle,exasperate'
p781
ssS'abate'
p782
(dp783
g3
(lp784
sg5
(lp785
sg7
g15
sg9
S'to decrease; reduce'
p786
ssS'jubilant'
p787
(dp788
g3
(lp789
sg5
(lp790
sg7
g8
sg9
S'adj. full of joy'
p791
ssS'Implacable'
p792
(dp793
g3
(lp794
sg5
(lp795
sg7
g8
sg9
S'Unable to be pacified or appeased; inexorable.'
p796
ssS'connive'
p797
(dp798
g3
(lp799
sg5
(lp800
sg7
g8
sg9
S'to cooperate secretly, collude, conspire;'
p801
ssS'prodigal'
p802
(dp803
g3
(lp804
sg5
(lp805
(lp806
S'28/07/2015'
p807
aF15.595893144607544
aasg7
g15
sg9
S'wasteful; extravagant; lavish'
p808
ssS'explicate'
p809
(dp810
g3
(lp811
sg5
(lp812
sg7
g15
sg9
S'to explain;interpret;clarify'
p813
ssS'unflappable'
p814
(dp815
g3
(lp816
sg5
(lp817
sg7
g8
sg9
S'composed'
p818
ssS'penury'
p819
(dp820
g3
(lp821
sg5
(lp822
sg7
g15
sg9
S'extreme poverty'
p823
ssS'officious'
p824
(dp825
g3
(lp826
sg5
(lp827
sg7
g15
sg9
S'assertive of authority in an annoyingly domineering way, esp. with regard to petty or trivial matters'
p828
ssS'rant'
p829
(dp830
g3
(lp831
sg5
(lp832
sg7
g8
sg9
S'(n.) A loud, violent, or extravagant speech or writing; (v.) To speak or write in a angry or violent manner'
p833
ssS'Bliss'
p834
(dp835
g3
(lp836
sg5
(lp837
sg7
g8
sg9
S'Extreme happiness or joy'
p838
ssS'adventitious'
p839
(dp840
g3
(lp841
sg5
(lp842
sg7
g8
sg9
S'resulting from chance rather than from an inherent cause or character; accidental, not essential; (medicine) acquired, not congenital( external, extraneous)'
p843
ssS'sarcasm'
p844
(dp845
g3
(lp846
sg5
(lp847
sg7
g8
sg9
S'biting and often ironic and caustic remarks or attitude'
p848
ssS'indeterminate'
p849
(dp850
g3
(lp851
sg5
(lp852
sg7
g15
sg9
S'uncertain; indefinite'
p853
ssS'euphoria'
p854
(dp855
g3
(lp856
sg5
(lp857
sg7
g15
sg9
S'feeling of extreme happiness'
p858
ssS'centripetal'
p859
(dp860
g3
(lp861
sg5
(lp862
sg7
g15
sg9
S'moving or directed toward a center'
p863
ssS'flippant'
p864
(dp865
g3
(lp866
sg5
(lp867
sg7
g8
sg9
S'Lacking seriousness'
p868
ssS'analgesic'
p869
(dp870
g3
(lp871
sg5
(lp872
sg7
g15
sg9
S'medication that reduces or eliminates pain'
p873
ssS'postulate'
p874
(dp875
g3
(lp876
sg5
(lp877
sg7
g8
sg9
S'essential premise; underlying assumption'
p878
ssS'filibuster'
p879
(dp880
g3
(lp881
sg5
(lp882
(lp883
S'28/07/2015'
p884
aF2.5076210498809814
aasg7
g15
sg9
S'use of obstructive tactics in a legislature to block passage of a law'
p885
ssS'reparation'
p886
(dp887
g3
(lp888
sg5
(lp889
sg7
g15
sg9
S'amends, compensation'
p890
ssS'compunction'
p891
(dp892
g3
(lp893
sg5
(lp894
sg7
g15
sg9
S'uneasiness caused by guilt'
p895
ssS'reprobate'
p896
(dp897
g3
(lp898
sg5
(lp899
sg7
g15
sg9
S'morally unprincipled person'
p900
ssS'paltry'
p901
(dp902
g3
(lp903
sg5
(lp904
sg7
g8
sg9
S'trifling, insignificant; mean, despicable'
p905
ssS'esoteric'
p906
(dp907
g3
(lp908
sg5
(lp909
sg7
g15
sg9
S'hard to understand; known only to a few'
p910
ssS'embellish'
p911
(dp912
g3
(lp913
sg5
(lp914
sg7
g15
sg9
S'to adorn; enhance'
p915
ssS'Nebulous'
p916
(dp917
g3
(lp918
sg5
(lp919
sg7
g8
sg9
S'in the form of a cloud or haze; hazy. Vague; hazy; cloudy'
p920
ssS'stoic'
p921
(dp922
g3
(lp923
sg5
(lp924
sg7
g8
sg9
S'unemotional, resigned to the motions of fate'
p925
ssS'requisite'
p926
(dp927
g3
(lp928
sg5
(lp929
sg7
g8
sg9
S'adj. necessary'
p930
ssS'rebuff'
p931
(dp932
g3
(lp933
sg5
(lp934
sg7
g8
sg9
S'(v.)reject (someone or something) in an abrupt or ungracious manner  to snub; to repel, drive away; (n.) a curt rejection, a check'
p935
ssS'sidereal'
p936
(dp937
g3
(lp938
sg5
(lp939
sg7
g15
sg9
S'relating to the stars'
p940
ssS'Anterior'
p941
(dp942
g3
(lp943
sg5
(lp944
sg7
g8
sg9
S'Front'
p945
ssS'guile'
p946
(dp947
g3
(lp948
sg5
(lp949
sg7
g8
sg9
S'(n) deceit, treachery, insidious cunning, slyness, a trick'
p950
ssS'medley'
p951
(dp952
g3
(lp953
sg5
(lp954
sg7
g8
sg9
S'n. mixture'
p955
ssS'stratified'
p956
(dp957
g3
(lp958
sg5
(lp959
sg7
g15
sg9
S'arranged in layers'
p960
ssS'exorcise'
p961
(dp962
g3
(lp963
sg5
(lp964
sg7
g15
sg9
S'to expel evil spirits; free from bad influences'
p965
ssS'threadbare'
p966
(dp967
g3
(lp968
sg5
(lp969
sg7
g8
sg9
S'(adj.) Overused to the point of being worn out; shabby'
p970
ssS'seminal'
p971
(dp972
g3
(lp973
sg5
(lp974
sg7
g8
sg9
S'influential, at the beginning of a trend or movement'
p975
ssS'Preeminence'
p976
(dp977
g3
(lp978
sg5
(lp979
sg7
g8
sg9
S'Superiority.'
p980
ssS'temporize'
p981
(dp982
g3
(lp983
sg5
(lp984
sg7
g8
sg9
S'to stall or act evasively in order to gain time, avoid a confrontations, or postpone a decision; to compromise'
p985
ssS'torque'
p986
(dp987
g3
(lp988
sg5
(lp989
sg7
g15
sg9
S'a turning or twisting force'
p990
ssS'spectrum'
p991
(dp992
g3
(lp993
sg5
(lp994
sg7
g15
sg9
S'band of color, broad range of related ideas or objects'
p995
ssS'lull'
p996
(dp997
g3
(lp998
sg5
(lp999
sg7
g8
sg9
S'to soothe or calm; to deceive into trustfulness'
p1000
ssS'cadge'
p1001
(dp1002
g3
(lp1003
sg5
(lp1004
sg7
g15
sg9
S'to beg; sponge'
p1005
ssS'berate'
p1006
(dp1007
g3
(lp1008
sg5
(lp1009
sg7
g8
sg9
S'v. scold angrily'
p1010
ssS'spect'
p1011
(dp1012
g3
(lp1013
sg5
(lp1014
sg7
g8
sg9
S'see, look'
p1015
ssS'relapse'
p1016
(dp1017
g3
(lp1018
sg5
(lp1019
sg7
g8
sg9
S'v. fall into a previously rejected behaviour'
p1020
ssS'prehensile'
p1021
(dp1022
g3
(lp1023
sg5
(lp1024
sg7
g15
sg9
S'capable of grasping'
p1025
ssS'uncouth'
p1026
(dp1027
g3
(lp1028
sg5
(lp1029
sg7
g8
sg9
S'(adj.) Crude or unrefined; Lacking refinement'
p1030
ssS'divulge'
p1031
(dp1032
g3
(lp1033
sg5
(lp1034
sg7
g15
sg9
S'to make known something that is secret'
p1035
ssS'insularity'
p1036
(dp1037
g3
(lp1038
sg5
(lp1039
(lp1040
S'28/07/2015'
p1041
aF4.9065330028533936
aasg7
g15
sg9
S'narrow-mindedness; isolation'
p1042
ssS'propitious'
p1043
(dp1044
g3
(lp1045
sg5
(lp1046
sg7
g8
sg9
S'giving or indicating a good chance of success; favorable'
p1047
ssS'imprudent'
p1048
(dp1049
g3
(lp1050
sg5
(lp1051
sg7
g8
sg9
S'adj. not caring about the consequences of an action'
p1052
ssS'inured'
p1053
(dp1054
g3
(lp1055
sg5
(lp1056
(lp1057
S'28/07/2015'
p1058
aF10.0853590965271
aasg7
g15
sg9
S'hardened; accustomed; used to'
p1059
ssS'salubrious'
p1060
(dp1061
g3
(lp1062
sg5
(lp1063
sg7
g15
sg9
S'healthful'
p1064
ssS'Vagary'
p1065
(dp1066
g3
(lp1067
sg5
(lp1068
sg7
g8
sg9
S'An erratic, unpredictable action; idea; whim; wild notion'
p1069
ssS'germane'
p1070
(dp1071
g3
(lp1072
sg5
(lp1073
sg7
g8
sg9
S'relevant; appropriate'
p1074
ssS'prohibitive'
p1075
(dp1076
g3
(lp1077
sg5
(lp1078
sg7
g15
sg9
S'so high as to prevent the purchase or use of, forbidding'
p1079
ssS'encomium'
p1080
(dp1081
g3
(lp1082
sg5
(lp1083
sg7
g15
sg9
S'a formal expression of praise'
p1084
ssS'venial'
p1085
(dp1086
g3
(lp1087
sg5
(lp1088
sg7
g8
sg9
S'adj. not serious'
p1089
ssS'exonerate'
p1090
(dp1091
g3
(lp1092
sg5
(lp1093
sg7
g8
sg9
S'to free somebody from blame or guilt'
p1094
ssS'peevish'
p1095
(dp1096
g3
(lp1097
sg5
(lp1098
sg7
g8
sg9
S'adj. easily angered'
p1099
ssS'mitigate'
p1100
(dp1101
g3
(lp1102
sg5
(lp1103
(lp1104
S'28/07/2015'
p1105
aF2.185683012008667
aasg7
g15
sg9
S'alleviate; to become less severe'
p1106
ssS'Wane'
p1107
(dp1108
g3
(lp1109
sg5
(lp1110
sg7
g8
sg9
S'Decrease in size or strength; draw gradually to an end'
p1111
ssS'impostor'
p1112
(dp1113
g3
(lp1114
sg5
(lp1115
sg7
g8
sg9
S'(n.) Someone who assumes a false identity'
p1116
ssS'disabuse'
p1117
(dp1118
g3
(lp1119
sg5
(lp1120
(lp1121
S'28/07/2015'
p1122
aF11.338552951812744
aasg7
g15
sg9
S'free from a misconception'
p1123
ssS'Hamper'
p1124
(dp1125
g3
(lp1126
sg5
(lp1127
sg7
g8
sg9
S'Obstruct'
p1128
ssS'nettle'
p1129
(dp1130
g3
(lp1131
sg5
(lp1132
sg7
g8
sg9
S'annoy; vex;exasperate'
p1133
ssS'consummate'
p1134
(dp1135
g3
(lp1136
sg5
(lp1137
sg7
g8
sg9
S'having or revealing supreme mastery or skill'
p1138
ssS'marvel'
p1139
(dp1140
g3
(lp1141
sg5
(lp1142
sg7
g8
sg9
S'n. amazing thing'
p1143
ssS'incorporate'
p1144
(dp1145
g3
(lp1146
sg5
(lp1147
sg7
g15
sg9
S'introduce something into another thing already in existence'
p1148
ssS'bait'
p1149
(dp1150
g3
(lp1151
sg5
(lp1152
sg7
g8
sg9
S'vt. to persecute or exasperate with unjust, malicious, or persistent attacks,( badger, annoy, badger,heckle, harass)'
p1153
ssS'sage'
p1154
(dp1155
g3
(lp1156
sg5
(lp1157
sg7
g15
sg9
S'wise'
p1158
ssS'precarious'
p1159
(dp1160
g3
(lp1161
sg5
(lp1162
sg7
g15
sg9
S'uncertain'
p1163
ssS'lurch'
p1164
(dp1165
g3
(lp1166
sg5
(lp1167
sg7
g8
sg9
S'to lean or pitch suddenly to one side, to stagger or sway'
p1168
ssS'dupe'
p1169
(dp1170
g3
(lp1171
sg5
(lp1172
sg7
g15
sg9
S'to deceive; trick'
p1173
ssS'venal'
p1174
(dp1175
g3
(lp1176
sg5
(lp1177
(lp1178
S'28/07/2015'
p1179
aF3.563328981399536
aasg7
g15
sg9
S'mercenary, corruptible'
p1180
ssS'appease'
p1181
(dp1182
g3
(lp1183
(lp1184
S'28/07/2015'
p1185
aI15
ag419
aasg5
(lp1186
sg7
g15
sg9
S'to calm, pacify, placate'
p1187
ssS'capitulate'
p1188
(dp1189
g3
(lp1190
sg5
(lp1191
sg7
g8
sg9
S'to surrender'
p1192
ssS'latent'
p1193
(dp1194
g3
(lp1195
sg5
(lp1196
sg7
g15
sg9
S'dormant; potential not apparent'
p1197
ssS'hoary'
p1198
(dp1199
g3
(lp1200
sg5
(lp1201
sg7
g8
sg9
S'gray white from age; old'
p1202
ssS'itinerant'
p1203
(dp1204
g3
(lp1205
sg5
(lp1206
sg7
g15
sg9
S'wandering from place to place; unsettled'
p1207
ssS'abjure'
p1208
(dp1209
g3
(lp1210
sg5
(lp1211
sg7
g15
sg9
S'to reject; abandon formally'
p1212
ssS'hoard'
p1213
(dp1214
g3
(lp1215
sg5
(lp1216
sg7
g8
sg9
S'(n.) A secret store of valuables or money; (v.) To accumulate by saving'
p1217
ssS'Inclement'
p1218
(dp1219
g3
(lp1220
sg5
(lp1221
sg7
g8
sg9
S'Stormy; unkind'
p1222
ssS'ardor'
p1223
(dp1224
g3
(lp1225
sg5
(lp1226
(lp1227
S'28/07/2015'
p1228
aF3.5454201698303223
aasg7
g15
sg9
S'great emotion or passion'
p1229
ssS'raiment'
p1230
(dp1231
g3
(lp1232
sg5
(lp1233
sg7
g15
sg9
S'clothing'
p1234
ssS'spurn'
p1235
(dp1236
g3
(lp1237
sg5
(lp1238
sg7
g8
sg9
S'reject; scorn'
p1239
ssS'smug'
p1240
(dp1241
g3
(lp1242
sg5
(lp1243
sg7
g8
sg9
S'(adj.) Highly self-satisfied; So pleased with yourself that you annoy other people'
p1244
ssS'treatise'
p1245
(dp1246
g3
(lp1247
sg5
(lp1248
sg7
g15
sg9
S'article treating a subject systematically and thoroughly'
p1249
ssS'overbearing'
p1250
(dp1251
g3
(lp1252
sg5
(lp1253
sg7
g8
sg9
S'unpleasantly or arrogantly domineering.'
p1254
ssS'igneous'
p1255
(dp1256
g3
(lp1257
sg5
(lp1258
sg7
g15
sg9
S'produced by fire; volcanic'
p1259
ssS'suffrage'
p1260
(dp1261
g3
(lp1262
sg5
(lp1263
sg7
g15
sg9
S'the right to vote'
p1264
ssS'collusion'
p1265
(dp1266
g3
(lp1267
sg5
(lp1268
sg7
g8
sg9
S'secret agreement or cooperation'
p1269
ssS'egoism'
p1270
(dp1271
g3
(lp1272
sg5
(lp1273
sg7
g15
sg9
S'the tendency to see things in relation to oneself; self-centeredness'
p1274
ssS'labile'
p1275
(dp1276
g3
(lp1277
sg5
(lp1278
sg7
g15
sg9
S'likely to change'
p1279
ssS'unwitting'
p1280
(dp1281
g3
(lp1282
sg5
(lp1283
sg7
g8
sg9
S'unintentional'
p1284
ssS'peripheral'
p1285
(dp1286
g3
(lp1287
sg5
(lp1288
sg7
g8
sg9
S'of, relating to, or situated on the edge or periphery of something'
p1289
ssS'rivulet'
p1290
(dp1291
g3
(lp1292
sg5
(lp1293
sg7
g8
sg9
S'n. very small stream'
p1294
ssS'allure'
p1295
(dp1296
g3
(lp1297
sg5
(lp1298
sg7
g15
sg9
S'the power to entice by charm'
p1299
ssS'sporadic'
p1300
(dp1301
g3
(lp1302
sg5
(lp1303
sg7
g15
sg9
S'irregular'
p1304
ssS'nocturnal'
p1305
(dp1306
g3
(lp1307
sg5
(lp1308
sg7
g8
sg9
S'adj. active at night'
p1309
ssS'diffidence'
p1310
(dp1311
g3
(lp1312
sg5
(lp1313
sg7
g15
sg9
S'shyness; lack of confidence'
p1314
ssS'accede'
p1315
(dp1316
g3
(lp1317
sg5
(lp1318
sg7
g8
sg9
S'approve, consent to'
p1319
ssS'exponent'
p1320
(dp1321
g3
(lp1322
sg5
(lp1323
sg7
g8
sg9
S'n. believer in, advocator, booster, espouser,'
p1324
ssS'jocose'
p1325
(dp1326
g3
(lp1327
sg5
(lp1328
sg7
g15
sg9
S'fond of joking; jocular'
p1329
ssS'extol'
p1330
(dp1331
g3
(lp1332
sg5
(lp1333
sg7
g8
sg9
S'praise in the highest terms'
p1334
ssS'abeyance'
p1335
(dp1336
g3
(lp1337
sg5
(lp1338
sg7
g15
sg9
S'temporary suppression or suspension'
p1339
ssS'halcyon'
p1340
(dp1341
g3
(lp1342
sg5
(lp1343
sg7
g15
sg9
S'calm and peaceful; happy; golden; prosperous'
p1344
ssS'lethargic'
p1345
(dp1346
g3
(lp1347
sg5
(lp1348
sg7
g15
sg9
S'inactive; sluggish; dull'
p1349
ssS'credo'
p1350
(dp1351
g3
(lp1352
sg5
(lp1353
sg7
g15
sg9
S'statement of belief or principle; creed'
p1354
ssS'aesthetic'
p1355
(dp1356
g3
(lp1357
sg5
(lp1358
sg7
g15
sg9
S'relating to beauty or the arts'
p1359
ssS'contort'
p1360
(dp1361
g3
(lp1362
sg5
(lp1363
sg7
g8
sg9
S'twist; bend,distort'
p1364
ssS'posit'
p1365
(dp1366
g3
(lp1367
sg5
(lp1368
sg7
g8
sg9
S'assume as a fact; put forward as a basis of argument'
p1369
ssS'devout'
p1370
(dp1371
g3
(lp1372
sg5
(lp1373
sg7
g8
sg9
S'adj. serious in the practicing of religion'
p1374
ssS'Ensconce'
p1375
(dp1376
g3
(lp1377
sg5
(lp1378
sg7
g8
sg9
S'Settle confortably, bury, cache, conceal, roost, nestle, perch, lodge'
p1379
ssS'lilliputian'
p1380
(dp1381
g3
(lp1382
sg5
(lp1383
sg7
g15
sg9
S'extremely small'
p1384
ssS'estimable'
p1385
(dp1386
g3
(lp1387
sg5
(lp1388
sg7
g15
sg9
S'admirable; possible to estimate'
p1389
ssS'askew'
p1390
(dp1391
g3
(lp1392
sg5
(lp1393
sg7
g8
sg9
S'crooked; off to one side'
p1394
ssS'didactic'
p1395
(dp1396
g3
(lp1397
sg5
(lp1398
sg7
g8
sg9
S'instructive, having an educational purpose'
p1399
ssS'insouciant'
p1400
(dp1401
g3
(lp1402
(lp1403
S'28/07/2015'
p1404
aI15
ag419
aasg5
(lp1405
sg7
g15
sg9
S'indifferent; lacking concern or care'
p1406
ssS'pertinacious'
p1407
(dp1408
g3
(lp1409
sg5
(lp1410
sg7
g8
sg9
S'stubborn; persistent'
p1411
ssS'stygian'
p1412
(dp1413
g3
(lp1414
sg5
(lp1415
sg7
g15
sg9
S'dark and gloomy, hellish'
p1416
ssS'incessant'
p1417
(dp1418
g3
(lp1419
sg5
(lp1420
sg7
g8
sg9
S'unceasing'
p1421
ssS'inquisitive'
p1422
(dp1423
g3
(lp1424
sg5
(lp1425
sg7
g8
sg9
S'adj. curious, questioning'
p1426
ssS'maudlin'
p1427
(dp1428
g3
(lp1429
sg5
(lp1430
sg7
g8
sg9
S'adj. tearfully or weakly emotional; foolishly sentimental'
p1431
ssS'infirm'
p1432
(dp1433
g3
(lp1434
sg5
(lp1435
sg7
g8
sg9
S'adj. frail due to poor health'
p1436
ssS'oblivious'
p1437
(dp1438
g3
(lp1439
sg5
(lp1440
sg7
g8
sg9
S'not aware of or not concerned about what is happening around one.'
p1441
ssS'aspersion'
p1442
(dp1443
g3
(lp1444
(lp1445
S'28/07/2015'
p1446
aI15
ag419
aasg5
(lp1447
sg7
g15
sg9
S'slander; false rumor'
p1448
ssS'subside'
p1449
(dp1450
g3
(lp1451
sg5
(lp1452
(lp1453
S'28/07/2015'
p1454
aF2.99088716506958
aasg7
g15
sg9
S'to settle down, grow quiet'
p1455
ssS'Pompous'
p1456
(dp1457
g3
(lp1458
sg5
(lp1459
sg7
g8
sg9
S'Showing an exaggerated air of importance; bombastic; grandiloquent'
p1460
ssS'Relinquish'
p1461
(dp1462
g3
(lp1463
sg5
(lp1464
sg7
g8
sg9
S'to retire from'
p1465
ssS'wheedle'
p1466
(dp1467
g3
(lp1468
sg5
(lp1469
sg7
g8
sg9
S'to use coaxing or flattery to gain some desired end'
p1470
ssS'efficacy'
p1471
(dp1472
g3
(lp1473
sg5
(lp1474
sg7
g15
sg9
S'effectiveness; efficiency'
p1475
ssS'dismiss'
p1476
(dp1477
g3
(lp1478
sg5
(lp1479
sg7
g15
sg9
S'put away from consideration; reject'
p1480
ssS'disgruntle'
p1481
(dp1482
g3
(lp1483
sg5
(lp1484
sg7
g8
sg9
S'to make discontented'
p1485
ssS'decrepit'
p1486
(dp1487
g3
(lp1488
sg5
(lp1489
sg7
g8
sg9
S'poor health'
p1490
ssS'kudos'
p1491
(dp1492
g3
(lp1493
sg5
(lp1494
sg7
g15
sg9
S'fame; glory; honor'
p1495
ssS'demotic'
p1496
(dp1497
g3
(lp1498
sg5
(lp1499
sg7
g15
sg9
S'pertaining to people'
p1500
ssS'imbroglio'
p1501
(dp1502
g3
(lp1503
sg5
(lp1504
sg7
g15
sg9
S'complicated situation; an entanglement'
p1505
ssS'surreptitious'
p1506
(dp1507
g3
(lp1508
sg5
(lp1509
sg7
g8
sg9
S'adj. secretive'
p1510
ssS'clairvoyant'
p1511
(dp1512
g3
(lp1513
sg5
(lp1514
sg7
g15
sg9
S'one who can predict the future; psychic'
p1515
ssS'chicanery'
p1516
(dp1517
g3
(lp1518
sg5
(lp1519
sg7
g15
sg9
S'trickery; fraud'
p1520
ssS'vendetta'
p1521
(dp1522
g3
(lp1523
sg5
(lp1524
sg7
g15
sg9
S'prolonged feud marked by bitter hostility'
p1525
ssS'apprehension'
p1526
(dp1527
g3
(lp1528
sg5
(lp1529
sg7
g8
sg9
S'state of unease about the near future'
p1530
ssS'dissect'
p1531
(dp1532
g3
(lp1533
sg5
(lp1534
sg7
g8
sg9
S'v. cut up to study internal parts'
p1535
ssS'pungent'
p1536
(dp1537
g3
(lp1538
sg5
(lp1539
sg7
g15
sg9
S'penetrating, caustic, to the point'
p1540
ssS'apocryphal'
p1541
(dp1542
g3
(lp1543
sg5
(lp1544
sg7
g8
sg9
S'adj. probably untrue'
p1545
ssS'Renege'
p1546
(dp1547
g3
(lp1548
sg5
(lp1549
sg7
g8
sg9
S'Deny'
p1550
ssS'convalesce'
p1551
(dp1552
g3
(lp1553
sg5
(lp1554
sg7
g8
sg9
S'v. get better after a disease or injury'
p1555
ssS'prostrate'
p1556
(dp1557
g3
(lp1558
sg5
(lp1559
sg7
g8
sg9
S'adj. lying face down'
p1560
ssS'mangle'
p1561
(dp1562
g3
(lp1563
sg5
(lp1564
sg7
g8
sg9
S'(v.) To injure severely, disfigure, or mutilate by cutting, slashing, or crushing'
p1565
ssS'concomitant'
p1566
(dp1567
g3
(lp1568
sg5
(lp1569
sg7
g15
sg9
S'existing concurrently'
p1570
ssS'recuperate'
p1571
(dp1572
g3
(lp1573
sg5
(lp1574
sg7
g8
sg9
S'recover from illness or exertion'
p1575
ssS'cant'
p1576
(dp1577
g3
(lp1578
sg5
(lp1579
sg7
g15
sg9
S'insincere talk; language of a particular group'
p1580
ssS'lugubrious'
p1581
(dp1582
g3
(lp1583
sg5
(lp1584
sg7
g8
sg9
S'looking or sounding sad and dismal.'
p1585
ssS'euthanasia'
p1586
(dp1587
g3
(lp1588
sg5
(lp1589
sg7
g15
sg9
S'mercy killing'
p1590
ssS'stint'
p1591
(dp1592
g3
(lp1593
sg5
(lp1594
sg7
g15
sg9
S'to be sparing'
p1595
ssS'rapprochement'
p1596
(dp1597
g3
(lp1598
sg5
(lp1599
sg7
g8
sg9
S'reconciliation, resumption of friendly relations'
p1600
ssS'grandiose'
p1601
(dp1602
g3
(lp1603
sg5
(lp1604
sg7
g8
sg9
S'pretentious and pompous'
p1605
ssS'indigence'
p1606
(dp1607
g3
(lp1608
sg5
(lp1609
sg7
g15
sg9
S'poverty'
p1610
ssS'haphazard'
p1611
(dp1612
g3
(lp1613
sg5
(lp1614
sg7
g8
sg9
S'adj. done in a not very systematic way'
p1615
ssS'contaminate'
p1616
(dp1617
g3
(lp1618
sg5
(lp1619
sg7
g8
sg9
S'v. make something impure,adulterate'
p1620
ssS'sodden'
p1621
(dp1622
g3
(lp1623
sg5
(lp1624
sg7
g15
sg9
S'thoroughly soaked, saturated'
p1625
ssS'jocund'
p1626
(dp1627
g3
(lp1628
sg5
(lp1629
sg7
g8
sg9
S'merry; jolly(not jocular)'
p1630
ssS'inadvertently'
p1631
(dp1632
g3
(lp1633
sg5
(lp1634
sg7
g15
sg9
S'carelessly; unintentionally'
p1635
ssS'Nautical'
p1636
(dp1637
g3
(lp1638
sg5
(lp1639
sg7
g8
sg9
S'Of or pertaining to sailors, ships, or navigation'
p1640
ssS'rail'
p1641
(dp1642
g3
(lp1643
sg5
(lp1644
sg7
g15
sg9
S'to scold with bitter or abusive language'
p1645
ssS'dexterous'
p1646
(dp1647
g3
(lp1648
sg5
(lp1649
sg7
g8
sg9
S'(adj.) skillful in the use of hands or body; clever'
p1650
ssS'palpable'
p1651
(dp1652
g3
(lp1653
sg5
(lp1654
sg7
g8
sg9
S'tangible'
p1655
ssS'overt'
p1656
(dp1657
g3
(lp1658
sg5
(lp1659
sg7
g8
sg9
S'done or shown openly; plainly or readily apparent, not secret or hidden'
p1660
ssS'peremptory'
p1661
(dp1662
g3
(lp1663
sg5
(lp1664
sg7
g15
sg9
S'imperative; leaving no choice'
p1665
ssS'Rancor'
p1666
(dp1667
g3
(lp1668
sg5
(lp1669
sg7
g8
sg9
S'Angry feeling of hatred'
p1670
ssS'ragged'
p1671
(dp1672
g3
(lp1673
sg5
(lp1674
sg7
g8
sg9
S'old and torn.'
p1675
ssS'approbation'
p1676
(dp1677
g3
(lp1678
sg5
(lp1679
sg7
g15
sg9
S'praise, approval'
p1680
ssS'subpoena'
p1681
(dp1682
g3
(lp1683
sg5
(lp1684
sg7
g15
sg9
S'notice ordering someone to appear in court'
p1685
ssS'impertinent'
p1686
(dp1687
g3
(lp1688
sg5
(lp1689
sg7
g8
sg9
S'Insolent; rude;impudent'
p1690
ssS'cataclysm'
p1691
(dp1692
g3
(lp1693
sg5
(lp1694
(lp1695
S'28/07/2015'
p1696
aF9.378907203674316
aasg7
g15
sg9
S'a violent upheaval that causes great destruction and change'
p1697
ssS'bonhomie'
p1698
(dp1699
g3
(lp1700
sg5
(lp1701
sg7
g8
sg9
S'n. cheerfulness(affability, geniality, amiability)'
p1702
ssS'mingle'
p1703
(dp1704
g3
(lp1705
sg5
(lp1706
sg7
g8
sg9
S'v mix or cause to mix together.'
p1707
ssS'Stymie'
p1708
(dp1709
g3
(lp1710
sg5
(lp1711
sg7
g8
sg9
S'hinder'
p1712
ssS'olfactory'
p1713
(dp1714
g3
(lp1715
sg5
(lp1716
sg7
g15
sg9
S'concerning the sense of smell'
p1717
ssS'Noisome'
p1718
(dp1719
g3
(lp1720
sg5
(lp1721
sg7
g8
sg9
S'having an extremely offensive smell.'
p1722
ssS'plight'
p1723
(dp1724
g3
(lp1725
sg5
(lp1726
sg7
g8
sg9
S'bad situation'
p1727
ssS'propitiate'
p1728
(dp1729
g3
(lp1730
sg5
(lp1731
sg7
g15
sg9
S'to win over, appease'
p1732
ssS'convivial'
p1733
(dp1734
g3
(lp1735
sg5
(lp1736
sg7
g15
sg9
S'sociable'
p1737
ssS'Crestfallen'
p1738
(dp1739
g3
(lp1740
sg5
(lp1741
sg7
g8
sg9
S'Dejected; dispirited'
p1742
ssS'exalt'
p1743
(dp1744
g3
(lp1745
sg5
(lp1746
sg7
g8
sg9
S'v. to praise or glorify'
p1747
ssS'alchemy'
p1748
(dp1749
g3
(lp1750
sg5
(lp1751
sg7
g15
sg9
S'medieval chemical philosophy based on changing metal into gold; a seemingly magical power or process of transmutation'
p1752
ssS'affinity'
p1753
(dp1754
g3
(lp1755
sg5
(lp1756
sg7
g15
sg9
S'fondness; liking; similarity'
p1757
ssS'falter'
p1758
(dp1759
g3
(lp1760
sg5
(lp1761
sg7
g8
sg9
S'(v.) to hesitate, stumble, lose courage; to speak hesitatingly; to lose drive, weaken, decline'
p1762
ssS'salacious'
p1763
(dp1764
g3
(lp1765
sg5
(lp1766
sg7
g15
sg9
S'lascivious, lustful'
p1767
ssS'paleontology'
p1768
(dp1769
g3
(lp1770
sg5
(lp1771
sg7
g15
sg9
S'study of past geological eras through fossil remains'
p1772
ssS'perfunctory'
p1773
(dp1774
g3
(lp1775
sg5
(lp1776
sg7
g15
sg9
S'superficial; performed really as a duty'
p1777
ssS'effulgent'
p1778
(dp1779
g3
(lp1780
sg5
(lp1781
sg7
g8
sg9
S'adj. shining brightly, splendid'
p1782
ssS'fusion'
p1783
(dp1784
g3
(lp1785
(lp1786
S'28/07/2015'
p1787
aI15
ag419
aasg5
(lp1788
(lp1789
S'28/07/2015'
p1790
aF2.2630198001861572
aasg7
g15
sg9
S'union; synthesis'
p1791
ssS'pithy'
p1792
(dp1793
g3
(lp1794
sg5
(lp1795
sg7
g8
sg9
S'(adj.) short but full of meaning and point'
p1796
ssS'fatuous'
p1797
(dp1798
g3
(lp1799
sg5
(lp1800
sg7
g15
sg9
S'foolishly self-satisfied'
p1801
ssS'bucolic'
p1802
(dp1803
g3
(lp1804
sg5
(lp1805
sg7
g15
sg9
S'characteristic of the countryside; rustic; pastoral'
p1806
ssS'diaphanous'
p1807
(dp1808
g3
(lp1809
sg5
(lp1810
sg7
g15
sg9
S'transparent; vague; insubstancial'
p1811
ssS'Cajole'
p1812
(dp1813
g3
(lp1814
sg5
(lp1815
sg7
g8
sg9
S'Persuade someone to do something by making promises or flattering'
p1816
ssS'detraction'
p1817
(dp1818
g3
(lp1819
sg5
(lp1820
sg7
g15
sg9
S'the act of taking away'
p1821
ssS'repudiate'
p1822
(dp1823
g3
(lp1824
sg5
(lp1825
sg7
g15
sg9
S'to reject as having no authority'
p1826
ssS'accost'
p1827
(dp1828
g3
(lp1829
sg5
(lp1830
sg7
g8
sg9
S'v. approach with a request or insult(Applause)'
p1831
ssS'Annul'
p1832
(dp1833
g3
(lp1834
sg5
(lp1835
sg7
g8
sg9
S'Make void'
p1836
ssS'Mollycoddle'
p1837
(dp1838
g3
(lp1839
sg5
(lp1840
sg7
g8
sg9
S'treat (someone) very indulgently or protectively. Pamper; spoil'
p1841
ssS'archetype'
p1842
(dp1843
g3
(lp1844
sg5
(lp1845
sg7
g8
sg9
S'n. very typical example'
p1846
ssS'cede'
p1847
(dp1848
g3
(lp1849
sg5
(lp1850
sg7
g8
sg9
S'v. give up control of'
p1851
ssS'Procure'
p1852
(dp1853
g3
(lp1854
sg5
(lp1855
sg7
g8
sg9
S'Obtain or acquire something by special means'
p1856
ssS'flounder'
p1857
(dp1858
g3
(lp1859
sg5
(lp1860
sg7
g8
sg9
S'(v.) To move or act clumsily and in confusion; To have great difficulty with something'
p1861
ssS'periphery'
p1862
(dp1863
g3
(lp1864
sg5
(lp1865
sg7
g8
sg9
S'the outer limits or edge of an area or object'
p1866
ssS'discerning'
p1867
(dp1868
g3
(lp1869
sg5
(lp1870
sg7
g15
sg9
S'perceptive; exhibiting keen insight and good judgement'
p1871
ssS'jejune'
p1872
(dp1873
g3
(lp1874
sg5
(lp1875
sg7
g8
sg9
S'without interest or significance'
p1876
ssS'elucidate'
p1877
(dp1878
g3
(lp1879
sg5
(lp1880
sg7
g8
sg9
S'to explain something'
p1881
ssS'enunciate'
p1882
(dp1883
g3
(lp1884
sg5
(lp1885
sg7
g15
sg9
S'to pronounce clearly'
p1886
ssS'Thwart'
p1887
(dp1888
g3
(lp1889
sg5
(lp1890
sg7
g8
sg9
S'Prevent; frustrate; oppose and defeat'
p1891
ssS'anomalous'
p1892
(dp1893
g3
(lp1894
sg5
(lp1895
sg7
g15
sg9
S'irregular; deviating from the norm'
p1896
ssS'blithe'
p1897
(dp1898
g3
(lp1899
sg5
(lp1900
sg7
g8
sg9
S'n. joyous, carefree, merry'
p1901
ssS'inveigh'
p1902
(dp1903
g3
(lp1904
sg5
(lp1905
sg7
g15
sg9
S'to disapprove; protest vehemently'
p1906
ssS'rebus'
p1907
(dp1908
g3
(lp1909
sg5
(lp1910
sg7
g15
sg9
S'puzzle in which pictures or symbols represent words'
p1911
ssS'abet'
p1912
(dp1913
g3
(lp1914
sg5
(lp1915
sg7
g8
sg9
S'help, assist'
p1916
ssS'raconteur'
p1917
(dp1918
g3
(lp1919
sg5
(lp1920
sg7
g15
sg9
S'witty, skillful storyteller'
p1921
ssS'Schism'
p1922
(dp1923
g3
(lp1924
sg5
(lp1925
sg7
g8
sg9
S'Division; split'
p1926
ssS'formidable'
p1927
(dp1928
g3
(lp1929
(lp1930
S'28/07/2015'
p1931
aI15
ag419
aasg5
(lp1932
(lp1933
S'28/07/2015'
p1934
aF7.904139995574951
aasg7
g15
sg9
S'menacing; threatening'
p1935
ssS'squander'
p1936
(dp1937
g3
(lp1938
sg5
(lp1939
sg7
g8
sg9
S'to waste by spending or using irresponsibly'
p1940
ssS'slipshod'
p1941
(dp1942
g3
(lp1943
sg5
(lp1944
sg7
g8
sg9
S'untidy, slovenly;(typically of a person or method of work) characterized by a lack of care, thought, or organization'
p1945
ssS'valedictory'
p1946
(dp1947
g3
(lp1948
sg5
(lp1949
sg7
g15
sg9
S'pertaining to a farewell'
p1950
ssS'mettle'
p1951
(dp1952
g3
(lp1953
sg5
(lp1954
sg7
g15
sg9
S'courage; endurance'
p1955
ssS'macabre'
p1956
(dp1957
g3
(lp1958
sg5
(lp1959
sg7
g8
sg9
S'adj. grisly, shocking'
p1960
ssS'unpretentious'
p1961
(dp1962
g3
(lp1963
sg5
(lp1964
sg7
g8
sg9
S'not showing the quality of people who want to be regarded as more important'
p1965
ssS'abysmal'
p1966
(dp1967
g3
(lp1968
sg5
(lp1969
sg7
g15
sg9
S'very bad'
p1970
ssS'sundry'
p1971
(dp1972
g3
(lp1973
sg5
(lp1974
sg7
g15
sg9
S'various'
p1975
ssS'heinous'
p1976
(dp1977
g3
(lp1978
sg5
(lp1979
sg7
g8
sg9
S'grossly wicked; vile; odious'
p1980
ssS'catalyst'
p1981
(dp1982
g3
(lp1983
sg5
(lp1984
(lp1985
S'28/07/2015'
p1986
aF2.504685878753662
aasg7
g15
sg9
S'something that causes change'
p1987
ssS'squalid'
p1988
(dp1989
g3
(lp1990
sg5
(lp1991
sg7
g8
sg9
S'adj. dirty, unpleasant'
p1992
ssS'restive'
p1993
(dp1994
g3
(lp1995
sg5
(lp1996
sg7
g8
sg9
S'adj. restless, antsy'
p1997
ssS'Unassailable'
p1998
(dp1999
g3
(lp2000
sg5
(lp2001
sg7
g8
sg9
S'Not open to attack; untenable;unimpeachable'
p2002
ssS'invincible'
p2003
(dp2004
g3
(lp2005
sg5
(lp2006
sg7
g8
sg9
S'adj. too powerful to be overcome'
p2007
ssS'Nauseate'
p2008
(dp2009
g3
(lp2010
sg5
(lp2011
sg7
g8
sg9
S'Cause to become sick; fill with disgust'
p2012
ssS'encumber'
p2013
(dp2014
g3
(lp2015
sg5
(lp2016
sg7
g8
sg9
S'hold back; restrain'
p2017
ssS'ballad'
p2018
(dp2019
g3
(lp2020
sg5
(lp2021
sg7
g8
sg9
S'n. song with a number of verses'
p2022
ssS'pontificate'
p2023
(dp2024
g3
(lp2025
sg5
(lp2026
sg7
g8
sg9
S'to speak pompously and at length'
p2027
ssS'digression'
p2028
(dp2029
g3
(lp2030
(lp2031
S'28/07/2015'
p2032
aI15
ag419
aasg5
(lp2033
sg7
g15
sg9
S'act of straying from the main point'
p2034
ssS'liberal'
p2035
(dp2036
g3
(lp2037
sg5
(lp2038
sg7
g15
sg9
S'tolerant; broad-minded'
p2039
ssS'covert'
p2040
(dp2041
g3
(lp2042
sg5
(lp2043
sg7
g15
sg9
S'hidden; secret'
p2044
ssS'pedagogue'
p2045
(dp2046
g3
(lp2047
sg5
(lp2048
sg7
g8
sg9
S'a teacher, especially a strict or pedantic one.'
p2049
ssS'mediocre'
p2050
(dp2051
g3
(lp2052
sg5
(lp2053
sg7
g8
sg9
S'adj. average quality'
p2054
ssS'incursion'
p2055
(dp2056
g3
(lp2057
sg5
(lp2058
sg7
g15
sg9
S'sudden invasion'
p2059
ssS'levity'
p2060
(dp2061
g3
(lp2062
sg5
(lp2063
sg7
g15
sg9
S'light manner or attitude'
p2064
ssS'redolent'
p2065
(dp2066
g3
(lp2067
sg5
(lp2068
sg7
g8
sg9
S'fragment, smelling strongly; tending to arouse memories or create an aura'
p2069
ssS'junta'
p2070
(dp2071
g3
(lp2072
sg5
(lp2073
sg7
g15
sg9
S'group of people united in political intrigue'
p2074
ssS'bumptious'
p2075
(dp2076
g3
(lp2077
sg5
(lp2078
sg7
g8
sg9
S'adj. arrogantly noisy'
p2079
ssS'desecrate'
p2080
(dp2081
g3
(lp2082
sg5
(lp2083
sg7
g8
sg9
S'treat (a sacred place or thing) with violent disrespect.'
p2084
ssS'congeal'
p2085
(dp2086
g3
(lp2087
sg5
(lp2088
sg7
g8
sg9
S'to change from liquid to solid, thicken; to make inflexible or rigid(coagulate'
p2089
ssS'tardy'
p2090
(dp2091
g3
(lp2092
sg5
(lp2093
sg7
g8
sg9
S'slow, slate'
p2094
ssS'Retribution'
p2095
(dp2096
g3
(lp2097
sg5
(lp2098
sg7
g8
sg9
S'Vengeance; compensation; punishment for offenses'
p2099
ssS'truncate'
p2100
(dp2101
g3
(lp2102
sg5
(lp2103
sg7
g8
sg9
S'v. make shorter'
p2104
ssS'palmy'
p2105
(dp2106
g3
(lp2107
sg5
(lp2108
sg7
g8
sg9
S'(especially of a previous period of time) flourishing or successful'
p2109
ssS'infatuate'
p2110
(dp2111
g3
(lp2112
sg5
(lp2113
sg7
g8
sg9
S'to inspire with a foolish passion; to make foolish'
p2114
ssS'sensuous'
p2115
(dp2116
g3
(lp2117
sg5
(lp2118
sg7
g15
sg9
S'relating to the senses'
p2119
ssS'trepidation'
p2120
(dp2121
g3
(lp2122
sg5
(lp2123
sg7
g15
sg9
S'fear and anxiety'
p2124
ssS'hieroglyphics'
p2125
(dp2126
g3
(lp2127
sg5
(lp2128
sg7
g15
sg9
S'a system of writing in which pictorial symbols represent meanings or sounds; wirting or symbols that are difficult to decipher'
p2129
ssS'censure'
p2130
(dp2131
g3
(lp2132
sg5
(lp2133
sg7
g8
sg9
S'to criticize severely; to officially rebuke'
p2134
ssS'Diffident'
p2135
(dp2136
g3
(lp2137
sg5
(lp2138
sg7
g8
sg9
S'Lacking self-confidence, timid'
p2139
ssS'microcosm'
p2140
(dp2141
g3
(lp2142
sg5
(lp2143
sg7
g15
sg9
S'a small system having analogies to a larger system'
p2144
ssS'exigent'
p2145
(dp2146
g3
(lp2147
sg5
(lp2148
sg7
g8
sg9
S'urgent, pressing; requiring immediate action or attention'
p2149
ssS'accolade'
p2150
(dp2151
g3
(lp2152
sg5
(lp2153
sg7
g8
sg9
S'n. words of praise'
p2154
ssS'ramification'
p2155
(dp2156
g3
(lp2157
sg5
(lp2158
sg7
g15
sg9
S'implication, consequence'
p2159
ssS'meander'
p2160
(dp2161
g3
(lp2162
sg5
(lp2163
sg7
g8
sg9
S'v. wind and turn while proceeding in a course'
p2164
ssS'necromancy'
p2165
(dp2166
g3
(lp2167
sg5
(lp2168
sg7
g15
sg9
S'black magic'
p2169
ssS'obviate'
p2170
(dp2171
g3
(lp2172
sg5
(lp2173
(lp2174
S'28/07/2015'
p2175
aF1.9960741996765137
aasg7
g15
sg9
S'to make unnecessary; to anticipate and prevent'
p2176
ssS'idolatry'
p2177
(dp2178
g3
(lp2179
sg5
(lp2180
sg7
g15
sg9
S'idol worship; blind or excessive devotion'
p2181
ssS'recluse'
p2182
(dp2183
g3
(lp2184
sg5
(lp2185
sg7
g15
sg9
S'person who lives in seclusion and often in solitude'
p2186
ssS'turbid'
p2187
(dp2188
g3
(lp2189
sg5
(lp2190
(lp2191
S'28/07/2015'
p2192
aF9.858339071273804
aasg7
g15
sg9
S'muddy, opaque, in a state of great confusion'
p2193
ssS'indolent'
p2194
(dp2195
g3
(lp2196
sg5
(lp2197
sg7
g15
sg9
S'habitually lazy; idle'
p2198
ssS'doggerel'
p2199
(dp2200
g3
(lp2201
sg5
(lp2202
sg7
g15
sg9
S'poor verse'
p2203
ssS'deject'
p2204
(dp2205
g3
(lp2206
sg5
(lp2207
sg7
g8
sg9
S'v. make to feel bad'
p2208
ssS'quash'
p2209
(dp2210
g3
(lp2211
sg5
(lp2212
sg7
g8
sg9
S'reject or void, especially by legal procedure; to crush; quell'
p2213
ssS'analogous'
p2214
(dp2215
g3
(lp2216
sg5
(lp2217
sg7
g15
sg9
S'comparable'
p2218
ssS'tenacious'
p2219
(dp2220
g3
(lp2221
sg5
(lp2222
sg7
g8
sg9
S'tending to keep a firm hold of something; clinging or adhering closely'
p2223
ssS'antediluvian'
p2224
(dp2225
g3
(lp2226
sg5
(lp2227
sg7
g15
sg9
S'prehistoric'
p2228
ssS'blase'
p2229
(dp2230
g3
(lp2231
sg5
(lp2232
sg7
g15
sg9
S'bored because of frequent indulgence; unconcerned'
p2233
ssS'votary'
p2234
(dp2235
g3
(lp2236
sg5
(lp2237
sg7
g8
sg9
S'n. person who has vows of dedication to a religious service'
p2238
ssS'convoke'
p2239
(dp2240
g3
(lp2241
sg5
(lp2242
sg7
g8
sg9
S'call together'
p2243
ssS'untenable'
p2244
(dp2245
g3
(lp2246
sg5
(lp2247
sg7
g15
sg9
S'indefensible'
p2248
ssS'Anecdote'
p2249
(dp2250
g3
(lp2251
sg5
(lp2252
sg7
g8
sg9
S'Short account of an amusing or interesting event'
p2253
ssS'exact'
p2254
(dp2255
g3
(lp2256
sg5
(lp2257
sg7
g15
sg9
S'to force the payment of; demand and obtain by authority'
p2258
ssS'feeble'
p2259
(dp2260
g3
(lp2261
sg5
(lp2262
sg7
g8
sg9
S'physically or mentally weak(foible)'
p2263
ssS'din'
p2264
(dp2265
g3
(lp2266
sg5
(lp2267
sg7
g8
sg9
S'n. ongoing loud sound; noise'
p2268
ssS'camaraderie'
p2269
(dp2270
g3
(lp2271
sg5
(lp2272
sg7
g8
sg9
S'n. trust among friends'
p2273
ssS'levee'
p2274
(dp2275
g3
(lp2276
sg5
(lp2277
sg7
g15
sg9
S'en embankment that prevents a river from overflowing'
p2278
ssS'discrete'
p2279
(dp2280
g3
(lp2281
sg5
(lp2282
sg7
g15
sg9
S'constituing a separate thing; distinct'
p2283
ssS'invidious'
p2284
(dp2285
g3
(lp2286
sg5
(lp2287
sg7
g15
sg9
S'likely to provoke ill will'
p2288
ssS'turgid'
p2289
(dp2290
g3
(lp2291
sg5
(lp2292
sg7
g15
sg9
S'swollen, pompous'
p2293
ssS'burgeon'
p2294
(dp2295
g3
(lp2296
sg5
(lp2297
sg7
g15
sg9
S'to grow and flourish'
p2298
ssS'anesthetic'
p2299
(dp2300
g3
(lp2301
sg5
(lp2302
sg7
g8
sg9
S'n. chemical that causes numbing'
p2303
ssS'plummet'
p2304
(dp2305
g3
(lp2306
sg5
(lp2307
sg7
g15
sg9
S'to fall; plunge'
p2308
ssS'collage'
p2309
(dp2310
g3
(lp2311
sg5
(lp2312
sg7
g15
sg9
S'artistic composition of materials pasted over a surface; an assemblage of diverse elements'
p2313
ssS'inconsequential'
p2314
(dp2315
g3
(lp2316
sg5
(lp2317
sg7
g15
sg9
S'insignificant; unimportant'
p2318
ssS'adulation'
p2319
(dp2320
g3
(lp2321
sg5
(lp2322
sg7
g8
sg9
S'a show of excessive admiration or devotion'
p2323
ssS'slake'
p2324
(dp2325
g3
(lp2326
sg5
(lp2327
sg7
g8
sg9
S"(v.) To satisfy or quench; To relieve or bring to an end'"
p2328
ssS'stupefy'
p2329
(dp2330
g3
(lp2331
sg5
(lp2332
sg7
g15
sg9
S'to dull the senses of, stun, astonish'
p2333
ssS'Obsequious'
p2334
(dp2335
g3
(lp2336
sg5
(lp2337
sg7
g8
sg9
S'flattering'
p2338
ssS'sordid'
p2339
(dp2340
g3
(lp2341
sg5
(lp2342
sg7
g15
sg9
S'filthy, contemptible and corrupt'
p2343
ssS'Insular'
p2344
(dp2345
g3
(lp2346
sg5
(lp2347
sg7
g8
sg9
S'isolated'
p2348
ssS'calumniate'
p2349
(dp2350
g3
(lp2351
sg5
(lp2352
sg7
g8
sg9
S'to slander; to accuse falsely and maliciously'
p2353
ssS'continence'
p2354
(dp2355
g3
(lp2356
sg5
(lp2357
sg7
g15
sg9
S'self-control; abstention from sexual activity'
p2358
ssS'havoc'
p2359
(dp2360
g3
(lp2361
sg5
(lp2362
sg7
g8
sg9
S'disorder of chaos'
p2363
ssS'commensurate'
p2364
(dp2365
g3
(lp2366
sg5
(lp2367
sg7
g15
sg9
S'proportional'
p2368
ssS'Conspicuous'
p2369
(dp2370
g3
(lp2371
sg5
(lp2372
sg7
g8
sg9
S'Obvious'
p2373
ssS'abscond'
p2374
(dp2375
g3
(lp2376
sg5
(lp2377
sg7
g15
sg9
S'to depart secretly'
p2378
ssS'hermetic'
p2379
(dp2380
g3
(lp2381
sg5
(lp2382
sg7
g15
sg9
S'tighly sealed; magical'
p2383
ssS'mellifluous'
p2384
(dp2385
g3
(lp2386
sg5
(lp2387
sg7
g8
sg9
S'adj. flowing like honey'
p2388
ssS'ingenuous'
p2389
(dp2390
g3
(lp2391
sg5
(lp2392
sg7
g15
sg9
S'naive and trusting; lacking sophistication'
p2393
ssS'fractious'
p2394
(dp2395
g3
(lp2396
sg5
(lp2397
sg7
g15
sg9
S'quarrelsome; unruly; rebellious'
p2398
ssS'splice'
p2399
(dp2400
g3
(lp2401
sg5
(lp2402
sg7
g8
sg9
S'unite'
p2403
ssS'decipher'
p2404
(dp2405
g3
(lp2406
sg5
(lp2407
sg7
g8
sg9
S'v. figure out'
p2408
ssS'rue'
p2409
(dp2410
g3
(lp2411
sg5
(lp2412
sg7
g15
sg9
S'regret'
p2413
ssS'buck'
p2414
(dp2415
g3
(lp2416
sg5
(lp2417
sg7
g8
sg9
S'to oppose something in a direct way'
p2418
ssS'precursor'
p2419
(dp2420
g3
(lp2421
(lp2422
S'28/07/2015'
p2423
aI15
ag419
aasg5
(lp2424
sg7
g15
sg9
S'forerunner; predecessor'
p2425
ssS'disavow'
p2426
(dp2427
g3
(lp2428
sg5
(lp2429
sg7
g8
sg9
S'deny'
p2430
ssS'somatic'
p2431
(dp2432
g3
(lp2433
sg5
(lp2434
sg7
g15
sg9
S'relating to or affecting the body, corporeal'
p2435
ssS'machiavellian'
p2436
(dp2437
g3
(lp2438
sg5
(lp2439
sg7
g15
sg9
S'crafty; double-dealing'
p2440
ssS'equable'
p2441
(dp2442
g3
(lp2443
sg5
(lp2444
sg7
g15
sg9
S'steady; unvarying; serene'
p2445
ssS'tutelary'
p2446
(dp2447
g3
(lp2448
sg5
(lp2449
sg7
g15
sg9
S'serving as a guardian or protector'
p2450
ssS'Reprieve'
p2451
(dp2452
g3
(lp2453
sg5
(lp2454
sg7
g8
sg9
S'a respite; postponement of a sentence'
p2455
ssS'insolent'
p2456
(dp2457
g3
(lp2458
sg5
(lp2459
sg7
g8
sg9
S'adj. willing to talk back to authority; rude'
p2460
ssS'defer'
p2461
(dp2462
g3
(lp2463
sg5
(lp2464
sg7
g8
sg9
S'postpone'
p2465
ssS'erudite'
p2466
(dp2467
g3
(lp2468
sg5
(lp2469
sg7
g15
sg9
S'learned; scholarly'
p2470
ssS'paragon'
p2471
(dp2472
g3
(lp2473
sg5
(lp2474
sg7
g15
sg9
S'model of perfection or excellence'
p2475
ssS'abash'
p2476
(dp2477
g3
(lp2478
sg5
(lp2479
sg7
g8
sg9
S'embarrass; perplex; baffle(abase)'
p2480
ssS'stingy'
p2481
(dp2482
g3
(lp2483
sg5
(lp2484
sg7
g8
sg9
S'adj. not generous;parsimonious'
p2485
ssS'abase'
p2486
(dp2487
g3
(lp2488
sg5
(lp2489
sg7
g8
sg9
S'lower; humiliate(abash)'
p2490
ssS'dolorous'
p2491
(dp2492
g3
(lp2493
sg5
(lp2494
sg7
g8
sg9
S'adj. full of sorrow'
p2495
ssS'concoct'
p2496
(dp2497
g3
(lp2498
(lp2499
S'28/07/2015'
p2500
aI15
ag419
aasg5
(lp2501
sg7
g15
sg9
S'to invent'
p2502
ssS'subvert'
p2503
(dp2504
g3
(lp2505
sg5
(lp2506
sg7
g8
sg9
S'to overthrow'
p2507
ssS'captivate'
p2508
(dp2509
g3
(lp2510
sg5
(lp2511
sg7
g8
sg9
S'v. hold the attention of'
p2512
ssS'complaisant'
p2513
(dp2514
g3
(lp2515
sg5
(lp2516
sg7
g15
sg9
S'overly polite; willingness to comply with the wishes of others'
p2517
ssS'Effusive'
p2518
(dp2519
g3
(lp2520
sg5
(lp2521
sg7
g8
sg9
S'Expressing emotion in a heartfelt, unrestrained manner; gushing.'
p2522
ssS'contrite'
p2523
(dp2524
g3
(lp2525
sg5
(lp2526
sg7
g15
sg9
S'very sorrowful for a wrong; seeking forgiveness'
p2527
ssS'dismay'
p2528
(dp2529
g3
(lp2530
sg5
(lp2531
sg7
g8
sg9
S'discourage somebody'
p2532
ssS'bombastic'
p2533
(dp2534
g3
(lp2535
sg5
(lp2536
sg7
g15
sg9
S'pompous; using inflated language'
p2537
ssS'muffle'
p2538
(dp2539
g3
(lp2540
sg5
(lp2541
sg7
g8
sg9
S'v. make quiet'
p2542
ssS'reprise'
p2543
(dp2544
g3
(lp2545
sg5
(lp2546
sg7
g15
sg9
S'repetition, especially of a piece of music'
p2547
ssS'preponderance'
p2548
(dp2549
g3
(lp2550
sg5
(lp2551
sg7
g8
sg9
S'n. the state of being more in number'
p2552
ssS'hubris'
p2553
(dp2554
g3
(lp2555
sg5
(lp2556
sg7
g8
sg9
S'n. the state of someone getting their comeuppance'
p2557
ssS'Castigate'
p2558
(dp2559
g3
(lp2560
sg5
(lp2561
sg7
g8
sg9
S'to scold'
p2562
ssS'stature'
p2563
(dp2564
g3
(lp2565
sg5
(lp2566
sg7
g8
sg9
S'hieght'
p2567
ssS'fauna'
p2568
(dp2569
g3
(lp2570
sg5
(lp2571
sg7
g15
sg9
S'animals of a period o region'
p2572
ssS'nexus'
p2573
(dp2574
g3
(lp2575
sg5
(lp2576
sg7
g15
sg9
S'a means of connection; a center'
p2577
ssS'phlegmatic'
p2578
(dp2579
g3
(lp2580
sg5
(lp2581
sg7
g15
sg9
S'unemotional; calm in temperament'
p2582
ssS'avocation'
p2583
(dp2584
g3
(lp2585
sg5
(lp2586
sg7
g15
sg9
S'secondary occupation'
p2587
ssS'regale'
p2588
(dp2589
g3
(lp2590
sg5
(lp2591
(lp2592
S'28/07/2015'
p2593
aF3.650602102279663
aasg7
g15
sg9
S'to entertain'
p2594
ssS'conciliatory'
p2595
(dp2596
g3
(lp2597
sg5
(lp2598
sg7
g15
sg9
S'overcoming distrust or hostility'
p2599
ssS'serendipity'
p2600
(dp2601
g3
(lp2602
sg5
(lp2603
sg7
g8
sg9
S'n. happy coincidence'
p2604
ssS'skimp'
p2605
(dp2606
g3
(lp2607
sg5
(lp2608
sg7
g8
sg9
S'(v.) To provide scantily; To live very economically'
p2609
ssS'Apocalyptic'
p2610
(dp2611
g3
(lp2612
sg5
(lp2613
sg7
g8
sg9
S'Prophetic; pertaining to revelations'
p2614
ssS'bigot'
p2615
(dp2616
g3
(lp2617
sg5
(lp2618
sg7
g8
sg9
S'bekrompen, bevooroordeeld persoon(dogmatist, partisan)'
p2619
ssS'savor'
p2620
(dp2621
g3
(lp2622
sg5
(lp2623
sg7
g15
sg9
S'to enjoy, have a distinctive flavor or smell'
p2624
ssS'meager'
p2625
(dp2626
g3
(lp2627
sg5
(lp2628
sg7
g8
sg9
S'adj. scanty, inadequate'
p2629
ssS'immune'
p2630
(dp2631
g3
(lp2632
sg5
(lp2633
sg7
g8
sg9
S'adj. resistant'
p2634
ssS'cardinal'
p2635
(dp2636
g3
(lp2637
sg5
(lp2638
sg7
g15
sg9
S'of foremost importance'
p2639
ssS'irascible'
p2640
(dp2641
g3
(lp2642
sg5
(lp2643
(lp2644
S'28/07/2015'
p2645
aF3.919386863708496
aasg7
g15
sg9
S'easily angered'
p2646
ssS'cavil'
p2647
(dp2648
g3
(lp2649
sg5
(lp2650
sg7
g8
sg9
S'make petty of unnecessary objections'
p2651
ssS'paramount'
p2652
(dp2653
g3
(lp2654
sg5
(lp2655
sg7
g8
sg9
S'adj. supremely important'
p2656
ssS'brazen'
p2657
(dp2658
g3
(lp2659
(lp2660
S'28/07/2015'
p2661
aI15
ag419
aa(lp2662
S'28/07/2015'
p2663
aF14.688612937927246
aS'to quibble; evade the truth'
p2664
aasg5
(lp2665
sg7
g15
sg9
S'bold; shameless'
p2666
ssS'countermand'
p2667
(dp2668
g3
(lp2669
sg5
(lp2670
sg7
g8
sg9
S'to cancel or reverse one order or command with another that is contrary to the first'
p2671
ssS'wistful'
p2672
(dp2673
g3
(lp2674
sg5
(lp2675
sg7
g15
sg9
S'vaguely longing, sadly thoughtful'
p2676
ssS'hedonism'
p2677
(dp2678
g3
(lp2679
sg5
(lp2680
sg7
g8
sg9
S'the pursuit of or devotion to pleasure; seeking pleasure of the senses'
p2681
ssS'coagulate'
p2682
(dp2683
g3
(lp2684
sg5
(lp2685
sg7
g15
sg9
S'thicken; congeal'
p2686
ssS'flourish'
p2687
(dp2688
g3
(lp2689
sg5
(lp2690
sg7
g15
sg9
S'en embellishment or ornamentation'
p2691
ssS'egotistical'
p2692
(dp2693
g3
(lp2694
sg5
(lp2695
sg7
g15
sg9
S'excessively self-centered; conceited'
p2696
ssS'Infuriate'
p2697
(dp2698
g3
(lp2699
sg5
(lp2700
sg7
g8
sg9
S'Enrage; anger'
p2701
ssS'cosmology'
p2702
(dp2703
g3
(lp2704
sg5
(lp2705
sg7
g15
sg9
S'study of the universe as a totality; theory of the origin and structure of the universe'
p2706
ssS'propriety'
p2707
(dp2708
g3
(lp2709
sg5
(lp2710
sg7
g15
sg9
S'correct conduct, fitness'
p2711
ssS'pulchritude'
p2712
(dp2713
g3
(lp2714
sg5
(lp2715
sg7
g8
sg9
S'n. beauty'
p2716
ssS'bungle'
p2717
(dp2718
g3
(lp2719
sg5
(lp2720
sg7
g8
sg9
S'v. make a mess of(exacerbate)'
p2721
ssS'innocuous'
p2722
(dp2723
g3
(lp2724
sg5
(lp2725
(lp2726
S'28/07/2015'
p2727
aF5.602419853210449
aasg7
g15
sg9
S'harmless'
p2728
ssS'quandary'
p2729
(dp2730
g3
(lp2731
sg5
(lp2732
sg7
g8
sg9
S'dilemma'
p2733
ssS'canard'
p2734
(dp2735
g3
(lp2736
sg5
(lp2737
sg7
g15
sg9
S'false; deliberately misleading story'
p2738
ssS'arabesque'
p2739
(dp2740
g3
(lp2741
sg5
(lp2742
sg7
g15
sg9
S'ornate design featuring intertwined curves; a ballet position in which one leg is extended in back while the other supports the weight of the body'
p2743
ssS'dyspeptic'
p2744
(dp2745
g3
(lp2746
sg5
(lp2747
sg7
g8
sg9
S'adj. bad-tempered having an upset stomach'
p2748
ssS'irresolute'
p2749
(dp2750
g3
(lp2751
(lp2752
S'28/07/2015'
p2753
aI15
ag419
aasg5
(lp2754
sg7
g15
sg9
S'unsure of how to act; weak'
p2755
ssS'avid'
p2756
(dp2757
g3
(lp2758
sg5
(lp2759
sg7
g8
sg9
S'adj. showing enthusiasm'
p2760
ssS'relegate'
p2761
(dp2762
g3
(lp2763
sg5
(lp2764
sg7
g15
sg9
S'to consign to an inferior position'
p2765
ssS'haughty'
p2766
(dp2767
g3
(lp2768
sg5
(lp2769
sg7
g8
sg9
S'adj. hauteur,arrogant, condescending'
p2770
ssS'apex'
p2771
(dp2772
g3
(lp2773
sg5
(lp2774
sg7
g15
sg9
S'the highest point'
p2775
ssS'sylvan'
p2776
(dp2777
g3
(lp2778
sg5
(lp2779
(lp2780
S'28/07/2015'
p2781
aF4.729375123977661
aasg7
g15
sg9
S'related to the woods or forest'
p2782
ssS'satyr'
p2783
(dp2784
g3
(lp2785
sg5
(lp2786
sg7
g15
sg9
S'a creature that is half-man, half beast, with the horns and legs of a goat'
p2787
ssS'antipathy'
p2788
(dp2789
g3
(lp2790
sg5
(lp2791
sg7
g15
sg9
S'dislike; hostility'
p2792
ssS'Throng'
p2793
(dp2794
g3
(lp2795
sg5
(lp2796
sg7
g8
sg9
S'Crowd'
p2797
ssS'disparate'
p2798
(dp2799
g3
(lp2800
sg5
(lp2801
sg7
g15
sg9
S'dissimilar'
p2802
ssS'amulet'
p2803
(dp2804
g3
(lp2805
sg5
(lp2806
sg7
g15
sg9
S'ornament worn as a charm against evil spirits'
p2807
ssS'cloying'
p2808
(dp2809
g3
(lp2810
sg5
(lp2811
sg7
g8
sg9
S'adj. excessively sweet'
p2812
ssS'qualified'
p2813
(dp2814
g3
(lp2815
sg5
(lp2816
sg7
g15
sg9
S'limited, restricted'
p2817
ssS'pinnacle'
p2818
(dp2819
g3
(lp2820
sg5
(lp2821
sg7
g8
sg9
S'n. highest point'
p2822
ssS'expedite'
p2823
(dp2824
g3
(lp2825
sg5
(lp2826
sg7
g8
sg9
S'to make easy, cause to progress faster'
p2827
ssS'rescind'
p2828
(dp2829
g3
(lp2830
sg5
(lp2831
sg7
g15
sg9
S'to cancel'
p2832
ssS'occult'
p2833
(dp2834
g3
(lp2835
sg5
(lp2836
sg7
g15
sg9
S'relating to practices connected with supernatural phenomena'
p2837
ssS'minatory'
p2838
(dp2839
g3
(lp2840
sg5
(lp2841
sg7
g15
sg9
S'threatening; menacing'
p2842
ssS'peregrination'
p2843
(dp2844
g3
(lp2845
(lp2846
S'28/07/2015'
p2847
aI15
ag419
aasg5
(lp2848
sg7
g15
sg9
S'wandering from place to place'
p2849
ssS'placate'
p2850
(dp2851
g3
(lp2852
sg5
(lp2853
(lp2854
S'28/07/2015'
p2855
aF12.984459161758423
aasg7
g15
sg9
S'soothe; pacify'
p2856
ssS'deify'
p2857
(dp2858
g3
(lp2859
sg5
(lp2860
sg7
g8
sg9
S'v. worship'
p2861
ssS'furtive'
p2862
(dp2863
g3
(lp2864
sg5
(lp2865
sg7
g8
sg9
S'done slyly or stealthily, sneaky, secret, shifty; stolen'
p2866
ssS'vexation'
p2867
(dp2868
g3
(lp2869
sg5
(lp2870
sg7
g15
sg9
S'irritation, annoyance'
p2871
ssS'vogue'
p2872
(dp2873
g3
(lp2874
sg5
(lp2875
sg7
g15
sg9
S'prevailing fashion or practice'
p2876
ssS'Acrimonious'
p2877
(dp2878
g3
(lp2879
sg5
(lp2880
sg7
g8
sg9
S'Bitter in words or manner( Embittered, Resentful)'
p2881
ssS'menagerie'
p2882
(dp2883
g3
(lp2884
sg5
(lp2885
(lp2886
S'28/07/2015'
p2887
aF7.17836594581604
aasg7
g15
sg9
S'a variety of animals kept together'
p2888
ssS'grouse'
p2889
(dp2890
g3
(lp2891
sg5
(lp2892
(lp2893
S'28/07/2015'
p2894
aF4.144727945327759
aasg7
g15
sg9
S'to complain'
p2895
ssS'treacherous'
p2896
(dp2897
g3
(lp2898
sg5
(lp2899
sg7
g8
sg9
S'adj. untrustworthy'
p2900
ssS'bovine'
p2901
(dp2902
g3
(lp2903
sg5
(lp2904
sg7
g15
sg9
S'cowlike'
p2905
ssS'supplant'
p2906
(dp2907
g3
(lp2908
sg5
(lp2909
sg7
g15
sg9
S'to replace, substitute'
p2910
ssS'aloof'
p2911
(dp2912
g3
(lp2913
sg5
(lp2914
sg7
g8
sg9
S'not desiring to associate with others'
p2915
ssS'flaccid'
p2916
(dp2917
g3
(lp2918
sg5
(lp2919
sg7
g8
sg9
S'(adj.) limp, not firm; lacking vigor or effectiveness'
p2920
ssS'antagonist (n)'
p2921
(dp2922
g3
(lp2923
sg5
(lp2924
sg7
g8
sg9
S'an opponent, adversary, an opposing force'
p2925
ssS'abide'
p2926
(dp2927
g3
(lp2928
sg5
(lp2929
sg7
g8
sg9
S'endure'
p2930
ssS'condole'
p2931
(dp2932
g3
(lp2933
sg5
(lp2934
sg7
g8
sg9
S'v. express sympathy for someone'
p2935
ssS'nominal'
p2936
(dp2937
g3
(lp2938
sg5
(lp2939
sg7
g8
sg9
S'appearing in name only; negligible or of low amount'
p2940
ssS'imperative'
p2941
(dp2942
g3
(lp2943
sg5
(lp2944
sg7
g8
sg9
S'adj. very important'
p2945
ssS'viable'
p2946
(dp2947
g3
(lp2948
sg5
(lp2949
(lp2950
S'28/07/2015'
p2951
aF2.978226900100708
aasg7
g15
sg9
S'practicable, capable of developing'
p2952
ssS'simile'
p2953
(dp2954
g3
(lp2955
sg5
(lp2956
sg7
g15
sg9
S'comparison of one thing with another using "like" or "as"'
p2957
ssS'ascendant'
p2958
(dp2959
g3
(lp2960
sg5
(lp2961
sg7
g8
sg9
S'adj. rising in power'
p2962
ssS'Taint'
p2963
(dp2964
g3
(lp2965
sg5
(lp2966
sg7
g8
sg9
S'Contaminate; cause to lose purity'
p2967
ssS'virtuoso'
p2968
(dp2969
g3
(lp2970
sg5
(lp2971
sg7
g15
sg9
S'someone with master skills, expert musician'
p2972
ssS'gaffe'
p2973
(dp2974
g3
(lp2975
sg5
(lp2976
sg7
g8
sg9
S'tavla, blunder'
p2977
ssS'ominous'
p2978
(dp2979
g3
(lp2980
sg5
(lp2981
sg7
g8
sg9
S'adj. relating to an evil omen'
p2982
ssS'Buoyancy'
p2983
(dp2984
g3
(lp2985
sg5
(lp2986
sg7
g8
sg9
S'Ability to float'
p2987
ssS'vestige'
p2988
(dp2989
g3
(lp2990
sg5
(lp2991
sg7
g8
sg9
S'n. remnant'
p2992
ssS'homily'
p2993
(dp2994
g3
(lp2995
sg5
(lp2996
sg7
g15
sg9
S'sermon; tedious moralizing lecture'
p2997
ssS'pundit'
p2998
(dp2999
g3
(lp3000
sg5
(lp3001
sg7
g8
sg9
S'one who gives expert opinions'
p3002
ssS'vehemently'
p3003
(dp3004
g3
(lp3005
sg5
(lp3006
sg7
g8
sg9
S'adv. marked by intense force or emotion'
p3007
ssS'quibble'
p3008
(dp3009
g3
(lp3010
sg5
(lp3011
(lp3012
S'28/07/2015'
p3013
aF2.6402459144592285
aasg7
g15
sg9
S'to argue over insignificant and irrelevant details'
p3014
ssS'desultory'
p3015
(dp3016
g3
(lp3017
(lp3018
S'28/07/2015'
p3019
aI15
ag419
aasg5
(lp3020
sg7
g15
sg9
S'random; disconnected; rambling'
p3021
ssS'exotic'
p3022
(dp3023
g3
(lp3024
sg5
(lp3025
sg7
g8
sg9
S'strikingly different'
p3026
ssS'feign'
p3027
(dp3028
g3
(lp3029
sg5
(lp3030
sg7
g8
sg9
S'to pretend something'
p3031
ssS'petulant'
p3032
(dp3033
g3
(lp3034
sg5
(lp3035
sg7
g15
sg9
S'rude; peevish'
p3036
ssS'clumsy'
p3037
(dp3038
g3
(lp3039
sg5
(lp3040
sg7
g8
sg9
S'adj. always breaking things'
p3041
ssS'consecrate'
p3042
(dp3043
g3
(lp3044
sg5
(lp3045
sg7
g15
sg9
S'to declare sacred'
p3046
ssS'languish'
p3047
(dp3048
g3
(lp3049
sg5
(lp3050
sg7
g8
sg9
S'v. grow weak'
p3051
ssS'impetuous'
p3052
(dp3053
g3
(lp3054
sg5
(lp3055
sg7
g8
sg9
S'impulsive, characterized by sudden or rash action'
p3056
ssS'categorical'
p3057
(dp3058
g3
(lp3059
sg5
(lp3060
sg7
g15
sg9
S'absolute; without exception'
p3061
ssS'murky'
p3062
(dp3063
g3
(lp3064
sg5
(lp3065
sg7
g8
sg9
S'dark and gloomy, obscure; lacking in clarity and precision; stygian'
p3066
ssS'callous'
p3067
(dp3068
g3
(lp3069
sg5
(lp3070
sg7
g15
sg9
S'thick-skinned; insensitive'
p3071
ssS'purloin'
p3072
(dp3073
g3
(lp3074
sg5
(lp3075
sg7
g8
sg9
S'steal'
p3076
ssS'lambaste'
p3077
(dp3078
g3
(lp3079
sg5
(lp3080
sg7
g15
sg9
S'to trash verbally or physically'
p3081
ssS'convention'
p3082
(dp3083
g3
(lp3084
sg5
(lp3085
sg7
g15
sg9
S'practice widely observed in a group; custom; accepted technique or device'
p3086
ssS'daunt'
p3087
(dp3088
g3
(lp3089
sg5
(lp3090
sg7
g15
sg9
S'to discourage; intimidate; dishearten'
p3091
ssS'Repeal'
p3092
(dp3093
g3
(lp3094
sg5
(lp3095
sg7
g8
sg9
S'Revoke; annul'
p3096
ssS'artless'
p3097
(dp3098
g3
(lp3099
sg5
(lp3100
(lp3101
S'28/07/2015'
p3102
aF5.310698986053467
aasg7
g15
sg9
S'guileless; natural'
p3103
ssS'soporific'
p3104
(dp3105
g3
(lp3106
sg5
(lp3107
sg7
g15
sg9
S'sleep producing'
p3108
ssS'artifact'
p3109
(dp3110
g3
(lp3111
sg5
(lp3112
sg7
g15
sg9
S'item made by human craft'
p3113
ssS'Torrid'
p3114
(dp3115
g3
(lp3116
sg5
(lp3117
sg7
g8
sg9
S'Passionate; hot or scorching'
p3118
ssS'interdict'
p3119
(dp3120
g3
(lp3121
sg5
(lp3122
sg7
g15
sg9
S'to forbid; prohibit'
p3123
ssS'enigma'
p3124
(dp3125
g3
(lp3126
sg5
(lp3127
sg7
g8
sg9
S'puzzle, mystery'
p3128
ssS'Espouse'
p3129
(dp3130
g3
(lp3131
sg5
(lp3132
sg7
g8
sg9
S'Adopt; support'
p3133
ssS'sextant'
p3134
(dp3135
g3
(lp3136
sg5
(lp3137
sg7
g15
sg9
S'navigation tool that determines latitude and longitude'
p3138
ssS'Nondescript'
p3139
(dp3140
g3
(lp3141
sg5
(lp3142
sg7
g8
sg9
S'Ordinary'
p3143
ssS'heretical'
p3144
(dp3145
g3
(lp3146
sg5
(lp3147
sg7
g8
sg9
S'adj. departing from accepted beliefs or standards, oppositional'
p3148
ssS'infiltrate'
p3149
(dp3150
g3
(lp3151
sg5
(lp3152
sg7
g8
sg9
S'(v.) to pass through or gain entrance to gradually or stealthily'
p3153
ssS'tawdry'
p3154
(dp3155
g3
(lp3156
sg5
(lp3157
sg7
g8
sg9
S'adj. cheap and dirty'
p3158
ssS'cower'
p3159
(dp3160
g3
(lp3161
sg5
(lp3162
sg7
g8
sg9
S'v. hunch over in fear, to cringer in fear'
p3163
ssS'quotidian'
p3164
(dp3165
g3
(lp3166
sg5
(lp3167
sg7
g8
sg9
S'adj. happening every day'
p3168
ssS'distill'
p3169
(dp3170
g3
(lp3171
sg5
(lp3172
sg7
g15
sg9
S'extract the essential elements'
p3173
ssS'savant'
p3174
(dp3175
g3
(lp3176
sg5
(lp3177
sg7
g8
sg9
S'n. person with a particularly developed knowledge or skill'
p3178
ssS'blandishment'
p3179
(dp3180
g3
(lp3181
sg5
(lp3182
sg7
g15
sg9
S'flattery'
p3183
ssS'impinge'
p3184
(dp3185
g3
(lp3186
sg5
(lp3187
sg7
g15
sg9
S'to strike; encroach'
p3188
ssS'profuse'
p3189
(dp3190
g3
(lp3191
sg5
(lp3192
sg7
g8
sg9
S'(especially of something offered or discharged) exuberantly plentiful; abundant'
p3193
ssS'sublime'
p3194
(dp3195
g3
(lp3196
sg5
(lp3197
sg7
g8
sg9
S'noble'
p3198
ssS'contentious'
p3199
(dp3200
g3
(lp3201
sg5
(lp3202
sg7
g15
sg9
S'quarrelsome; causing quarrels'
p3203
ssS'recalcitrant'
p3204
(dp3205
g3
(lp3206
sg5
(lp3207
sg7
g15
sg9
S'resisting authority or control'
p3208
ssS'onomatopoeia'
p3209
(dp3210
g3
(lp3211
sg5
(lp3212
sg7
g15
sg9
S'formation or use of words that imitate sounds of the actions they refer to'
p3213
ssS'sumptuous'
p3214
(dp3215
g3
(lp3216
sg5
(lp3217
sg7
g8
sg9
S'costly, rich, magnificent'
p3218
ssS'salutation'
p3219
(dp3220
g3
(lp3221
sg5
(lp3222
sg7
g8
sg9
S'n. greeting'
p3223
ssS'stolid'
p3224
(dp3225
g3
(lp3226
sg5
(lp3227
sg7
g15
sg9
S'having or showing little emotion'
p3228
ssS'knead'
p3229
(dp3230
g3
(lp3231
sg5
(lp3232
sg7
g8
sg9
S'v. squeeze and fold with the hands'
p3233
ssS'acumen'
p3234
(dp3235
g3
(lp3236
sg5
(lp3237
sg7
g8
sg9
S'keen, accurate judgement or insight'
p3238
ssS'mendicant'
p3239
(dp3240
g3
(lp3241
sg5
(lp3242
(lp3243
S'28/07/2015'
p3244
aF1.984395980834961
aasg7
g15
sg9
S'beggar'
p3245
ssS'appellation'
p3246
(dp3247
g3
(lp3248
sg5
(lp3249
sg7
g15
sg9
S'name'
p3250
ssS'audacious'
p3251
(dp3252
g3
(lp3253
sg5
(lp3254
sg7
g15
sg9
S'bold; daring'
p3255
ssS'indelible'
p3256
(dp3257
g3
(lp3258
sg5
(lp3259
sg7
g8
sg9
S'cannot be erased'
p3260
ssS'squalor'
p3261
(dp3262
g3
(lp3263
sg5
(lp3264
sg7
g15
sg9
S'filthy, wretched condition'
p3265
ssS'remunerate'
p3266
(dp3267
g3
(lp3268
sg5
(lp3269
sg7
g8
sg9
S'v. pay'
p3270
ssS'abut'
p3271
(dp3272
g3
(lp3273
sg5
(lp3274
sg7
g8
sg9
S'v. adjacent, skirt'
p3275
ssS'barrage'
p3276
(dp3277
g3
(lp3278
sg5
(lp3279
sg7
g8
sg9
S'(n.) An overwhelming quantity or explosion, as of words, blows, or criticisms'
p3280
ssS'rationale'
p3281
(dp3282
g3
(lp3283
sg5
(lp3284
sg7
g15
sg9
S'fundamental reason'
p3285
ssS'saunter'
p3286
(dp3287
g3
(lp3288
sg5
(lp3289
sg7
g8
sg9
S'(n.) A leisurely walk, a stroll; (v.) To walk at a leisurely pace, to stroll slowly'
p3290
ssS'pernicious'
p3291
(dp3292
g3
(lp3293
sg5
(lp3294
sg7
g8
sg9
S'adj. very destructive or harmful'
p3295
ssS'glutton'
p3296
(dp3297
g3
(lp3298
sg5
(lp3299
sg7
g8
sg9
S'n. one who over indulges in food and drink'
p3300
ssS'permeable'
p3301
(dp3302
g3
(lp3303
sg5
(lp3304
sg7
g15
sg9
S'penetrable'
p3305
ssS'bacchanalian'
p3306
(dp3307
g3
(lp3308
sg5
(lp3309
sg7
g15
sg9
S'pertaining to riotous or drunken festivity; pertaining to revelry'
p3310
ssS'supposition'
p3311
(dp3312
g3
(lp3313
sg5
(lp3314
sg7
g15
sg9
S'the act of assuming to be true or real'
p3315
ssS'dirge'
p3316
(dp3317
g3
(lp3318
sg5
(lp3319
sg7
g15
sg9
S'funeral hymn'
p3320
ssS'fallow'
p3321
(dp3322
g3
(lp3323
sg5
(lp3324
sg7
g15
sg9
S'plowed but not sowed; uncultivated'
p3325
ssS'broach'
p3326
(dp3327
g3
(lp3328
sg5
(lp3329
sg7
g15
sg9
S'to mention for the first time'
p3330
ssS'Timidity'
p3331
(dp3332
g3
(lp3333
sg5
(lp3334
sg7
g8
sg9
S'Lack of self-confidence or courage'
p3335
ssS'fulsome'
p3336
(dp3337
g3
(lp3338
sg5
(lp3339
sg7
g15
sg9
S'so excessive as to be disgusting'
p3340
ssS'plumb'
p3341
(dp3342
g3
(lp3343
sg5
(lp3344
sg7
g15
sg9
S'to examine deeply; determine the depth'
p3345
ssS'preternatural'
p3346
(dp3347
g3
(lp3348
sg5
(lp3349
sg7
g15
sg9
S'supernatural; beyond the normal use of nature'
p3350
ssS'travesty'
p3351
(dp3352
g3
(lp3353
sg5
(lp3354
sg7
g15
sg9
S'parody, exaggerated imitation, caricature'
p3355
ssS'usury'
p3356
(dp3357
g3
(lp3358
sg5
(lp3359
(lp3360
S'28/07/2015'
p3361
aF36.386703968048096
aasg7
g15
sg9
S'a practice of lending money at exorbitant rates'
p3362
ssS'froward'
p3363
(dp3364
g3
(lp3365
sg5
(lp3366
sg7
g15
sg9
S'stubbornly contrary; obstinately disobedient'
p3367
ssS'loath'
p3368
(dp3369
g3
(lp3370
sg5
(lp3371
sg7
g8
sg9
S'unwilling, reluctant'
p3372
ssS'factotum'
p3373
(dp3374
g3
(lp3375
sg5
(lp3376
sg7
g15
sg9
S'a person who does all sorts of work; a handyman'
p3377
ssS'badinage'
p3378
(dp3379
g3
(lp3380
sg5
(lp3381
sg7
g8
sg9
S'light and playful conversation'
p3382
ssS'beseech'
p3383
(dp3384
g3
(lp3385
sg5
(lp3386
sg7
g8
sg9
S'beg; implore'
p3387
ssS'deprecate'
p3388
(dp3389
g3
(lp3390
sg5
(lp3391
sg7
g8
sg9
S'(v.) to express mild disapproval; to belittle'
p3392
ssS'Scrupulous'
p3393
(dp3394
g3
(lp3395
sg5
(lp3396
sg7
g8
sg9
S'Conscientious; extremely thorough'
p3397
ssS'obliterate'
p3398
(dp3399
g3
(lp3400
sg5
(lp3401
sg7
g8
sg9
S'destroy utterly; wipe out.'
p3402
ssS'preempt'
p3403
(dp3404
g3
(lp3405
sg5
(lp3406
sg7
g15
sg9
S'to supersede; appropiate for oneself'
p3407
ssS'denouement'
p3408
(dp3409
g3
(lp3410
sg5
(lp3411
sg7
g15
sg9
S'outcome; unraveling of the plot of a play or work of literature'
p3412
ssS'Minute'
p3413
(dp3414
g3
(lp3415
sg5
(lp3416
sg7
g8
sg9
S'Very small'
p3417
ssS'Mirage'
p3418
(dp3419
g3
(lp3420
sg5
(lp3421
sg7
g8
sg9
S'something illusionary'
p3422
ssS'disparage'
p3423
(dp3424
g3
(lp3425
sg5
(lp3426
sg7
g15
sg9
S'to belittle'
p3427
ssS'morose'
p3428
(dp3429
g3
(lp3430
sg5
(lp3431
sg7
g15
sg9
S'ill-humored; sullen'
p3432
ssS'expiate'
p3433
(dp3434
g3
(lp3435
sg5
(lp3436
sg7
g15
sg9
S'to atone for'
p3437
ssS'pellucid'
p3438
(dp3439
g3
(lp3440
sg5
(lp3441
sg7
g15
sg9
S'transparent; easily understood'
p3442
ssS'culpable'
p3443
(dp3444
g3
(lp3445
sg5
(lp3446
sg7
g8
sg9
S'deserving blame'
p3447
ssS'stigma'
p3448
(dp3449
g3
(lp3450
sg5
(lp3451
(lp3452
S'28/07/2015'
p3453
aF2.9585421085357666
aasg7
g15
sg9
S'mark of disgrace or inferiority'
p3454
ssS'asperity'
p3455
(dp3456
g3
(lp3457
sg5
(lp3458
sg7
g15
sg9
S'severity; harshness; irritability'
p3459
ssS'Impugn'
p3460
(dp3461
g3
(lp3462
sg5
(lp3463
sg7
g8
sg9
S'insult'
p3464
ssS'nostrum'
p3465
(dp3466
g3
(lp3467
sg5
(lp3468
sg7
g15
sg9
S'medicine or remedy of doubtful effectiveness'
p3469
ssS'bathetic'
p3470
(dp3471
g3
(lp3472
sg5
(lp3473
sg7
g8
sg9
S'adj. characterized by exceptional commonplaceness( trite,commonplace, stale, stereotyped)'
p3474
ssS'denizen'
p3475
(dp3476
g3
(lp3477
(lp3478
S'28/07/2015'
p3479
aI15
ag419
aasg5
(lp3480
(lp3481
S'28/07/2015'
p3482
aF4.2113330364227295
aasg7
g15
sg9
S'an inhabitant; a regular visitor'
p3483
ssS'perspicuous'
p3484
(dp3485
g3
(lp3486
sg5
(lp3487
sg7
g8
sg9
S'adj. clear and easy to understand'
p3488
ssS'anodyne'
p3489
(dp3490
g3
(lp3491
(lp3492
S'28/07/2015'
p3493
aI15
ag419
aasg5
(lp3494
sg7
g15
sg9
S'something that calms or soothes pain'
p3495
ssS'Awe'
p3496
(dp3497
g3
(lp3498
sg5
(lp3499
sg7
g8
sg9
S'Solemn wonder'
p3500
ssS'presage'
p3501
(dp3502
g3
(lp3503
sg5
(lp3504
(lp3505
S'28/07/2015'
p3506
aF6.2514848709106445
aasg7
g15
sg9
S'to foretell; indicate in advance'
p3507
ssS'caucus'
p3508
(dp3509
g3
(lp3510
sg5
(lp3511
(lp3512
S'28/07/2015'
p3513
aF3.2130298614501953
aasg7
g15
sg9
S'smaller group within an organization'
p3514
ssS'pitiless'
p3515
(dp3516
g3
(lp3517
sg5
(lp3518
sg7
g8
sg9
S'adj. without pity'
p3519
ssS'satiate'
p3520
(dp3521
g3
(lp3522
sg5
(lp3523
sg7
g15
sg9
S'to satisfy'
p3524
ssS'somnolence'
p3525
(dp3526
g3
(lp3527
sg5
(lp3528
sg7
g8
sg9
S'n. the state of being about to fall asleep'
p3529
ssS'tacit'
p3530
(dp3531
g3
(lp3532
sg5
(lp3533
(lp3534
S'28/07/2015'
p3535
aF20.89763116836548
aasg7
g15
sg9
S'silently understood, implied'
p3536
ssS'rapacious'
p3537
(dp3538
g3
(lp3539
sg5
(lp3540
sg7
g8
sg9
S'adj. violently greedy;avarice'
p3541
ssS'jovial'
p3542
(dp3543
g3
(lp3544
sg5
(lp3545
sg7
g8
sg9
S'adj. good-humored'
p3546
ssS'animus'
p3547
(dp3548
g3
(lp3549
sg5
(lp3550
sg7
g8
sg9
S'n. strong dislike (a...)'
p3551
ssS'distrait'
p3552
(dp3553
g3
(lp3554
sg5
(lp3555
sg7
g15
sg9
S'inattentive; preoccupied'
p3556
ssS'oust'
p3557
(dp3558
g3
(lp3559
sg5
(lp3560
sg7
g8
sg9
S'drive out or expel (someone) from a position or place.'
p3561
ssS'puerile'
p3562
(dp3563
g3
(lp3564
sg5
(lp3565
sg7
g8
sg9
S'adj. childishly foolish; immature or trivial'
p3566
ssS'fissure'
p3567
(dp3568
g3
(lp3569
sg5
(lp3570
(lp3571
S'28/07/2015'
p3572
aF1.6517140865325928
aasg7
g15
sg9
S'crevice'
p3573
ssS'tractable'
p3574
(dp3575
g3
(lp3576
sg5
(lp3577
sg7
g15
sg9
S'obedient, yielding'
p3578
ssS'fulminate'
p3579
(dp3580
g3
(lp3581
sg5
(lp3582
sg7
g15
sg9
S'to attack loudly; denounce'
p3583
ssS'susceptible'
p3584
(dp3585
g3
(lp3586
sg5
(lp3587
sg7
g8
sg9
S'adj. likely to be harmed'
p3588
ssS'belie'
p3589
(dp3590
g3
(lp3591
sg5
(lp3592
sg7
g15
sg9
S'to contradict; misrepresent; give a false impression'
p3593
ssS'tout'
p3594
(dp3595
g3
(lp3596
sg5
(lp3597
sg7
g15
sg9
S'to promote or praise energetically'
p3598
ssS'delirium'
p3599
(dp3600
g3
(lp3601
sg5
(lp3602
sg7
g8
sg9
S'great excitement'
p3603
ssS'Acrid'
p3604
(dp3605
g3
(lp3606
sg5
(lp3607
sg7
g8
sg9
S'Sharp; bitterly pungent'
p3608
ssS'nonentity'
p3609
(dp3610
g3
(lp3611
sg5
(lp3612
sg7
g8
sg9
S'n. unimportant person or thing'
p3613
ssS'evict'
p3614
(dp3615
g3
(lp3616
sg5
(lp3617
sg7
g8
sg9
S'expel'
p3618
ssS'Sprawl'
p3619
(dp3620
g3
(lp3621
sg5
(lp3622
sg7
g8
sg9
S'To spread out in an irregular manner.'
p3623
ssS'terse'
p3624
(dp3625
g3
(lp3626
sg5
(lp3627
sg7
g8
sg9
S'adj. using only the words that are need to make a point'
p3628
ssS'dispatch'
p3629
(dp3630
g3
(lp3631
sg5
(lp3632
sg7
g8
sg9
S'efficient speed'
p3633
ssS'Morbid'
p3634
(dp3635
g3
(lp3636
sg5
(lp3637
sg7
g8
sg9
S'Moody; given to unwholesome thought'
p3638
ssS'epistemology'
p3639
(dp3640
g3
(lp3641
sg5
(lp3642
sg7
g15
sg9
S'branch of philosophy tha examines the nature of knowledge'
p3643
ssS'caricature'
p3644
(dp3645
g3
(lp3646
sg5
(lp3647
sg7
g8
sg9
S'portrait (distorted)'
p3648
ssS'repine'
p3649
(dp3650
g3
(lp3651
sg5
(lp3652
sg7
g15
sg9
S'fret, complain'
p3653
ssS'Nomad'
p3654
(dp3655
g3
(lp3656
sg5
(lp3657
sg7
g8
sg9
S'One who travels with no fixed home'
p3658
ssS'linguistic'
p3659
(dp3660
g3
(lp3661
sg5
(lp3662
sg7
g15
sg9
S'pertaining to language'
p3663
ssS'diatribe'
p3664
(dp3665
g3
(lp3666
(lp3667
S'28/07/2015'
p3668
aI15
ag419
aasg5
(lp3669
sg7
g15
sg9
S'bitter verbal attack'
p3670
ssS'torpor'
p3671
(dp3672
g3
(lp3673
sg5
(lp3674
sg7
g15
sg9
S'lethargy, dormancy, sluggishness'
p3675
ssS'exasperate'
p3676
(dp3677
g3
(lp3678
sg5
(lp3679
sg7
g8
sg9
S'to make angry,vex'
p3680
ssS'dissipate'
p3681
(dp3682
g3
(lp3683
sg5
(lp3684
sg7
g8
sg9
S'cause to diminish,disperse,dispel'
p3685
ssS'homely'
p3686
(dp3687
g3
(lp3688
sg5
(lp3689
sg7
g8
sg9
S'lacking in physical attractiveness; not beautiful; unattractive'
p3690
ssS'abject'
p3691
(dp3692
g3
(lp3693
sg5
(lp3694
sg7
g15
sg9
S'miserable; pitiful'
p3695
ssS'extant'
p3696
(dp3697
g3
(lp3698
sg5
(lp3699
sg7
g15
sg9
S'in existence; not lost'
p3700
ssS'Scotch'
p3701
(dp3702
g3
(lp3703
sg5
(lp3704
sg7
g8
sg9
S'Suppress, thwart, to put an end to'
p3705
ssS'diffuse'
p3706
(dp3707
g3
(lp3708
sg5
(lp3709
sg7
g15
sg9
S'to spread out'
p3710
ssS'sedition'
p3711
(dp3712
g3
(lp3713
sg5
(lp3714
sg7
g15
sg9
S'behaviour prompting rebellion'
p3715
ssS'Crescendo'
p3716
(dp3717
g3
(lp3718
sg5
(lp3719
sg7
g8
sg9
S'Increase in the volume or intensity'
p3720
ssS'invigorate'
p3721
(dp3722
g3
(lp3723
sg5
(lp3724
sg7
g8
sg9
S'v. give energy'
p3725
ssS'refractory'
p3726
(dp3727
g3
(lp3728
sg5
(lp3729
sg7
g15
sg9
S'stubborn, resisting ordinary methods of treatment'
p3730
ssS'implacable'
p3731
(dp3732
g3
(lp3733
sg5
(lp3734
sg7
g15
sg9
S'inflexible; incable of being pleased or calmed down'
p3735
ssS'misanthrope'
p3736
(dp3737
g3
(lp3738
sg5
(lp3739
sg7
g15
sg9
S'one who hates humanity; one who dislikes others'
p3740
ssS'palliate'
p3741
(dp3742
g3
(lp3743
sg5
(lp3744
sg7
g8
sg9
S'v. soothe, reduce the impact of'
p3745
ssS'recumbent'
p3746
(dp3747
g3
(lp3748
sg5
(lp3749
sg7
g8
sg9
S'in a reclining position, lying down, in the posture of one sleeping or resting'
p3750
ssS'canon'
p3751
(dp3752
g3
(lp3753
sg5
(lp3754
sg7
g15
sg9
S'an established set of principles; a basis or standard for judgment; a group of literary works'
p3755
ssS'dissident'
p3756
(dp3757
g3
(lp3758
sg5
(lp3759
sg7
g15
sg9
S'person who disagrees about beliefs'
p3760
ssS'incubate'
p3761
(dp3762
g3
(lp3763
sg5
(lp3764
sg7
g8
sg9
S'develop slowly'
p3765
ssS'volition'
p3766
(dp3767
g3
(lp3768
sg5
(lp3769
sg7
g8
sg9
S'n. willingness'
p3770
ssS'ingrained'
p3771
(dp3772
g3
(lp3773
sg5
(lp3774
sg7
g8
sg9
S'firmly rooted'
p3775
ssS'demur'
p3776
(dp3777
g3
(lp3778
sg5
(lp3779
sg7
g15
sg9
S'to express doubt; question or oppose'
p3780
ssS'quagmire'
p3781
(dp3782
g3
(lp3783
sg5
(lp3784
sg7
g15
sg9
S'marsh, difficult situation'
p3785
ssS'deference'
p3786
(dp3787
g3
(lp3788
sg5
(lp3789
sg7
g15
sg9
S"respect; regard for another's wish"
p3790
ssS'document'
p3791
(dp3792
g3
(lp3793
sg5
(lp3794
sg7
g15
sg9
S'to provide with written evidence to support'
p3795
ssS'Jettison'
p3796
(dp3797
g3
(lp3798
sg5
(lp3799
sg7
g8
sg9
S'Get rid of something'
p3800
ssS'pedantic'
p3801
(dp3802
g3
(lp3803
(lp3804
S'28/07/2015'
p3805
aI15
ag419
aasg5
(lp3806
sg7
g15
sg9
S'Characterized by a narrow, often ostentatious concern for book learning and formal rules'
p3807
ssS'libido'
p3808
(dp3809
g3
(lp3810
sg5
(lp3811
sg7
g15
sg9
S'sexual desire'
p3812
ssS'deft'
p3813
(dp3814
g3
(lp3815
sg5
(lp3816
sg7
g8
sg9
S'adj. skillful'
p3817
ssS'meteorological'
p3818
(dp3819
g3
(lp3820
sg5
(lp3821
sg7
g15
sg9
S'concerned with the weather'
p3822
ssS'callow'
p3823
(dp3824
g3
(lp3825
sg5
(lp3826
sg7
g8
sg9
S'adj. inexperienced'
p3827
ssS'odium'
p3828
(dp3829
g3
(lp3830
sg5
(lp3831
sg7
g8
sg9
S'n. widespread hatred'
p3832
ssS'Repartee'
p3833
(dp3834
g3
(lp3835
sg5
(lp3836
sg7
g8
sg9
S'Quick, witty reply; riposte'
p3837
ssS'perennial'
p3838
(dp3839
g3
(lp3840
sg5
(lp3841
sg7
g15
sg9
S'present throughout the years; persistent'
p3842
ssS'dogmatic'
p3843
(dp3844
g3
(lp3845
sg5
(lp3846
sg7
g15
sg9
S'stating opinions without proof'
p3847
ssS'substantive'
p3848
(dp3849
g3
(lp3850
sg5
(lp3851
sg7
g15
sg9
S'essential'
p3852
ssS'suppliant'
p3853
(dp3854
g3
(lp3855
sg5
(lp3856
sg7
g15
sg9
S'beseeching, a person making a humble plea to someone in power or authority'
p3857
ssS'bravura'
p3858
(dp3859
g3
(lp3860
sg5
(lp3861
sg7
g8
sg9
S'great technical skill and brilliance shown in a performance or activity.(masterful, adroit, dexterous)'
p3862
ssS'miscellany'
p3863
(dp3864
g3
(lp3865
sg5
(lp3866
(lp3867
S'28/07/2015'
p3868
aF5.773560047149658
aasg7
g15
sg9
S'mixture of writtings on various subjects'
p3869
ssS'parody'
p3870
(dp3871
g3
(lp3872
sg5
(lp3873
sg7
g8
sg9
S'a humorous imitation intended for ridicule or comic effect, esp. in literature and art; travesty;pastiche'
p3874
ssS'elysian'
p3875
(dp3876
g3
(lp3877
sg5
(lp3878
sg7
g15
sg9
S'delightful; blissful'
p3879
ssS'amalgamate'
p3880
(dp3881
g3
(lp3882
sg5
(lp3883
sg7
g15
sg9
S'to combine into a unified whole'
p3884
ssS'pariah'
p3885
(dp3886
g3
(lp3887
sg5
(lp3888
sg7
g8
sg9
S'one who has been rejected by society, social outcast'
p3889
ssS'homeostasis'
p3890
(dp3891
g3
(lp3892
sg5
(lp3893
sg7
g15
sg9
S'automatic maintenance by an organism in balance with itself'
p3894
ssS'tirade'
p3895
(dp3896
g3
(lp3897
sg5
(lp3898
sg7
g15
sg9
S'long, violent speech, verbal assault'
p3899
ssS'Nuance'
p3900
(dp3901
g3
(lp3902
sg5
(lp3903
sg7
g8
sg9
S'something subtle, a fine shade of meaning'
p3904
ssS'domicile'
p3905
(dp3906
g3
(lp3907
sg5
(lp3908
sg7
g8
sg9
S'n. home'
p3909
ssS'sinuous'
p3910
(dp3911
g3
(lp3912
sg5
(lp3913
sg7
g15
sg9
S'intricate, complex'
p3914
ssS'doyen'
p3915
(dp3916
g3
(lp3917
sg5
(lp3918
sg7
g8
sg9
S'man who is the eldest or senior member of a group, profession, or society'
p3919
ssS'exult'
p3920
(dp3921
g3
(lp3922
sg5
(lp3923
sg7
g8
sg9
S'rejoice, delight, glory, jubilate, joy, rejoice, triumph,'
p3924
ssS'seamy'
p3925
(dp3926
g3
(lp3927
sg5
(lp3928
sg7
g8
sg9
S'unwholesome; sordid'
p3929
ssS'earnest'
p3930
(dp3931
g3
(lp3932
sg5
(lp3933
sg7
g8
sg9
S'intensely serious and sincere'
p3934
ssS'tremulous'
p3935
(dp3936
g3
(lp3937
sg5
(lp3938
sg7
g15
sg9
S'trembling, frugal, timid'
p3939
ssS'multifarious'
p3940
(dp3941
g3
(lp3942
sg5
(lp3943
(lp3944
S'28/07/2015'
p3945
aF7.421044111251831
aasg7
g15
sg9
S'diverse'
p3946
ssS'engross'
p3947
(dp3948
g3
(lp3949
sg5
(lp3950
sg7
g8
sg9
S'preoccupy,immerse, fascinate, grip, absorb'
p3951
ssS'expository'
p3952
(dp3953
g3
(lp3954
sg5
(lp3955
sg7
g15
sg9
S'explanatory'
p3956
ssS'Valiant'
p3957
(dp3958
g3
(lp3959
sg5
(lp3960
sg7
g8
sg9
S'Bold; courageous; stouthearted; heroic'
p3961
ssS'militate'
p3962
(dp3963
g3
(lp3964
sg5
(lp3965
sg7
g15
sg9
S'to work against'
p3966
ssS'captious'
p3967
(dp3968
g3
(lp3969
sg5
(lp3970
sg7
g15
sg9
S'faultfinding; intended to entrap, as in an argument'
p3971
ssS'Matriculate'
p3972
(dp3973
g3
(lp3974
sg5
(lp3975
sg7
g8
sg9
S'Enroll (in college)'
p3976
ssS'servile'
p3977
(dp3978
g3
(lp3979
sg5
(lp3980
sg7
g15
sg9
S'submissive, obedient'
p3981
ssS'dingy'
p3982
(dp3983
g3
(lp3984
sg5
(lp3985
sg7
g8
sg9
S'dirty or faded'
p3986
ssS'phoenix'
p3987
(dp3988
g3
(lp3989
(lp3990
S'28/07/2015'
p3991
aI15
ag419
aasg5
(lp3992
sg7
g15
sg9
S'anything that is restored after suffering great destruction'
p3993
ssS'fusty'
p3994
(dp3995
g3
(lp3996
sg5
(lp3997
sg7
g8
sg9
S'Smelling stale, damp, or stuffy: "the fusty odor of decay".  2.\tOld-fashioned in attitude or style'
p3998
ssS'corrosive'
p3999
(dp4000
g3
(lp4001
sg5
(lp4002
sg7
g8
sg9
S'adj. erosive, caustic, liable to eat away at things'
p4003
ssS'juggernaut'
p4004
(dp4005
g3
(lp4006
sg5
(lp4007
sg7
g15
sg9
S'huge froce destroying everything in its path'
p4008
ssS'intimate'
p4009
(dp4010
g3
(lp4011
sg5
(lp4012
sg7
g15
sg9
S'marked by close acquaintance'
p4013
ssS'voracious'
p4014
(dp4015
g3
(lp4016
sg5
(lp4017
sg7
g8
sg9
S'adj. wanting large amounts of food'
p4018
ssS'prattle'
p4019
(dp4020
g3
(lp4021
sg5
(lp4022
sg7
g15
sg9
S'meaningless, foolish talk'
p4023
ssS'vacillate'
p4024
(dp4025
g3
(lp4026
sg5
(lp4027
sg7
g15
sg9
S'to waver, oscillate'
p4028
ssS'Languid'
p4029
(dp4030
g3
(lp4031
sg5
(lp4032
sg7
g8
sg9
S'Weary; sluggish; listless'
p4033
ssS'piety'
p4034
(dp4035
g3
(lp4036
sg5
(lp4037
sg7
g15
sg9
S'devoutness'
p4038
ssS'cornucopia'
p4039
(dp4040
g3
(lp4041
sg5
(lp4042
sg7
g15
sg9
S'horn overflowing with fruit and grain; state of abundance'
p4043
ssS'acclimate'
p4044
(dp4045
g3
(lp4046
sg5
(lp4047
sg7
g8
sg9
S'v. become accustomed to'
p4048
ssS'Ensue'
p4049
(dp4050
g3
(lp4051
sg5
(lp4052
sg7
g8
sg9
S'Follow immediately; occur as a result'
p4053
ssS'Moratorium'
p4054
(dp4055
g3
(lp4056
sg5
(lp4057
sg7
g8
sg9
S'(n.) a suspension of activity; an offical waiting period; an authorized period of delay'
p4058
ssS'dilettante'
p4059
(dp4060
g3
(lp4061
sg5
(lp4062
sg7
g8
sg9
S'amateur,nonexpert,one who dabbles in art and science'
p4063
ssS'chivalry'
p4064
(dp4065
g3
(lp4066
sg5
(lp4067
(lp4068
S'28/07/2015'
p4069
aF2.265671968460083
aasg7
g15
sg9
S'the qualities idealized by knighthood such as bravery and gallantry toward women'
p4070
ssS'renovate'
p4071
(dp4072
g3
(lp4073
sg5
(lp4074
sg7
g8
sg9
S'v. make as if new again'
p4075
ssS'ambrosia'
p4076
(dp4077
g3
(lp4078
sg5
(lp4079
sg7
g15
sg9
S'something delicious; the food of the gods'
p4080
ssS'resuscitate'
p4081
(dp4082
g3
(lp4083
sg5
(lp4084
sg7
g8
sg9
S'v. bring back to life'
p4085
ssS'hew'
p4086
(dp4087
g3
(lp4088
sg5
(lp4089
sg7
g8
sg9
S'(v.) to shape or cut down with an ax; to hold to'
p4090
ssS'log'
p4091
(dp4092
g3
(lp4093
sg5
(lp4094
sg7
g15
sg9
S'record of a voyage; record of daily activities'
p4095
ssS'myopic'
p4096
(dp4097
g3
(lp4098
sg5
(lp4099
sg7
g8
sg9
S'shortsighted'
p4100
ssS'compliant'
p4101
(dp4102
g3
(lp4103
sg5
(lp4104
sg7
g15
sg9
S'yielding'
p4105
ssS'bromide'
p4106
(dp4107
g3
(lp4108
sg5
(lp4109
sg7
g8
sg9
S'a statement which is intended to make someone less angry but which is not effective'
p4110
ssS'futile'
p4111
(dp4112
g3
(lp4113
sg5
(lp4114
(lp4115
S'28/07/2015'
p4116
aF9.269304990768433
aasg7
g15
sg9
S'ineffective; useless; fruitless'
p4117
ssS'galvanize'
p4118
(dp4119
g3
(lp4120
sg5
(lp4121
sg7
g8
sg9
S'Stimulate by shock; stir up; revitalize'
p4122
ssS'mollify'
p4123
(dp4124
g3
(lp4125
sg5
(lp4126
(lp4127
S'28/07/2015'
p4128
aF9.447190999984741
aasg7
g15
sg9
S'to soothe'
p4129
ssS'viscous'
p4130
(dp4131
g3
(lp4132
sg5
(lp4133
sg7
g15
sg9
S'thick, syrupy'
p4134
ssS'immaculate'
p4135
(dp4136
g3
(lp4137
sg5
(lp4138
sg7
g8
sg9
S'perfectly clean, spotless'
p4139
ssS'verbatim'
p4140
(dp4141
g3
(lp4142
sg5
(lp4143
sg7
g8
sg9
S'adj. word for word; exactly as written or spoken'
p4144
ssS'fanatic'
p4145
(dp4146
g3
(lp4147
sg5
(lp4148
sg7
g8
sg9
S'n. blindly keen person'
p4149
ssS'tranquility'
p4150
(dp4151
g3
(lp4152
sg5
(lp4153
sg7
g8
sg9
S'state of calm, serenity or quiet'
p4154
ssS'shroud'
p4155
(dp4156
g3
(lp4157
sg5
(lp4158
sg7
g8
sg9
S'cover or hide something'
p4159
ssS'recoil'
p4160
(dp4161
g3
(lp4162
sg5
(lp4163
sg7
g8
sg9
S'(v.) to spring back, shrink; (n.) the act of springing back'
p4164
ssS'rouse'
p4165
(dp4166
g3
(lp4167
sg5
(lp4168
sg7
g8
sg9
S'v\xc3\xa4cka, elda, uppr\xc3\xb6ra'
p4169
ssS'emancipate'
p4170
(dp4171
g3
(lp4172
sg5
(lp4173
sg7
g8
sg9
S'v. release from slavery'
p4174
ssS'plucky'
p4175
(dp4176
g3
(lp4177
sg5
(lp4178
sg7
g8
sg9
S'adj. brave'
p4179
ssS'regimen'
p4180
(dp4181
g3
(lp4182
sg5
(lp4183
sg7
g8
sg9
S'n. set of rules or suggested habits'
p4184
ssS'flamboyant'
p4185
(dp4186
g3
(lp4187
sg5
(lp4188
sg7
g8
sg9
S'praktfull, extravagant, tending to attract attention because of their exuberance, confidence, and stylishness. \tostentatious, exuberant, confident, lively, buoyant, animated'
p4189
ssS'default'
p4190
(dp4191
g3
(lp4192
(lp4193
S'28/07/2015'
p4194
aI15
ag419
aasg5
(lp4195
sg7
g15
sg9
S'to fail to act'
p4196
ssS'attenuate'
p4197
(dp4198
g3
(lp4199
sg5
(lp4200
sg7
g15
sg9
S'to weaken'
p4201
ssS'excruciate'
p4202
(dp4203
g3
(lp4204
sg5
(lp4205
sg7
g8
sg9
S'v. make feel uncomfortable'
p4206
ssS'ruse'
p4207
(dp4208
g3
(lp4209
sg5
(lp4210
sg7
g15
sg9
S'trick, crafty stratagem'
p4211
ssS'impute'
p4212
(dp4213
g3
(lp4214
sg5
(lp4215
sg7
g15
sg9
S'to attribute the fault to; relate to a particular cause or source'
p4216
ssS'histrionic'
p4217
(dp4218
g3
(lp4219
sg5
(lp4220
sg7
g15
sg9
S'relating to exaggerated emotional behavior calculated for effect; theatrical acts or performances'
p4221
ssS'eschew'
p4222
(dp4223
g3
(lp4224
sg5
(lp4225
sg7
g8
sg9
S'to avoid'
p4226
ssS'atavism'
p4227
(dp4228
g3
(lp4229
(lp4230
S'28/07/2015'
p4231
aI15
ag419
aasg5
(lp4232
(lp4233
S'28/07/2015'
p4234
aF13.51613998413086
aasg7
g15
sg9
S'in biology, the reappearance of a characteristic in an organism after several generations of absence; individual or a part that exhibits atavism; return of a trait after a period of absence'
p4235
ssS'ennui'
p4236
(dp4237
g3
(lp4238
sg5
(lp4239
sg7
g8
sg9
S'n. boredom'
p4240
ssS'charlatan'
p4241
(dp4242
g3
(lp4243
sg5
(lp4244
sg7
g8
sg9
S'(n.) one who feigns knowledge or ability; a pretender, impostor, or quack'
p4245
ssS'patois'
p4246
(dp4247
g3
(lp4248
sg5
(lp4249
sg7
g15
sg9
S'jargon; a regional dialect'
p4250
ssS'celestial'
p4251
(dp4252
g3
(lp4253
sg5
(lp4254
sg7
g15
sg9
S'concerned with sky or heavens; sublime'
p4255
ssS'gratuitous'
p4256
(dp4257
g3
(lp4258
sg5
(lp4259
sg7
g8
sg9
S'unnecessary'
p4260
ssS'conundrum'
p4261
(dp4262
g3
(lp4263
sg5
(lp4264
sg7
g15
sg9
S'riddle; puzzle with no solution'
p4265
ssS'awry'
p4266
(dp4267
g3
(lp4268
sg5
(lp4269
sg7
g8
sg9
S'not in the correct position'
p4270
ssS'ineluctable'
p4271
(dp4272
g3
(lp4273
sg5
(lp4274
(lp4275
S'28/07/2015'
p4276
aF2.07975697517395
aasg7
g15
sg9
S'not to be avoided or escaped; inevitable'
p4277
ssS'saturnine'
p4278
(dp4279
g3
(lp4280
sg5
(lp4281
(lp4282
S'28/07/2015'
p4283
aF2.5458199977874756
aasg7
g15
sg9
S'gloomy'
p4284
ssS'Invective'
p4285
(dp4286
g3
(lp4287
sg5
(lp4288
sg7
g8
sg9
S'Abuse; stream of harsh words'
p4289
ssS'Bracing'
p4290
(dp4291
g3
(lp4292
sg5
(lp4293
sg7
g8
sg9
S'Invigorating; energizing; stimulating'
p4294
ssS'garrulous'
p4295
(dp4296
g3
(lp4297
sg5
(lp4298
sg7
g15
sg9
S'very talkative; wordy'
p4299
ssS'deterrent'
p4300
(dp4301
g3
(lp4302
(lp4303
S'28/07/2015'
p4304
aI15
ag419
aasg5
(lp4305
sg7
g15
sg9
S'something that discourages or hinders'
p4306
ssS'flock'
p4307
(dp4308
g3
(lp4309
sg5
(lp4310
sg7
g8
sg9
S'a groups of birds or sheep; A group of people folks'
p4311
ssS'onerous'
p4312
(dp4313
g3
(lp4314
sg5
(lp4315
(lp4316
S'28/07/2015'
p4317
aF2.358682155609131
aasg7
g15
sg9
S'burdensome'
p4318
ssS'pensive'
p4319
(dp4320
g3
(lp4321
sg5
(lp4322
sg7
g8
sg9
S'engaged in, involving, or reflecting deep or serious thought'
p4323
ssS'sanguine'
p4324
(dp4325
g3
(lp4326
sg5
(lp4327
sg7
g8
sg9
S'hoping for the best'
p4328
ssS'Genteel'
p4329
(dp4330
g3
(lp4331
sg5
(lp4332
sg7
g8
sg9
S'Refined; polished'
p4333
ssS'stalwart'
p4334
(dp4335
g3
(lp4336
sg5
(lp4337
sg7
g8
sg9
S'adj. loyal, reliable'
p4338
ssS'Relish'
p4339
(dp4340
g3
(lp4341
sg5
(lp4342
sg7
g8
sg9
S'Savor; enjoy'
p4343
ssS'proliferate'
p4344
(dp4345
g3
(lp4346
sg5
(lp4347
(lp4348
S'28/07/2015'
p4349
aF1.4161839485168457
aasg7
g15
sg9
S'to increase rapidly'
p4350
ssS'reverent'
p4351
(dp4352
g3
(lp4353
sg5
(lp4354
sg7
g15
sg9
S'expressing deep respect, worshipful'
p4355
ssS'Bellwether'
p4356
(dp4357
g3
(lp4358
sg5
(lp4359
sg7
g8
sg9
S'male sheep that leads the flock to the slaughterhouse, ringleader'
p4360
ssS'fetid'
p4361
(dp4362
g3
(lp4363
sg5
(lp4364
sg7
g15
sg9
S'having a bad smell'
p4365
ssS'Sere'
p4366
(dp4367
g3
(lp4368
sg5
(lp4369
sg7
g8
sg9
S'withered, dry'
p4370
ssS'delineate'
p4371
(dp4372
g3
(lp4373
(lp4374
S'28/07/2015'
p4375
aI15
ag419
aasg5
(lp4376
sg7
g15
sg9
S'to represent or depict'
p4377
ssS'Immanent'
p4378
(dp4379
g3
(lp4380
sg5
(lp4381
sg7
g8
sg9
S'1.  Existing or remaining within; inherent: believed in a God immanent in humans.  2.  Restricted entirely to the mind; subjective.'
p4382
ssS'Debilitate'
p4383
(dp4384
g3
(lp4385
sg5
(lp4386
sg7
g8
sg9
S'Make weak'
p4387
ssS'apathy'
p4388
(dp4389
g3
(lp4390
sg5
(lp4391
sg7
g15
sg9
S'indifference'
p4392
ssS'variegated'
p4393
(dp4394
g3
(lp4395
sg5
(lp4396
sg7
g15
sg9
S'varied, marked with different colors'
p4397
ssS'mimic'
p4398
(dp4399
g3
(lp4400
sg5
(lp4401
sg7
g8
sg9
S'v. imitate(not mimetic)'
p4402
ssS'forswear'
p4403
(dp4404
g3
(lp4405
sg5
(lp4406
sg7
g15
sg9
S'renounce; repudiate'
p4407
ssS'resolution'
p4408
(dp4409
g3
(lp4410
sg5
(lp4411
sg7
g15
sg9
S'determination, resolve'
p4412
ssS'caste'
p4413
(dp4414
g3
(lp4415
sg5
(lp4416
sg7
g15
sg9
S'any of the hereditary social classes in Hindu society; social stratification'
p4417
ssS'founder'
p4418
(dp4419
g3
(lp4420
(lp4421
S'28/07/2015'
p4422
aF1.7996249198913574
ag3785
aasg5
(lp4423
sg7
g15
sg9
S'to sink; fail; colapse'
p4424
ssS'expatiate'
p4425
(dp4426
g3
(lp4427
sg5
(lp4428
sg7
g15
sg9
S'to speak or write at length'
p4429
ssS'importune'
p4430
(dp4431
g3
(lp4432
sg5
(lp4433
sg7
g8
sg9
S'v. beg'
p4434
ssS'asylum'
p4435
(dp4436
g3
(lp4437
sg5
(lp4438
sg7
g15
sg9
S'place of refuge or shelter'
p4439
ssS'pique'
p4440
(dp4441
g3
(lp4442
sg5
(lp4443
sg7
g15
sg9
S"a feeling of irritation or resentment resulting from a slight, esp. to one's pride"
p4444
ssS'debris'
p4445
(dp4446
g3
(lp4447
sg5
(lp4448
sg7
g8
sg9
S'(n.) The scattered remains of something broken or destroyed; rubble or wreckage'
p4449
ssS'renege'
p4450
(dp4451
g3
(lp4452
sg5
(lp4453
sg7
g15
sg9
S"to go back on one's word"
p4454
ssS'Credulous'
p4455
(dp4456
g3
(lp4457
sg5
(lp4458
sg7
g8
sg9
S'Gullible'
p4459
ssS'homage'
p4460
(dp4461
g3
(lp4462
sg5
(lp4463
sg7
g8
sg9
S'respect; honor tribute'
p4464
ssS'assuage'
p4465
(dp4466
g3
(lp4467
sg5
(lp4468
sg7
g15
sg9
S'to make less severe'
p4469
ssS'extraneous'
p4470
(dp4471
g3
(lp4472
(lp4473
S'28/07/2015'
p4474
aI15
ag419
aasg5
(lp4475
sg7
g15
sg9
S'not essencial'
p4476
ssS'odyssey'
p4477
(dp4478
g3
(lp4479
sg5
(lp4480
(lp4481
S'28/07/2015'
p4482
aF3.3082048892974854
aasg7
g15
sg9
S'a long, adventurous voyage; a quest'
p4483
ssS'foster'
p4484
(dp4485
g3
(lp4486
sg5
(lp4487
sg7
g8
sg9
S'v. allow to grow'
p4488
ssS'fervor'
p4489
(dp4490
g3
(lp4491
sg5
(lp4492
(lp4493
S'28/07/2015'
p4494
aF5.755098819732666
aasg7
g15
sg9
S'warmth and intensity of emotion'
p4495
ssS'immutable'
p4496
(dp4497
g3
(lp4498
sg5
(lp4499
sg7
g15
sg9
S'inchangeable'
p4500
ssS'iconoclastic'
p4501
(dp4502
g3
(lp4503
sg5
(lp4504
sg7
g15
sg9
S'attacking cherished traditions'
p4505
ssS'facetious'
p4506
(dp4507
g3
(lp4508
(lp4509
S'28/07/2015'
p4510
aI15
ag419
aasg5
(lp4511
sg7
g15
sg9
S'treating serious issues with deliberately inappropriate humour; flippant'
p4512
ssS'malinger'
p4513
(dp4514
g3
(lp4515
sg5
(lp4516
sg7
g15
sg9
S'to feign illness to escape duty'
p4517
ssS'dapper'
p4518
(dp4519
g3
(lp4520
sg5
(lp4521
sg7
g8
sg9
S'strikingly neat and trim in style and appearance, natty,sharp,snappy, stilig, prydlig'
p4522
ssS'gainsay'
p4523
(dp4524
g3
(lp4525
sg5
(lp4526
sg7
g15
sg9
S'to deny; dispute; oppose'
p4527
ssS'elated'
p4528
(dp4529
g3
(lp4530
sg5
(lp4531
sg7
g8
sg9
S'very happy'
p4532
ssS'effluvium'
p4533
(dp4534
g3
(lp4535
sg5
(lp4536
sg7
g8
sg9
S'n. unpleasant odor, stench'
p4537
ssS'guileless'
p4538
(dp4539
g3
(lp4540
sg5
(lp4541
sg7
g15
sg9
S'free of cunning or deceit; artless'
p4542
ssS'laud'
p4543
(dp4544
g3
(lp4545
sg5
(lp4546
sg7
g15
sg9
S'praise'
p4547
ssS'harry'
p4548
(dp4549
g3
(lp4550
sg5
(lp4551
sg7
g8
sg9
S'(v.) To disturb or distress by repeated attacks; harass'
p4552
ssS'vanquish'
p4553
(dp4554
g3
(lp4555
sg5
(lp4556
sg7
g8
sg9
S'(v.) To defeat in a battle; To overcome an enemy or opponent'
p4557
ssS'abridge'
p4558
(dp4559
g3
(lp4560
sg5
(lp4561
sg7
g8
sg9
S'v. make shorter'
p4562
ssS'preposterous'
p4563
(dp4564
g3
(lp4565
sg5
(lp4566
sg7
g8
sg9
S'adj. ridiculous, silly'
p4567
ssS'synergy'
p4568
(dp4569
g3
(lp4570
sg5
(lp4571
sg7
g8
sg9
S'1+1 bigger than 2'
p4572
ssS'burnish'
p4573
(dp4574
g3
(lp4575
(lp4576
S'28/07/2015'
p4577
aI15
ag419
aa(lp4578
S'28/07/2015'
p4579
aF5.780527830123901
ag4377
aasg5
(lp4580
(lp4581
S'28/07/2015'
p4582
aF2.690709114074707
aasg7
g15
sg9
S'to polish'
p4583
ssS'vivacious'
p4584
(dp4585
g3
(lp4586
sg5
(lp4587
sg7
g8
sg9
S'lively'
p4588
ssS'query'
p4589
(dp4590
g3
(lp4591
sg5
(lp4592
sg7
g15
sg9
S'question'
p4593
ssS'canvass'
p4594
(dp4595
g3
(lp4596
sg5
(lp4597
sg7
g8
sg9
S'(v.) To solicit votes, subscriptions, opinions, or the like from; To examine carefully or discuss thoroughly'
p4598
ssS'exodus'
p4599
(dp4600
g3
(lp4601
sg5
(lp4602
sg7
g8
sg9
S'(n.) a large scale departure or flight'
p4603
ssS'affable'
p4604
(dp4605
g3
(lp4606
sg5
(lp4607
sg7
g8
sg9
S'easy to approach, friendly'
p4608
ssS'skeptic'
p4609
(dp4610
g3
(lp4611
sg5
(lp4612
sg7
g15
sg9
S'one who doubts'
p4613
ssS'forestall'
p4614
(dp4615
g3
(lp4616
sg5
(lp4617
sg7
g15
sg9
S'to prevent; delay'
p4618
ssS'eminent'
p4619
(dp4620
g3
(lp4621
sg5
(lp4622
sg7
g8
sg9
S'distinguished'
p4623
ssS'succinct'
p4624
(dp4625
g3
(lp4626
sg5
(lp4627
sg7
g8
sg9
S'adj. short and precise;concise;laconic; pithy'
p4628
ssS'tribute'
p4629
(dp4630
g3
(lp4631
sg5
(lp4632
sg7
g8
sg9
S'homage'
p4633
ssS'turmoil'
p4634
(dp4635
g3
(lp4636
sg5
(lp4637
sg7
g8
sg9
S'n. a turbulent scenario'
p4638
ssS'sentient'
p4639
(dp4640
g3
(lp4641
sg5
(lp4642
sg7
g15
sg9
S'aware, concious, able to perceive'
p4643
ssS'mendacious'
p4644
(dp4645
g3
(lp4646
sg5
(lp4647
sg7
g15
sg9
S'dishonest'
p4648
ssS'Disengage'
p4649
(dp4650
g3
(lp4651
sg5
(lp4652
sg7
g8
sg9
S'Separate'
p4653
ssS'Squelch'
p4654
(dp4655
g3
(lp4656
sg5
(lp4657
sg7
g8
sg9
S'squash'
p4658
ssS'epitome'
p4659
(dp4660
g3
(lp4661
sg5
(lp4662
sg7
g8
sg9
S'a summary, condensed account; an instance that represents a larger reality'
p4663
ssS'Caprice'
p4664
(dp4665
g3
(lp4666
sg5
(lp4667
sg7
g8
sg9
S'Sudden, unexpected fancy; whim'
p4668
ssS'Seclude'
p4669
(dp4670
g3
(lp4671
sg5
(lp4672
sg7
g8
sg9
S'Withdraw into solitude'
p4673
ssS'piquant'
p4674
(dp4675
g3
(lp4676
sg5
(lp4677
sg7
g15
sg9
S'pleasantly pungent; attractive'
p4678
ssS'scurry'
p4679
(dp4680
g3
(lp4681
sg5
(lp4682
sg7
g8
sg9
S'(v.) To move about or proceed hurriedly, scamper, to run quickly, dash or scramble'
p4683
ssS'riposte'
p4684
(dp4685
g3
(lp4686
sg5
(lp4687
sg7
g15
sg9
S'a quick clever reply to an insult or criticism'
p4688
ssS'cessation'
p4689
(dp4690
g3
(lp4691
sg5
(lp4692
sg7
g8
sg9
S'n. end, halt'
p4693
ssS'raze'
p4694
(dp4695
g3
(lp4696
sg5
(lp4697
sg7
g8
sg9
S'v. to tear down;obliterate'
p4698
ssS'pathological'
p4699
(dp4700
g3
(lp4701
sg5
(lp4702
sg7
g15
sg9
S'departing from normal condition'
p4703
ssS'vaporizer'
p4704
(dp4705
g3
(lp4706
sg5
(lp4707
sg7
g8
sg9
S'n. device for creating vapor'
p4708
ssS'whimsical'
p4709
(dp4710
g3
(lp4711
sg5
(lp4712
(lp4713
S'28/07/2015'
p4714
aF5.7450408935546875
aasg7
g15
sg9
S'fanciful, unpredictable'
p4715
ssS'verbose'
p4716
(dp4717
g3
(lp4718
sg5
(lp4719
sg7
g15
sg9
S'wordy'
p4720
ssS'Chide'
p4721
(dp4722
g3
(lp4723
sg5
(lp4724
sg7
g8
sg9
S'To scold or rebuke; to express disapproval of.'
p4725
ssS'snub'
p4726
(dp4727
g3
(lp4728
sg5
(lp4729
sg7
g8
sg9
S'treat coldly, scornfully, or with contempt; cold treatment'
p4730
ssS'sanction'
p4731
(dp4732
g3
(lp4733
sg5
(lp4734
sg7
g15
sg9
S'to approve, ratify, permit'
p4735
ssS'aberrant'
p4736
(dp4737
g3
(lp4738
sg5
(lp4739
(lp4740
S'28/07/2015'
p4741
aF3.686107873916626
aasg7
g15
sg9
S'deviating from what is normal'
p4742
ssS'libertine'
p4743
(dp4744
g3
(lp4745
sg5
(lp4746
(lp4747
S'28/07/2015'
p4748
aF3.5024359226226807
aasg7
g15
sg9
S'one without moral restraint'
p4749
ssS'zenith'
p4750
(dp4751
g3
(lp4752
sg5
(lp4753
sg7
g8
sg9
S'peak, highest point (z...)'
p4754
ssS'composure'
p4755
(dp4756
g3
(lp4757
sg5
(lp4758
sg7
g8
sg9
S'extreme calm and confidence'
p4759
ssS'codify'
p4760
(dp4761
g3
(lp4762
sg5
(lp4763
sg7
g15
sg9
S'to systematize'
p4764
ssS'anathema'
p4765
(dp4766
g3
(lp4767
sg5
(lp4768
sg7
g8
sg9
S'something despised or under a curse'
p4769
ssS'rustic'
p4770
(dp4771
g3
(lp4772
sg5
(lp4773
sg7
g8
sg9
S'(n.) An unsophisticated country person; (adj.) Characteristic of dwelling in the country'
p4774
ssS'hegemony'
p4775
(dp4776
g3
(lp4777
sg5
(lp4778
sg7
g8
sg9
S'n. dominance of a leader or nation over its subjects'
p4779
ssS'exigency'
p4780
(dp4781
g3
(lp4782
sg5
(lp4783
sg7
g15
sg9
S'crisis; urgent requirements'
p4784
ssS'brisk'
p4785
(dp4786
g3
(lp4787
sg5
(lp4788
sg7
g8
sg9
S'active, fast, and energetic.(kinetic,frisky'
p4789
ssS'flag'
p4790
(dp4791
g3
(lp4792
sg5
(lp4793
sg7
g15
sg9
S'to droop; grow weak'
p4794
ssS'grisly'
p4795
(dp4796
g3
(lp4797
sg5
(lp4798
sg7
g8
sg9
S'gory'
p4799
ssS'dubious'
p4800
(dp4801
g3
(lp4802
sg5
(lp4803
sg7
g8
sg9
S'doubtful'
p4804
ssS'Raffish/rakish'
p4805
(dp4806
g3
(lp4807
sg5
(lp4808
sg7
g8
sg9
S'Cheaply or showily vulgar in appearance or nature; tawdry. (ostentatious)'
p4809
ssS'cunning'
p4810
(dp4811
g3
(lp4812
sg5
(lp4813
sg7
g8
sg9
S'to be wily, having street smarts'
p4814
ssS'gauche'
p4815
(dp4816
g3
(lp4817
sg5
(lp4818
sg7
g15
sg9
S'coarse and uncouth; clumsy'
p4819
ssS'centrifugal'
p4820
(dp4821
g3
(lp4822
sg5
(lp4823
sg7
g15
sg9
S'moving away from a center'
p4824
ssS'forbearance'
p4825
(dp4826
g3
(lp4827
sg5
(lp4828
sg7
g15
sg9
S'patience'
p4829
ssS'caveat'
p4830
(dp4831
g3
(lp4832
sg5
(lp4833
sg7
g8
sg9
S'a warning or caution'
p4834
ssS'aspirant'
p4835
(dp4836
g3
(lp4837
sg5
(lp4838
sg7
g8
sg9
S'adj. having specific ambitions'
p4839
ssS'excursion'
p4840
(dp4841
g3
(lp4842
sg5
(lp4843
sg7
g8
sg9
S'n. trip'
p4844
ssS'atrocious'
p4845
(dp4846
g3
(lp4847
sg5
(lp4848
sg7
g8
sg9
S'adj. extremely bad'
p4849
ssS'visage'
p4850
(dp4851
g3
(lp4852
sg5
(lp4853
sg7
g15
sg9
S'appearance, aspect'
p4854
ssS'buttress'
p4855
(dp4856
g3
(lp4857
sg5
(lp4858
sg7
g15
sg9
S'to reinforce; support'
p4859
ssS'shard'
p4860
(dp4861
g3
(lp4862
sg5
(lp4863
sg7
g15
sg9
S'a piece of broken glass or pottery'
p4864
ssS'coerce'
p4865
(dp4866
g3
(lp4867
sg5
(lp4868
sg7
g8
sg9
S'to force someone by threatening or physically empowering him'
p4869
ssS'metamorphosis'
p4870
(dp4871
g3
(lp4872
sg5
(lp4873
(lp4874
S'28/07/2015'
p4875
aF7.548985004425049
aasg7
g15
sg9
S'change; transformation'
p4876
ssS'terrestrial'
p4877
(dp4878
g3
(lp4879
sg5
(lp4880
(lp4881
S'28/07/2015'
p4882
aF3.852186918258667
aasg7
g15
sg9
S'earthly, commonplace'
p4883
ssS'goad'
p4884
(dp4885
g3
(lp4886
sg5
(lp4887
sg7
g15
sg9
S'to prod; urge on'
p4888
ssS'rapport'
p4889
(dp4890
g3
(lp4891
sg5
(lp4892
sg7
g8
sg9
S'n. relationship with good communication'
p4893
ssS'redoubtable'
p4894
(dp4895
g3
(lp4896
sg5
(lp4897
sg7
g15
sg9
S'formidable, arousing fear'
p4898
ssS'emollient'
p4899
(dp4900
g3
(lp4901
sg5
(lp4902
sg7
g15
sg9
S'soothing; mollifying'
p4903
ssS'bawdy'
p4904
(dp4905
g3
(lp4906
(lp4907
S'28/07/2015'
p4908
aF19.923799991607666
aS'No idea'
p4909
aasg5
(lp4910
sg7
g15
sg9
S'obscene'
p4911
ssS'Knack'
p4912
(dp4913
g3
(lp4914
sg5
(lp4915
sg7
g8
sg9
S'Ability or talent'
p4916
ssS'ensemble'
p4917
(dp4918
g3
(lp4919
sg5
(lp4920
sg7
g8
sg9
S'a group of performers'
p4921
ssS'abdicate'
p4922
(dp4923
g3
(lp4924
sg5
(lp4925
sg7
g15
sg9
S'to give up a position, right, or power'
p4926
ssS'emulate'
p4927
(dp4928
g3
(lp4929
sg5
(lp4930
sg7
g15
sg9
S'to imitate; copy'
p4931
ssS'replete'
p4932
(dp4933
g3
(lp4934
sg5
(lp4935
sg7
g8
sg9
S'full; satiate; sated; stuffed; surfeited'
p4936
ssS'obstreperous'
p4937
(dp4938
g3
(lp4939
sg5
(lp4940
sg7
g8
sg9
S'unruly; defiant; boisterous'
p4941
ssS'deluge'
p4942
(dp4943
g3
(lp4944
sg5
(lp4945
sg7
g8
sg9
S'n. downpour; flood of something'
p4946
ssS'meticulous'
p4947
(dp4948
g3
(lp4949
sg5
(lp4950
sg7
g15
sg9
S'very careful; picky; fastidious'
p4951
ssS'denude'
p4952
(dp4953
g3
(lp4954
sg5
(lp4955
sg7
g8
sg9
S'v. make bare'
p4956
ssS'blunder'
p4957
(dp4958
g3
(lp4959
sg5
(lp4960
sg7
g8
sg9
S'misstag, groda'
p4961
ssS'extrapolation'
p4962
(dp4963
g3
(lp4964
(lp4965
S'28/07/2015'
p4966
aI15
ag419
aasg5
(lp4967
sg7
g15
sg9
S'the act of estimation by projecting known information'
p4968
ssS'curmudgeon'
p4969
(dp4970
g3
(lp4971
sg5
(lp4972
sg7
g8
sg9
S'a person who is mean or miserly; a person who is grumpy, irritable or cantankerous'
p4973
ssS'retaliate'
p4974
(dp4975
g3
(lp4976
sg5
(lp4977
sg7
g8
sg9
S'v. repay evil with a similar evil, to pay back in kind'
p4978
ssS'anachronism'
p4979
(dp4980
g3
(lp4981
sg5
(lp4982
sg7
g15
sg9
S'something out of the proper time'
p4983
ssS'magnanimity'
p4984
(dp4985
g3
(lp4986
sg5
(lp4987
sg7
g15
sg9
S'generosity; nobility'
p4988
ssS'taxonomy'
p4989
(dp4990
g3
(lp4991
sg5
(lp4992
sg7
g15
sg9
S'science of classification'
p4993
ssS'oblique'
p4994
(dp4995
g3
(lp4996
sg5
(lp4997
sg7
g8
sg9
S'neither parallel nor at a right angle to a specified or implied line; slanting.'
p4998
ssS'nugatory'
p4999
(dp5000
g3
(lp5001
sg5
(lp5002
(lp5003
S'28/07/2015'
p5004
aF5.447319984436035
aasg7
g15
sg9
S'trifling; invalid'
p5005
ssS'Reciprocate'
p5006
(dp5007
g3
(lp5008
sg5
(lp5009
sg7
g8
sg9
S'Repay or respond in similar manner; respond to kindness'
p5010
ssS'dawdle'
p5011
(dp5012
g3
(lp5013
sg5
(lp5014
sg7
g8
sg9
S'to waste time, to loiter'
p5015
ssS'discrepancy'
p5016
(dp5017
g3
(lp5018
sg5
(lp5019
sg7
g15
sg9
S'difference between'
p5020
ssS'prevaricate'
p5021
(dp5022
g3
(lp5023
(lp5024
S'28/07/2015'
p5025
aI15
ag419
aasg5
(lp5026
sg7
g15
sg9
g2664
ssS'emaciated'
p5027
(dp5028
g3
(lp5029
sg5
(lp5030
(lp5031
S'28/07/2015'
p5032
aF2.8412959575653076
aasg7
g15
sg9
S'thin and wasted'
p5033
ssS'ethnocentric'
p5034
(dp5035
g3
(lp5036
sg5
(lp5037
sg7
g15
sg9
S"based on the attitude tha one's group is superior"
p5038
ssS'stricture'
p5039
(dp5040
g3
(lp5041
sg5
(lp5042
sg7
g15
sg9
S'something that restrains, negative criticism'
p5043
ssS'perturb'
p5044
(dp5045
g3
(lp5046
sg5
(lp5047
sg7
g15
sg9
S'to disturb greatly; make uneasy or anxious'
p5048
ssS'dross'
p5049
(dp5050
g3
(lp5051
sg5
(lp5052
sg7
g15
sg9
S'waste; worthless matter'
p5053
ssS'censorious'
p5054
(dp5055
g3
(lp5056
sg5
(lp5057
sg7
g8
sg9
S'severely critical'
p5058
ssS'clamor'
p5059
(dp5060
g3
(lp5061
sg5
(lp5062
sg7
g15
sg9
S'noisy outcry'
p5063
ssS'tempestuous'
p5064
(dp5065
g3
(lp5066
sg5
(lp5067
sg7
g8
sg9
S'adj. stormy'
p5068
ssS'motley'
p5069
(dp5070
g3
(lp5071
(lp5072
S'28/07/2015'
p5073
aI15
ag419
aasg5
(lp5074
sg7
g15
sg9
S'many colored; made up of many parts'
p5075
ssS'eulogy'
p5076
(dp5077
g3
(lp5078
sg5
(lp5079
sg7
g15
sg9
S'a tribute to someone who has just died'
p5080
ssS'coeval'
p5081
(dp5082
g3
(lp5083
sg5
(lp5084
sg7
g8
sg9
S'n. a person of nearly the same age as another'
p5085
ssS'neophyte'
p5086
(dp5087
g3
(lp5088
sg5
(lp5089
sg7
g15
sg9
S'novice; beginner'
p5090
ssS'misogynist'
p5091
(dp5092
g3
(lp5093
sg5
(lp5094
(lp5095
S'28/07/2015'
p5096
aF2.6513261795043945
aasg7
g15
sg9
S'one who hates women'
p5097
ssS'inception'
p5098
(dp5099
g3
(lp5100
sg5
(lp5101
sg7
g8
sg9
S'beginning, birth (i...)'
p5102
ssS'reticent'
p5103
(dp5104
g3
(lp5105
sg5
(lp5106
sg7
g15
sg9
S'nor speaking freely, reserved, reluctant'
p5107
ssS'Polemic'
p5108
(dp5109
g3
(lp5110
sg5
(lp5111
sg7
g8
sg9
S'Controversial argument against a controversial issue; iconoclastic'
p5112
ssS'debacle'
p5113
(dp5114
g3
(lp5115
sg5
(lp5116
sg7
g8
sg9
S'sudden downfall; complete disaster'
p5117
ssS'grandeur'
p5118
(dp5119
g3
(lp5120
sg5
(lp5121
sg7
g8
sg9
S'impressiveness; stateliness; majesty'
p5122
ssS'inherent'
p5123
(dp5124
g3
(lp5125
sg5
(lp5126
sg7
g15
sg9
S'firmly established by nature or habit'
p5127
ssS'dichotomy'
p5128
(dp5129
g3
(lp5130
(lp5131
S'28/07/2015'
p5132
aI15
ag419
aasg5
(lp5133
sg7
g15
sg9
S'division into two usually contradictory parts'
p5134
ssS'sartorial'
p5135
(dp5136
g3
(lp5137
sg5
(lp5138
sg7
g15
sg9
S'pertaining to tailors'
p5139
ssS'contiguous'
p5140
(dp5141
g3
(lp5142
sg5
(lp5143
sg7
g15
sg9
S'touching; neighboring; connecting without a break'
p5144
ssS'beneficent'
p5145
(dp5146
g3
(lp5147
sg5
(lp5148
sg7
g15
sg9
S'kindly; doing good'
p5149
ssS'exorbitant'
p5150
(dp5151
g3
(lp5152
sg5
(lp5153
sg7
g8
sg9
S'exceeding all bounds'
p5154
ssS'deride'
p5155
(dp5156
g3
(lp5157
sg5
(lp5158
sg7
g15
sg9
S'to mock'
p5159
ssS'talisman'
p5160
(dp5161
g3
(lp5162
sg5
(lp5163
sg7
g15
sg9
S'charm to bring good luck and avert misfortune'
p5164
ssS'anarchy'
p5165
(dp5166
g3
(lp5167
sg5
(lp5168
sg7
g15
sg9
S'absence of government; state of disorder'
p5169
ssS'gullible'
p5170
(dp5171
g3
(lp5172
sg5
(lp5173
sg7
g15
sg9
S'easily deceived'
p5174
ssS'vertigo'
p5175
(dp5176
g3
(lp5177
sg5
(lp5178
sg7
g15
sg9
S'dizziness'
p5179
ssS'effete'
p5180
(dp5181
g3
(lp5182
sg5
(lp5183
sg7
g15
sg9
S'depleted of vitality; overrefined; decadent'
p5184
ssS'presumptuous'
p5185
(dp5186
g3
(lp5187
sg5
(lp5188
sg7
g15
sg9
S'rude; improperly bold'
p5189
ssS'vitiate'
p5190
(dp5191
g3
(lp5192
sg5
(lp5193
sg7
g15
sg9
S'to impair the quality of, corrupt morally'
p5194
ssS'congenial'
p5195
(dp5196
g3
(lp5197
sg5
(lp5198
(lp5199
S'28/07/2015'
p5200
aF13.156378030776978
aasg7
g15
sg9
S'similar in tastes and habits; friendly; suited to'
p5201
ssS'proscribe'
p5202
(dp5203
g3
(lp5204
sg5
(lp5205
(lp5206
S'28/07/2015'
p5207
aF6.142920017242432
aasg7
g15
sg9
S'to condemn, forbid, outlaw'
p5208
ssS'Clasp'
p5209
(dp5210
g3
(lp5211
sg5
(lp5212
sg7
g8
sg9
S'Fastening device; firm grip'
p5213
ssS'Serpentine'
p5214
(dp5215
g3
(lp5216
sg5
(lp5217
sg7
g8
sg9
S'Winding; twisting'
p5218
ssS'meteoric'
p5219
(dp5220
g3
(lp5221
sg5
(lp5222
sg7
g8
sg9
S'(adj.) Very fast and bright; Fleeting and spectacular'
p5223
ssS'solvent'
p5224
(dp5225
g3
(lp5226
sg5
(lp5227
sg7
g15
sg9
S'able to meet financial obligations'
p5228
ssS'inert'
p5229
(dp5230
g3
(lp5231
sg5
(lp5232
sg7
g15
sg9
S'unable to move; sluggish'
p5233
ssS'Contagion'
p5234
(dp5235
g3
(lp5236
sg5
(lp5237
sg7
g8
sg9
S'Infection'
p5238
ssS'platitude'
p5239
(dp5240
g3
(lp5241
sg5
(lp5242
sg7
g15
sg9
S'stale; overused expression'
p5243
ssS'ponderous'
p5244
(dp5245
g3
(lp5246
sg5
(lp5247
sg7
g8
sg9
S'adj. unusually weighty or forcible, massive, unwieldy'
p5248
ssS'foible'
p5249
(dp5250
g3
(lp5251
sg5
(lp5252
sg7
g8
sg9
S'(n.) physically or mentally weak(feeble)'
p5253
ssS'paucity'
p5254
(dp5255
g3
(lp5256
sg5
(lp5257
sg7
g15
sg9
S'scarcity'
p5258
ssS'dire'
p5259
(dp5260
g3
(lp5261
sg5
(lp5262
sg7
g8
sg9
S'very bad'
p5263
ssS'clique'
p5264
(dp5265
g3
(lp5266
sg5
(lp5267
sg7
g15
sg9
S'a small, exclusive group'
p5268
ssS'desiccate'
p5269
(dp5270
g3
(lp5271
sg5
(lp5272
(lp5273
S'28/07/2015'
p5274
aF9.761622905731201
aasg7
g15
sg9
S'to dry completely'
p5275
ssS'reproach'
p5276
(dp5277
g3
(lp5278
sg5
(lp5279
sg7
g15
sg9
S'to find fault with, blame'
p5280
ssS'fiat'
p5281
(dp5282
g3
(lp5283
sg5
(lp5284
sg7
g15
sg9
S'an arbitrary order, a formal authorization or proposition'
p5285
ssS'indulgent'
p5286
(dp5287
g3
(lp5288
sg5
(lp5289
sg7
g8
sg9
S'adj. yielding to the wishes or demands of others'
p5290
ssS'existential'
p5291
(dp5292
g3
(lp5293
sg5
(lp5294
sg7
g15
sg9
S'having to do with existence'
p5295
ssS'euphemism'
p5296
(dp5297
g3
(lp5298
sg5
(lp5299
sg7
g15
sg9
S'use of agreeable or inoffensive language in place of offensive language'
p5300
ssS'purport'
p5301
(dp5302
g3
(lp5303
sg5
(lp5304
sg7
g15
sg9
S'to profess, suppose, claim'
p5305
ssS'unfeigned'
p5306
(dp5307
g3
(lp5308
sg5
(lp5309
sg7
g15
sg9
S'not false, genuine'
p5310
ssS'mimetic'
p5311
(dp5312
g3
(lp5313
sg5
(lp5314
sg7
g8
sg9
S'adj. pertaining to imitation or mimicry(not mimic): A person who mimic'
p5315
ssS'ethereal'
p5316
(dp5317
g3
(lp5318
sg5
(lp5319
sg7
g8
sg9
S'(adj.) light, airy, delicate; highly refined; suggesting what is heavenly'
p5320
ssS'bland'
p5321
(dp5322
g3
(lp5323
sg5
(lp5324
sg7
g8
sg9
S'not stimulating; dull'
p5325
ssS'scathing'
p5326
(dp5327
g3
(lp5328
sg5
(lp5329
sg7
g8
sg9
S'adj. very critical ; witheringly scornful; severely critical'
p5330
ssS'ostracize'
p5331
(dp5332
g3
(lp5333
sg5
(lp5334
sg7
g8
sg9
S'v. exclude from society'
p5335
ssS'probity'
p5336
(dp5337
g3
(lp5338
sg5
(lp5339
sg7
g15
sg9
S'honesty; high-mindedness'
p5340
ssS'litany'
p5341
(dp5342
g3
(lp5343
sg5
(lp5344
sg7
g15
sg9
S'lengthy recitation; repetitive chant'
p5345
ssS'hallowed'
p5346
(dp5347
g3
(lp5348
sg5
(lp5349
(lp5350
S'28/07/2015'
p5351
aF10.259778022766113
aasg7
g15
sg9
S'holy; sacred'
p5352
ssS'zealot'
p5353
(dp5354
g3
(lp5355
sg5
(lp5356
sg7
g15
sg9
S'one who is fanatically devoted to a cause'
p5357
ssS'aver'
p5358
(dp5359
g3
(lp5360
sg5
(lp5361
sg7
g15
sg9
S'to affirm; declare to be true'
p5362
ssS'travail'
p5363
(dp5364
g3
(lp5365
sg5
(lp5366
(lp5367
S'28/07/2015'
p5368
aF4.3907630443573
aasg7
g15
sg9
S'work, especially arduous work'
p5369
ssS'dissemble'
p5370
(dp5371
g3
(lp5372
sg5
(lp5373
sg7
g15
sg9
S"to pretend; disguise one's motives"
p5374
ssS'megalomania'
p5375
(dp5376
g3
(lp5377
sg5
(lp5378
(lp5379
S'28/07/2015'
p5380
aF3.9630560874938965
aasg7
g15
sg9
S'delusions of power or importance'
p5381
ssS'stifle'
p5382
(dp5383
g3
(lp5384
sg5
(lp5385
sg7
g8
sg9
S'make (someone) unable to breathe properly; suffocate'
p5386
ssS'oscillate'
p5387
(dp5388
g3
(lp5389
sg5
(lp5390
sg7
g15
sg9
S'to move back and forth'
p5391
ssS'testy'
p5392
(dp5393
g3
(lp5394
sg5
(lp5395
sg7
g8
sg9
S'easily irritated; characterized by impatience and exasperation'
p5396
ssS'obfuscate'
p5397
(dp5398
g3
(lp5399
sg5
(lp5400
sg7
g8
sg9
S'v. confuse'
p5401
ssS'dank'
p5402
(dp5403
g3
(lp5404
sg5
(lp5405
sg7
g8
sg9
S'damp'
p5406
ssS'uncanny'
p5407
(dp5408
g3
(lp5409
sg5
(lp5410
sg7
g15
sg9
S'myterious, strange'
p5411
ssS'sedate'
p5412
(dp5413
g3
(lp5414
sg5
(lp5415
sg7
g8
sg9
S'adj. calm;serene'
p5416
ssS'Recidivism'
p5417
(dp5418
g3
(lp5419
sg5
(lp5420
sg7
g8
sg9
S'Habitual return to crime'
p5421
ssS'Languor'
p5422
(dp5423
g3
(lp5424
sg5
(lp5425
sg7
g8
sg9
S'Lassitude; depression'
p5426
ssS'garble'
p5427
(dp5428
g3
(lp5429
sg5
(lp5430
sg7
g8
sg9
S'(v.) to distort in such a way as to make something unintelligible'
p5431
ssS'swerve'
p5432
(dp5433
g3
(lp5434
sg5
(lp5435
sg7
g8
sg9
S'(n.) A sudden turn; (v.) To turn sharply, to change direction suddenly'
p5436
ssS'desuetude'
p5437
(dp5438
g3
(lp5439
(lp5440
S'28/07/2015'
p5441
aI15
ag419
aasg5
(lp5442
sg7
g15
sg9
S'state of disuse'
p5443
ssS'shrewd'
p5444
(dp5445
g3
(lp5446
sg5
(lp5447
sg7
g8
sg9
S'clever, astute or sharp in practical manners'
p5448
ssS'cognizant'
p5449
(dp5450
g3
(lp5451
sg5
(lp5452
sg7
g15
sg9
S'informed; conscious; aware'
p5453
ssS'gall'
p5454
(dp5455
g3
(lp5456
sg5
(lp5457
sg7
g8
sg9
S'audacity'
p5458
ssS'mawkish'
p5459
(dp5460
g3
(lp5461
sg5
(lp5462
sg7
g8
sg9
S'nauseatingly sentimental'
p5463
ssS'sensual'
p5464
(dp5465
g3
(lp5466
sg5
(lp5467
sg7
g15
sg9
S'relating to the senses, gratifying the physical (sexual) senses'
p5468
ssS'boorish'
p5469
(dp5470
g3
(lp5471
sg5
(lp5472
sg7
g15
sg9
S'rude; insensitive'
p5473
ssS'evasion'
p5474
(dp5475
g3
(lp5476
sg5
(lp5477
sg7
g8
sg9
S'n. the act of avoiding someone. slippery, fugitive'
p5478
ssS'refute'
p5479
(dp5480
g3
(lp5481
sg5
(lp5482
sg7
g15
sg9
S'to contradict, disprove'
p5483
ssS'tarnish'
p5484
(dp5485
g3
(lp5486
sg5
(lp5487
sg7
g8
sg9
S'stain'
p5488
ssS'jeopardize'
p5489
(dp5490
g3
(lp5491
sg5
(lp5492
sg7
g8
sg9
S'v. put in danger'
p5493
ssS'commotion'
p5494
(dp5495
g3
(lp5496
sg5
(lp5497
sg7
g8
sg9
S'n. state of confused disturbance'
p5498
ssS'Sequester'
p5499
(dp5500
g3
(lp5501
sg5
(lp5502
sg7
g8
sg9
S'Isolate; retire from public life; seclude'
p5503
ssS'recondite'
p5504
(dp5505
g3
(lp5506
sg5
(lp5507
sg7
g15
sg9
S'abstruse, profound'
p5508
ssS'Eleemosynary'
p5509
(dp5510
g3
(lp5511
sg5
(lp5512
sg7
g8
sg9
S'charitable, philanthropic, beneficent'
p5513
ssS'serene'
p5514
(dp5515
g3
(lp5516
sg5
(lp5517
sg7
g8
sg9
S'adj. calm;sedate'
p5518
ssS'alleviate'
p5519
(dp5520
g3
(lp5521
sg5
(lp5522
sg7
g15
sg9
S'to relieve; improve partially'
p5523
ssS'fresco'
p5524
(dp5525
g3
(lp5526
sg5
(lp5527
sg7
g15
sg9
S'a painting done on plaster'
p5528
ssS'tryst'
p5529
(dp5530
g3
(lp5531
sg5
(lp5532
sg7
g15
sg9
S'agreement between lovest to meet, rendez-vous'
p5533
ssS'confluence'
p5534
(dp5535
g3
(lp5536
sg5
(lp5537
sg7
g8
sg9
S'the flowing together of several things or ideas'
p5538
ssS'bridle'
p5539
(dp5540
g3
(lp5541
sg5
(lp5542
sg7
g8
sg9
S'to restrain'
p5543
ssS'gregarious'
p5544
(dp5545
g3
(lp5546
sg5
(lp5547
sg7
g15
sg9
S'outgoing; sociable'
p5548
ssS'apposite'
p5549
(dp5550
g3
(lp5551
(lp5552
S'28/07/2015'
p5553
aI15
ag419
aasg5
(lp5554
sg7
g15
sg9
S'strikingly appropriate and relevant'
p5555
ssS'saturate'
p5556
(dp5557
g3
(lp5558
sg5
(lp5559
sg7
g15
sg9
S'imbue througout, soak thoroughly'
p5560
ssS'panegyric'
p5561
(dp5562
g3
(lp5563
sg5
(lp5564
sg7
g15
sg9
S'elaborate praise; formal hymn of praise'
p5565
ssS'Clout'
p5566
(dp5567
g3
(lp5568
sg5
(lp5569
sg7
g8
sg9
S'Great influence'
p5570
ssS'succor'
p5571
(dp5572
g3
(lp5573
sg5
(lp5574
sg7
g15
sg9
S'relief, help in time of distress or want'
p5575
ssS'barren'
p5576
(dp5577
g3
(lp5578
sg5
(lp5579
sg7
g8
sg9
S'(adj.) Vast emptiness without life'
p5580
ssS'Tenable'
p5581
(dp5582
g3
(lp5583
sg5
(lp5584
sg7
g8
sg9
S'Capable of being held or used; capable of being defended against an attack or objection.'
p5585
ssS'parsimonious'
p5586
(dp5587
g3
(lp5588
sg5
(lp5589
sg7
g8
sg9
S'adj. unwilling to spend money'
p5590
ssS'despise'
p5591
(dp5592
g3
(lp5593
sg5
(lp5594
sg7
g8
sg9
S'abhor,abominate, detest,execrate,loathe, disregard,flout,regard with loathing or contempt'
p5595
ssS'ennoble'
p5596
(dp5597
g3
(lp5598
sg5
(lp5599
sg7
g8
sg9
S'v. make into a lord'
p5600
ssS'barter'
p5601
(dp5602
g3
(lp5603
sg5
(lp5604
sg7
g8
sg9
S'(n.) an exchange in trade; (v.) to exchange goods'
p5605
ssS'tenet'
p5606
(dp5607
g3
(lp5608
sg5
(lp5609
sg7
g15
sg9
S'belief, doctrine'
p5610
ssS'exacerbate'
p5611
(dp5612
g3
(lp5613
sg5
(lp5614
sg7
g15
sg9
S'to aggravate; make worse'
p5615
ssS'friable'
p5616
(dp5617
g3
(lp5618
sg5
(lp5619
sg7
g8
sg9
S'Easily crumbled: "the soil was friable between her fingers".'
p5620
ssS'aggravate'
p5621
(dp5622
g3
(lp5623
sg5
(lp5624
sg7
g8
sg9
S'v. make angry'
p5625
ssS'grotesque'
p5626
(dp5627
g3
(lp5628
sg5
(lp5629
sg7
g8
sg9
S'adj. deliberately ugly'
p5630
ssS'herbivorous'
p5631
(dp5632
g3
(lp5633
sg5
(lp5634
(lp5635
S'28/07/2015'
p5636
aF2.038672924041748
aasg7
g15
sg9
S'an animal that feeds mainly on plants'
p5637
ssS'nonchalance'
p5638
(dp5639
g3
(lp5640
sg5
(lp5641
sg7
g8
sg9
S'n. carefree outlook'
p5642
ssS'grandiloquent'
p5643
(dp5644
g3
(lp5645
(lp5646
S'28/07/2015'
p5647
aI15
ag419
aasg5
(lp5648
sg7
g15
sg9
S'pompous; bombastic'
p5649
ssS'convoluted'
p5650
(dp5651
g3
(lp5652
sg5
(lp5653
sg7
g15
sg9
S'twisted; complicated'
p5654
ssS'intractable'
p5655
(dp5656
g3
(lp5657
sg5
(lp5658
sg7
g15
sg9
S'not easily managed'
p5659
ssS'cantankerous'
p5660
(dp5661
g3
(lp5662
sg5
(lp5663
sg7
g15
sg9
S'irritable; ill-humored'
p5664
ssS'spurious'
p5665
(dp5666
g3
(lp5667
sg5
(lp5668
sg7
g8
sg9
S'false; counterfeit'
p5669
ssS'Turpitude'
p5670
(dp5671
g3
(lp5672
sg5
(lp5673
sg7
g8
sg9
S'Depravity'
p5674
ssS'strut'
p5675
(dp5676
g3
(lp5677
sg5
(lp5678
sg7
g15
sg9
S'to swagger, display to impress others'
p5679
ssS'pristine'
p5680
(dp5681
g3
(lp5682
sg5
(lp5683
sg7
g15
sg9
S'untouched; uncorrupted'
p5684
ssS'avarice'
p5685
(dp5686
g3
(lp5687
(lp5688
S'28/07/2015'
p5689
aI15
ag419
aasg5
(lp5690
sg7
g15
sg9
S'greed'
p5691
ssS'interminable'
p5692
(dp5693
g3
(lp5694
sg5
(lp5695
sg7
g8
sg9
S'having no end'
p5696
ssS'resolve'
p5697
(dp5698
g3
(lp5699
sg5
(lp5700
sg7
g15
sg9
S'determination, firmness of purpose'
p5701
ssS'chasten'
p5702
(dp5703
g3
(lp5704
sg5
(lp5705
sg7
g15
sg9
S'to correct by punishment or reproof; to restrain or subdue'
p5706
ssS'baroque'
p5707
(dp5708
g3
(lp5709
sg5
(lp5710
sg7
g8
sg9
S'extravagantly ornate, florid, and convoluted in character or style'
p5711
ssS'doctrinaire'
p5712
(dp5713
g3
(lp5714
sg5
(lp5715
sg7
g15
sg9
S'dogmatic; unyielding'
p5716
ssS'relentless'
p5717
(dp5718
g3
(lp5719
sg5
(lp5720
sg7
g8
sg9
S'(adj.) unyielding, harsh, without pity'
p5721
ssS'insensible'
p5722
(dp5723
g3
(lp5724
sg5
(lp5725
sg7
g15
sg9
S'unconscious; unresponsive'
p5726
ssS'cynical'
p5727
(dp5728
g3
(lp5729
sg5
(lp5730
sg7
g8
sg9
S'adj. exhibiting moral skepticism and contempt'
p5731
ssS'largesse'
p5732
(dp5733
g3
(lp5734
sg5
(lp5735
sg7
g8
sg9
S'generosity in giving; lavish or bountiful contributions'
p5736
ssS'intemperate'
p5737
(dp5738
g3
(lp5739
sg5
(lp5740
sg7
g8
sg9
S'immoderate in indulgence of appetite or passion.'
p5741
ssS'venerate'
p5742
(dp5743
g3
(lp5744
sg5
(lp5745
sg7
g15
sg9
S'to adore, honor, respect'
p5746
ssS'bard'
p5747
(dp5748
g3
(lp5749
sg5
(lp5750
(lp5751
S'28/07/2015'
p5752
aF10.751879930496216
aasg7
g15
sg9
S'poet'
p5753
ssS'bifurcate'
p5754
(dp5755
g3
(lp5756
sg5
(lp5757
(lp5758
S'28/07/2015'
p5759
aF4.997062921524048
aasg7
g15
sg9
S'to divide into two parts'
p5760
ssS'plasticity'
p5761
(dp5762
g3
(lp5763
sg5
(lp5764
sg7
g15
sg9
S'pliability; condition of being able to be shaped or formed'
p5765
ssS'lachrymose'
p5766
(dp5767
g3
(lp5768
sg5
(lp5769
sg7
g8
sg9
S'adj. tearful'
p5770
ssS'equivocate'
p5771
(dp5772
g3
(lp5773
sg5
(lp5774
sg7
g15
sg9
S'intentionally use vague language'
p5775
ssS'avuncular'
p5776
(dp5777
g3
(lp5778
(lp5779
S'28/07/2015'
p5780
aF8.635624885559082
ag5300
aasg5
(lp5781
sg7
g15
sg9
S'like an uncle, benevolent and tolerant'
p5782
ssS'Quell'
p5783
(dp5784
g3
(lp5785
sg5
(lp5786
sg7
g8
sg9
S'suppress;quash'
p5787
ssS'premeditate'
p5788
(dp5789
g3
(lp5790
sg5
(lp5791
sg7
g8
sg9
S'plan in advance'
p5792
ssS'myriad'
p5793
(dp5794
g3
(lp5795
sg5
(lp5796
sg7
g8
sg9
S'many, a lot'
p5797
ssS'abrade'
p5798
(dp5799
g3
(lp5800
sg5
(lp5801
sg7
g8
sg9
S'v. wear down by grinding'
p5802
ssS'beatify'
p5803
(dp5804
g3
(lp5805
(lp5806
S'28/07/2015'
p5807
aI15
ag419
aasg5
(lp5808
sg7
g15
sg9
S'to sanctify; to bless; to ascribe a virtue to'
p5809
ssS'frugality'
p5810
(dp5811
g3
(lp5812
sg5
(lp5813
sg7
g15
sg9
S'thrift'
p5814
ssS'candor'
p5815
(dp5816
g3
(lp5817
sg5
(lp5818
sg7
g8
sg9
S'truthfulness; honesty'
p5819
ssS'complement'
p5820
(dp5821
g3
(lp5822
sg5
(lp5823
(lp5824
S'28/07/2015'
p5825
aF10.999340057373047
aasg7
g15
sg9
S'something that completes or makes up a whole'
p5826
ssS'baleful'
p5827
(dp5828
g3
(lp5829
sg5
(lp5830
sg7
g8
sg9
S'exerts evil influence of foreshadows evil. (not harmful in itself)'
p5831
ssS'striated'
p5832
(dp5833
g3
(lp5834
sg5
(lp5835
sg7
g15
sg9
S'marked with thin, narrow grooves or channels'
p5836
ssS'dally'
p5837
(dp5838
g3
(lp5839
sg5
(lp5840
sg7
g8
sg9
S'to waste time'
p5841
ssS'geniality'
p5842
(dp5843
g3
(lp5844
sg5
(lp5845
sg7
g15
sg9
S'cheerfulness; kindliness; sociability'
p5846
ssS'defunct'
p5847
(dp5848
g3
(lp5849
(lp5850
S'28/07/2015'
p5851
aI15
ag419
aasg5
(lp5852
(lp5853
S'28/07/2015'
p5854
aF3.9582769870758057
aasg7
g15
sg9
S'no longer existing'
p5855
ssS'ignominy'
p5856
(dp5857
g3
(lp5858
sg5
(lp5859
sg7
g8
sg9
S'humiliation'
p5860
ssS'secrete'
p5861
(dp5862
g3
(lp5863
sg5
(lp5864
sg7
g15
sg9
S'produce and release substance into organism'
p5865
ssS'lustrous'
p5866
(dp5867
g3
(lp5868
sg5
(lp5869
sg7
g15
sg9
S'shining'
p5870
ssS'dwindle'
p5871
(dp5872
g3
(lp5873
sg5
(lp5874
sg7
g8
sg9
S'v. diminish gradually'
p5875
ssS'Maladroit'
p5876
(dp5877
g3
(lp5878
sg5
(lp5879
sg7
g8
sg9
S'Not good at dealing with people or problem'
p5880
ssS'incandescent'
p5881
(dp5882
g3
(lp5883
sg5
(lp5884
sg7
g8
sg9
S'intensely bright'
p5885
ssS'rave'
p5886
(dp5887
g3
(lp5888
sg5
(lp5889
sg7
g8
sg9
S'overwhelmingly favorable review'
p5890
ssS'supple'
p5891
(dp5892
g3
(lp5893
sg5
(lp5894
sg7
g8
sg9
S'adj. bendy;bending and moving easily and gracefully; flexible'
p5895
ssS'bolster'
p5896
(dp5897
g3
(lp5898
sg5
(lp5899
(lp5900
S'28/07/2015'
p5901
aF5.804987907409668
aasg7
g15
sg9
S'to give a boost to; prop up; support'
p5902
ssS'Evanescent'
p5903
(dp5904
g3
(lp5905
sg5
(lp5906
sg7
g8
sg9
S'Fleeting; vanishing,ephemeral'
p5907
ssS'satire'
p5908
(dp5909
g3
(lp5910
sg5
(lp5911
sg7
g8
sg9
S'n. mode of writing that aims at ridiculing a target'
p5912
ssS'adulterate'
p5913
(dp5914
g3
(lp5915
sg5
(lp5916
sg7
g15
sg9
S'to corrupt or make impure'
p5917
ssS'omniscient'
p5918
(dp5919
g3
(lp5920
sg5
(lp5921
sg7
g8
sg9
S'adj. knowing everything'
p5922
ssS'veneer'
p5923
(dp5924
g3
(lp5925
sg5
(lp5926
sg7
g8
sg9
S'n. thin surface layer'
p5927
ssS'exculpate'
p5928
(dp5929
g3
(lp5930
sg5
(lp5931
sg7
g15
sg9
S'to clear of blame; vindicate'
p5932
ssS'champion'
p5933
(dp5934
g3
(lp5935
sg5
(lp5936
sg7
g15
sg9
S'to defend or support'
p5937
ssS'Stratagem'
p5938
(dp5939
g3
(lp5940
sg5
(lp5941
sg7
g8
sg9
S'Deceptive scheme;a plan or scheme, especially one used to outwit an opponent or achieve an end'
p5942
ssS'fretful'
p5943
(dp5944
g3
(lp5945
sg5
(lp5946
sg7
g8
sg9
S'adj. feeling distress'
p5947
ssS'rupture'
p5948
(dp5949
g3
(lp5950
sg5
(lp5951
sg7
g8
sg9
S'v. break, especially a body part'
p5952
ssS'amble'
p5953
(dp5954
g3
(lp5955
sg5
(lp5956
sg7
g8
sg9
S'(n.) A slow walk or gentle pace; (v.) To walk slowly or leisurely( stroll, friendly, sociable)'
p5957
ssS'puissant'
p5958
(dp5959
g3
(lp5960
sg5
(lp5961
sg7
g15
sg9
S'powerful'
p5962
ssS'empirical'
p5963
(dp5964
g3
(lp5965
sg5
(lp5966
sg7
g15
sg9
S'derived from observation or experiment'
p5967
ssS'Repose'
p5968
(dp5969
g3
(lp5970
sg5
(lp5971
sg7
g8
sg9
S'Rest; tranquility; relaxation'
p5972
ssS'Inopportune'
p5973
(dp5974
g3
(lp5975
sg5
(lp5976
sg7
g8
sg9
S'Untimely; poorly chosen'
p5977
ssS'barricade'
p5978
(dp5979
g3
(lp5980
sg5
(lp5981
sg7
g8
sg9
S'n an obstruction or rampart thrown up across a way or passage(fence, hedge, wall, barrier, obstacle, blcokade, obstruction)'
p5982
ssS'bedizen'
p5983
(dp5984
g3
(lp5985
sg5
(lp5986
sg7
g15
sg9
S'to dress in a vulgar, showy manner'
p5987
ssS'mordant'
p5988
(dp5989
g3
(lp5990
sg5
(lp5991
sg7
g8
sg9
S'adj. sarcastic'
p5992
ssS'credence'
p5993
(dp5994
g3
(lp5995
sg5
(lp5996
sg7
g15
sg9
S'acceptance of something as true'
p5997
ssS'Clandestine'
p5998
(dp5999
g3
(lp6000
sg5
(lp6001
sg7
g8
sg9
S'Secret'
p6002
ssS'confound'
p6003
(dp6004
g3
(lp6005
(lp6006
S'28/07/2015'
p6007
aI15
ag419
aasg5
(lp6008
sg7
g15
sg9
S'to baffle; perplex; mix up'
p6009
ssS'Ancillary'
p6010
(dp6011
g3
(lp6012
sg5
(lp6013
sg7
g8
sg9
S'subordinate or supplementary, auxiliary, accessory(subsidiary,subordinate)'
p6014
ssS'quail'
p6015
(dp6016
g3
(lp6017
sg5
(lp6018
sg7
g15
sg9
S'to cower, lose heart'
p6019
ssS'enervate'
p6020
(dp6021
g3
(lp6022
sg5
(lp6023
sg7
g15
sg9
S'to weaken'
p6024
ssS'hyperbole'
p6025
(dp6026
g3
(lp6027
sg5
(lp6028
sg7
g15
sg9
S'purposeful exaggeration for effect'
p6029
ssS'seduce'
p6030
(dp6031
g3
(lp6032
sg5
(lp6033
sg7
g8
sg9
S'attract (someone) to a belief or into a course of action that is inadvisable or foolhardy'
p6034
ssS'subliminal'
p6035
(dp6036
g3
(lp6037
sg5
(lp6038
sg7
g8
sg9
S"adj. affecting someone's mind without being aware of it; subconscious"
p6039
ssS'benign'
p6040
(dp6041
g3
(lp6042
sg5
(lp6043
sg7
g8
sg9
S'gentle; kind'
p6044
ssS'discredit'
p6045
(dp6046
g3
(lp6047
sg5
(lp6048
sg7
g15
sg9
S'to dishonor; disgrace'
p6049
ssS'bristle'
p6050
(dp6051
g3
(lp6052
sg5
(lp6053
sg7
g8
sg9
S'v. show angry distaste'
p6054
ssS'premonition'
p6055
(dp6056
g3
(lp6057
sg5
(lp6058
sg7
g15
sg9
S'forewarning; presentiment'
p6059
ssS'shirk'
p6060
(dp6061
g3
(lp6062
sg5
(lp6063
sg7
g8
sg9
S'(v.) To avoid work, duty or responsibility; To slough off'
p6064
ssS'Prudent'
p6065
(dp6066
g3
(lp6067
sg5
(lp6068
sg7
g8
sg9
S"Careful or discreet in managing one's conduct; circumspect."
p6069
ssS'contravene'
p6070
(dp6071
g3
(lp6072
sg5
(lp6073
sg7
g8
sg9
S'infringe, come into conflict with'
p6074
ssS'covetous'
p6075
(dp6076
g3
(lp6077
(lp6078
S'28/07/2015'
p6079
aI15
ag419
aasg5
(lp6080
sg7
g15
sg9
S'desiring something owned by another'
p6081
ssS'waddled'
p6082
(dp6083
g3
(lp6084
sg5
(lp6085
sg7
g8
sg9
S'vaggade;walk with short steps and a clumsy swaying motion'
p6086
ssS'banter'
p6087
(dp6088
g3
(lp6089
sg5
(lp6090
sg7
g15
sg9
S'playful conversation'
p6091
ssS'epithet'
p6092
(dp6093
g3
(lp6094
sg5
(lp6095
sg7
g8
sg9
S'n. descriptive phrase,\xe5\xa4\x96\xe5\x8f\xb7'
p6096
ssS'monolithic'
p6097
(dp6098
g3
(lp6099
sg5
(lp6100
sg7
g15
sg9
S'solid and uniform; constituing a single, unified whole'
p6101
ssS'impede'
p6102
(dp6103
g3
(lp6104
sg5
(lp6105
sg7
g15
sg9
S'to hinder; block'
p6106
ssS'rabid'
p6107
(dp6108
g3
(lp6109
sg5
(lp6110
sg7
g8
sg9
S'(adj.) furious, violently intense, unreasonably extreme.'
p6111
ssS'aggregate'
p6112
(dp6113
g3
(lp6114
sg5
(lp6115
sg7
g15
sg9
S'amounting to a whole; total'
p6116
ssS'robust'
p6117
(dp6118
g3
(lp6119
sg5
(lp6120
sg7
g8
sg9
S'sturdy ; (of a person or their body) strongly and solidly built'
p6121
ssS'perspicacious'
p6122
(dp6123
g3
(lp6124
sg5
(lp6125
sg7
g8
sg9
S'adj. having good judgment;acumen'
p6126
ssS'finesse'
p6127
(dp6128
g3
(lp6129
sg5
(lp6130
sg7
g15
sg9
S'to handle with a deceptive or evasive strategy; refined in performance'
p6131
ssS'supersede'
p6132
(dp6133
g3
(lp6134
sg5
(lp6135
sg7
g15
sg9
S'to replace, especially to displace as inferior or antiquated'
p6136
ssS'craven'
p6137
(dp6138
g3
(lp6139
sg5
(lp6140
sg7
g15
sg9
S'cowardly'
p6141
ssS'Waft'
p6142
(dp6143
g3
(lp6144
sg5
(lp6145
sg7
g8
sg9
S'Moved gently by wind or waves'
p6146
ssS'savvy'
p6147
(dp6148
g3
(lp6149
sg5
(lp6150
sg7
g8
sg9
S'smart and informed'
p6151
ssS'recant'
p6152
(dp6153
g3
(lp6154
sg5
(lp6155
sg7
g15
sg9
S'retract a statement of opinion'
p6156
ssS'abstain'
p6157
(dp6158
g3
(lp6159
sg5
(lp6160
sg7
g8
sg9
S'refrain'
p6161
ssS'vindictive'
p6162
(dp6163
g3
(lp6164
sg5
(lp6165
sg7
g15
sg9
S'vengeful, unforgiving'
p6166
ssS'Dilatory'
p6167
(dp6168
g3
(lp6169
sg5
(lp6170
sg7
g8
sg9
S'Delaying'
p6171
ssS'incongruity'
p6172
(dp6173
g3
(lp6174
(lp6175
S'28/07/2015'
p6176
aF12.98989200592041
aS'No idea'
p6177
aasg5
(lp6178
sg7
g15
sg9
S'state of not fitting'
p6179
ssS'salve'
p6180
(dp6181
g3
(lp6182
sg5
(lp6183
sg7
g8
sg9
S"soothe (wounded pride or one's conscience)"
p6184
ssS'belabor'
p6185
(dp6186
g3
(lp6187
sg5
(lp6188
sg7
g8
sg9
S'v. explain or worry excessively'
p6189
ssS'vigilant'
p6190
(dp6191
g3
(lp6192
sg5
(lp6193
sg7
g8
sg9
S'alert'
p6194
ssS'abstemious'
p6195
(dp6196
g3
(lp6197
sg5
(lp6198
sg7
g15
sg9
S'moderate in appetite'
p6199
ssS'disseminate'
p6200
(dp6201
g3
(lp6202
sg5
(lp6203
sg7
g15
sg9
S'to spread; scatter; disperse'
p6204
ssS'interregnum'
p6205
(dp6206
g3
(lp6207
sg5
(lp6208
sg7
g15
sg9
S'interval between reigns; gap in continuity'
p6209
ssS'Malaise'
p6210
(dp6211
g3
(lp6212
sg5
(lp6213
sg7
g8
sg9
S'Uneasiness; vague feeling of ill health'
p6214
ssS'prudish'
p6215
(dp6216
g3
(lp6217
sg5
(lp6218
sg7
g8
sg9
S'overly concerned with being modest or proper'
p6219
ssS'problematic'
p6220
(dp6221
g3
(lp6222
sg5
(lp6223
(lp6224
S'28/07/2015'
p6225
aF4.92192816734314
aasg7
g15
sg9
S'posing a problem; doubtful'
p6226
ssS'soliloquy'
p6227
(dp6228
g3
(lp6229
sg5
(lp6230
sg7
g15
sg9
S'literary or dramatic speech by one character, not adressed to others'
p6231
ssS'vendor'
p6232
(dp6233
g3
(lp6234
sg5
(lp6235
sg7
g8
sg9
S'(n.) a person who sells something'
p6236
ssS'astringent'
p6237
(dp6238
g3
(lp6239
(lp6240
S'28/07/2015'
p6241
aI15
ag419
aasg5
(lp6242
(lp6243
S'28/07/2015'
p6244
aF8.885066986083984
aasg7
g15
sg9
S'harsh; severe'
p6245
ssS'conscript'
p6246
(dp6247
g3
(lp6248
sg5
(lp6249
sg7
g15
sg9
S'a person compulsorily enrolled for military service'
p6250
ssS'jibe'
p6251
(dp6252
g3
(lp6253
sg5
(lp6254
(lp6255
S'28/07/2015'
p6256
aF3.3076119422912598
aasg7
g15
sg9
S'to be in agreement'
p6257
ssS'extricate'
p6258
(dp6259
g3
(lp6260
sg5
(lp6261
sg7
g8
sg9
S'to release with difficulty'
p6262
ssS'opprobrium'
p6263
(dp6264
g3
(lp6265
(lp6266
S'28/07/2015'
p6267
aI15
ag419
aasg5
(lp6268
sg7
g15
sg9
S'public disgrace; contempt'
p6269
ssS'translucent'
p6270
(dp6271
g3
(lp6272
sg5
(lp6273
sg7
g15
sg9
S'partially transparent'
p6274
ssS'blemish'
p6275
(dp6276
g3
(lp6277
sg5
(lp6278
sg7
g8
sg9
S'n. flaw, imperfection'
p6279
ssS'pertinent'
p6280
(dp6281
g3
(lp6282
sg5
(lp6283
sg7
g8
sg9
S'relevant to the matter being discussed'
p6284
ssS'Tantalize'
p6285
(dp6286
g3
(lp6287
sg5
(lp6288
sg7
g8
sg9
S'Tease by arousing expectations'
p6289
ssS'Stealth'
p6290
(dp6291
g3
(lp6292
sg5
(lp6293
sg7
g8
sg9
S'Secret'
p6294
ssS'flux'
p6295
(dp6296
g3
(lp6297
sg5
(lp6298
sg7
g15
sg9
S'flowing; a continuous moving'
p6299
ssS'deleterious'
p6300
(dp6301
g3
(lp6302
sg5
(lp6303
sg7
g8
sg9
S'harmful'
p6304
ssS'sprightly'
p6305
(dp6306
g3
(lp6307
sg5
(lp6308
sg7
g8
sg9
S'adj. lively'
p6309
ssS'amicable'
p6310
(dp6311
g3
(lp6312
sg5
(lp6313
sg7
g8
sg9
S'friendly( affable,genial)'
p6314
ssS'lucre'
p6315
(dp6316
g3
(lp6317
sg5
(lp6318
(lp6319
S'28/07/2015'
p6320
aF1.4928638935089111
aasg7
g15
sg9
S'money or profits'
p6321
ssS'dilapidated'
p6322
(dp6323
g3
(lp6324
sg5
(lp6325
sg7
g8
sg9
S'in disrepair; decaying'
p6326
ssS'feckless'
p6327
(dp6328
g3
(lp6329
sg5
(lp6330
sg7
g8
sg9
S'unlikely to be successful'
p6331
ssS'Distraught'
p6332
(dp6333
g3
(lp6334
sg5
(lp6335
sg7
g8
sg9
S'Upset; distracted by anxiety'
p6336
ssS'Disposition'
p6337
(dp6338
g3
(lp6339
sg5
(lp6340
sg7
g8
sg9
S"One's usual qualities of mind or character."
p6341
ssS'rectitude'
p6342
(dp6343
g3
(lp6344
sg5
(lp6345
sg7
g8
sg9
S'(n.) uprightness, righteousness; correctness'
p6346
ssS'inimical'
p6347
(dp6348
g3
(lp6349
sg5
(lp6350
sg7
g8
sg9
S'adj. harmful, dangerous'
p6351
ssS'ungainly'
p6352
(dp6353
g3
(lp6354
sg5
(lp6355
sg7
g8
sg9
S'adj. clumsy'
p6356
ssS'meretricious'
p6357
(dp6358
g3
(lp6359
sg5
(lp6360
sg7
g15
sg9
S'gaudy; specious; falsely attractive'
p6361
ssS'mettlesome'
p6362
(dp6363
g3
(lp6364
sg5
(lp6365
sg7
g15
sg9
S'full of courage and fortitude'
p6366
ssS'conversant'
p6367
(dp6368
g3
(lp6369
sg5
(lp6370
sg7
g8
sg9
S'adj. familiar with'
p6371
ssS'respite'
p6372
(dp6373
g3
(lp6374
sg5
(lp6375
sg7
g8
sg9
S'a short period of rest or relief from something difficult or unpleasant'
p6376
ssS'elixir'
p6377
(dp6378
g3
(lp6379
sg5
(lp6380
sg7
g15
sg9
S'a sustance believed to have the power to cure ills'
p6381
ssS'dormant'
p6382
(dp6383
g3
(lp6384
sg5
(lp6385
sg7
g15
sg9
S'in a state of rest or inactivity'
p6386
ssS'rarefied'
p6387
(dp6388
g3
(lp6389
sg5
(lp6390
sg7
g15
sg9
S'belonging to, or appealing to an exclusive group; esoteric'
p6391
ssS'disjointed'
p6392
(dp6393
g3
(lp6394
sg5
(lp6395
sg7
g15
sg9
S'lacking order or coherence; dislocated'
p6396
ssS'tortuous'
p6397
(dp6398
g3
(lp6399
sg5
(lp6400
(lp6401
S'28/07/2015'
p6402
aF4.296640157699585
aasg7
g15
sg9
S'having many twists and turns, highly complex'
p6403
ssS'impermeable'
p6404
(dp6405
g3
(lp6406
sg5
(lp6407
sg7
g15
sg9
S'impossible to permeate'
p6408
ssS'paroxysm'
p6409
(dp6410
g3
(lp6411
sg5
(lp6412
sg7
g8
sg9
S'n. sudden attack of a physical condition'
p6413
ssS'therapeutic'
p6414
(dp6415
g3
(lp6416
sg5
(lp6417
sg7
g8
sg9
S'having or exhibiting healing powers'
p6418
ssS'maelstrom'
p6419
(dp6420
g3
(lp6421
sg5
(lp6422
(lp6423
S'28/07/2015'
p6424
aF1.3170521259307861
aasg7
g15
sg9
S'whirlpool; turmoil'
p6425
ssS'plethora'
p6426
(dp6427
g3
(lp6428
sg5
(lp6429
sg7
g15
sg9
S'excess; overabundance'
p6430
ssS'appropriate'
p6431
(dp6432
g3
(lp6433
(lp6434
S'28/07/2015'
p6435
aI15
ag419
aasg5
(lp6436
sg7
g15
sg9
S"to take possession of for one's own use; confiscate"
p6437
ssS'convulsion'
p6438
(dp6439
g3
(lp6440
sg5
(lp6441
sg7
g8
sg9
S'sudden occurrence of an uncontrollable condition'
p6442
ssS'unctuous'
p6443
(dp6444
g3
(lp6445
sg5
(lp6446
sg7
g8
sg9
S'adj. unpleasantly and excessively suave'
p6447
ssS'gouge'
p6448
(dp6449
g3
(lp6450
sg5
(lp6451
(lp6452
S'28/07/2015'
p6453
aF6.537913799285889
aasg7
g15
sg9
S'to tear out; scoop out; overcharge'
p6454
ssS'acquiesce'
p6455
(dp6456
g3
(lp6457
sg5
(lp6458
sg7
g8
sg9
S'comply, agree, give in'
p6459
ssS'coalesce'
p6460
(dp6461
g3
(lp6462
sg5
(lp6463
sg7
g15
sg9
S'to cause to become one'
p6464
ssS'pallid'
p6465
(dp6466
g3
(lp6467
sg5
(lp6468
sg7
g15
sg9
S'lacking color or liveliness'
p6469
ssS'lithe'
p6470
(dp6471
g3
(lp6472
sg5
(lp6473
sg7
g8
sg9
S'adj. slim, athletic(not limber,lissome0'
p6474
ssS'droll'
p6475
(dp6476
g3
(lp6477
sg5
(lp6478
sg7
g8
sg9
S'oddly amusing'
p6479
ssS'calumny'
p6480
(dp6481
g3
(lp6482
sg5
(lp6483
sg7
g15
sg9
S'false and malicious accusation; slander'
p6484
ssS'errant'
p6485
(dp6486
g3
(lp6487
sg5
(lp6488
sg7
g15
sg9
S'mistaken; straying from the proper course'
p6489
ssS'mundane'
p6490
(dp6491
g3
(lp6492
sg5
(lp6493
(lp6494
S'28/07/2015'
p6495
aF9.000137090682983
aasg7
g15
sg9
S'worldy as opposed to spiritual; concerned with the ordinary'
p6496
ssS'plunge'
p6497
(dp6498
g3
(lp6499
sg5
(lp6500
sg7
g8
sg9
S'] jump or dive quickly and energetically'
p6501
ssS'impudent'
p6502
(dp6503
g3
(lp6504
sg5
(lp6505
sg7
g8
sg9
S'rude;impertinent'
p6506
ssS'byzantine'
p6507
(dp6508
g3
(lp6509
sg5
(lp6510
sg7
g8
sg9
S'highly complicated or intricate; characterized by devious plotting'
p6511
ssS'Perpetual'
p6512
(dp6513
g3
(lp6514
sg5
(lp6515
sg7
g8
sg9
S'never ending or changing; permanent'
p6516
ssS'archaic'
p6517
(dp6518
g3
(lp6519
sg5
(lp6520
sg7
g8
sg9
S'outdated; associated with an earlier, perhaps more primitive, time'
p6521
ssS'quiescent'
p6522
(dp6523
g3
(lp6524
sg5
(lp6525
sg7
g15
sg9
S'inactive, still'
p6526
ssS'carping'
p6527
(dp6528
g3
(lp6529
sg5
(lp6530
(lp6531
S'28/07/2015'
p6532
aF2.2317562103271484
aasg7
g15
sg9
S'to find fault; complain'
p6533
ssS'usurp'
p6534
(dp6535
g3
(lp6536
sg5
(lp6537
sg7
g8
sg9
S"steal someone's power"
p6538
ssS'harangue'
p6539
(dp6540
g3
(lp6541
sg5
(lp6542
sg7
g15
sg9
S'long, pompous speech; tirade'
p6543
ssS'quorum'
p6544
(dp6545
g3
(lp6546
sg5
(lp6547
sg7
g15
sg9
S'number of memeber necessary to conduct a meeting'
p6548
ssS'discomfit'
p6549
(dp6550
g3
(lp6551
sg5
(lp6552
sg7
g15
sg9
S'to make uneasy; disconcert'
p6553
ssS'nonplussed'
p6554
(dp6555
g3
(lp6556
sg5
(lp6557
sg7
g15
sg9
S'bewildered'
p6558
ssS'limpid'
p6559
(dp6560
g3
(lp6561
sg5
(lp6562
sg7
g15
sg9
S'clear; transparent'
p6563
ssS'aversion'
p6564
(dp6565
g3
(lp6566
sg5
(lp6567
sg7
g8
sg9
S'n. dislike'
p6568
ssS'autonomous'
p6569
(dp6570
g3
(lp6571
sg5
(lp6572
sg7
g15
sg9
S'self-governing; independent'
p6573
ssS'curt'
p6574
(dp6575
g3
(lp6576
sg5
(lp6577
sg7
g8
sg9
S'rude and short in tone or behavior'
p6578
ssS'tautology'
p6579
(dp6580
g3
(lp6581
sg5
(lp6582
sg7
g15
sg9
S'unnecessary repetition'
p6583
ssS'Steadfast'
p6584
(dp6585
g3
(lp6586
sg5
(lp6587
sg7
g8
sg9
S'Firm and unchanging'
p6588
ssS'precept'
p6589
(dp6590
g3
(lp6591
sg5
(lp6592
sg7
g15
sg9
S'principle; law'
p6593
ssS'prescience'
p6594
(dp6595
g3
(lp6596
sg5
(lp6597
sg7
g8
sg9
S'foreknowledge of events; knowing of events prior to their occurring'
p6598
ssS'apropos'
p6599
(dp6600
g3
(lp6601
sg5
(lp6602
sg7
g15
sg9
S'relevant'
p6603
ssS'evocative'
p6604
(dp6605
g3
(lp6606
sg5
(lp6607
(lp6608
S'28/07/2015'
p6609
aF8.826404809951782
aasg7
g15
sg9
S'tending to call to mind or produce a reaction'
p6610
ssS'effervescence'
p6611
(dp6612
g3
(lp6613
sg5
(lp6614
sg7
g15
sg9
S'state of high spirits or liveliness; process of bubling as gas escapes'
p6615
ssS'intrepid'
p6616
(dp6617
g3
(lp6618
sg5
(lp6619
sg7
g8
sg9
S'resolutely fearless, daunting, bold, courageous, and brave'
p6620
ssS'abscission'
p6621
(dp6622
g3
(lp6623
sg5
(lp6624
sg7
g15
sg9
S'the act of cutting; the natural separation of a leaf or other part of a plant'
p6625
ssS'gustatory'
p6626
(dp6627
g3
(lp6628
sg5
(lp6629
(lp6630
S'28/07/2015'
p6631
aF4.961029052734375
aasg7
g15
sg9
S'affecting the sense of taste'
p6632
ssS'lucid'
p6633
(dp6634
g3
(lp6635
sg5
(lp6636
sg7
g15
sg9
S'bright; clear; intelligible'
p6637
ssS'bravado'
p6638
(dp6639
g3
(lp6640
sg5
(lp6641
sg7
g8
sg9
S'n. intimidating boldness'
p6642
ssS'effrontery'
p6643
(dp6644
g3
(lp6645
sg5
(lp6646
sg7
g15
sg9
S'shameless; boldness; presumptuousness'
p6647
ssS'antecedent'
p6648
(dp6649
g3
(lp6650
sg5
(lp6651
sg7
g15
sg9
S'something that comes before'
p6652
ssS'dispassionate'
p6653
(dp6654
g3
(lp6655
sg5
(lp6656
sg7
g8
sg9
S'adj. emotionless'
p6657
ssS'Wither'
p6658
(dp6659
g3
(lp6660
sg5
(lp6661
sg7
g8
sg9
S'Shrivel; decay'
p6662
ssS'conjugal'
p6663
(dp6664
g3
(lp6665
sg5
(lp6666
sg7
g15
sg9
S'pertaining to marriage agreement'
p6667
ssS'essay'
p6668
(dp6669
g3
(lp6670
sg5
(lp6671
sg7
g15
sg9
S'to make an attempt; subject to a test'
p6672
ssS'dogged'
p6673
(dp6674
g3
(lp6675
sg5
(lp6676
sg7
g8
sg9
S'determined'
p6677
ssS'coda'
p6678
(dp6679
g3
(lp6680
sg5
(lp6681
sg7
g15
sg9
S'concluding part of a literary or musical composition; something that summarizes or concludes'
p6682
ssS'wrangle'
p6683
(dp6684
g3
(lp6685
sg5
(lp6686
sg7
g8
sg9
S'(v.) to quarrel or argue in a noisy, angry way; to obtain by argument; to herd; (n.) a noisy quarrel'
p6687
ssS'fecund'
p6688
(dp6689
g3
(lp6690
sg5
(lp6691
sg7
g8
sg9
S'1. fertile 2. highly imaginative'
p6692
ssS'discordant'
p6693
(dp6694
g3
(lp6695
sg5
(lp6696
sg7
g15
sg9
S'not in tune'
p6697
ssS'ruminate'
p6698
(dp6699
g3
(lp6700
sg5
(lp6701
sg7
g8
sg9
S'v. to meditate, think about at length, chew on;pensive'
p6702
ssS'acerbic'
p6703
(dp6704
g3
(lp6705
sg5
(lp6706
sg7
g8
sg9
S'having a sour or bitter taste or characteristic; sharp; biting(Pungent)'
p6707
ssS'Vindicate'
p6708
(dp6709
g3
(lp6710
sg5
(lp6711
sg7
g8
sg9
S'to free from blame'
p6712
ssS'vacuous'
p6713
(dp6714
g3
(lp6715
sg5
(lp6716
sg7
g15
sg9
S'empty, void, lacking intelligence'
p6717
ssS'welter'
p6718
(dp6719
g3
(lp6720
sg5
(lp6721
sg7
g15
sg9
S'wallow or roll, toss about, be in turmoil'
p6722
ssS'obstinate'
p6723
(dp6724
g3
(lp6725
sg5
(lp6726
sg7
g8
sg9
S'adj. stubborn; inflexible'
p6727
ssS'breach'
p6728
(dp6729
g3
(lp6730
sg5
(lp6731
sg7
g8
sg9
S'n. gap where barriers are broken through'
p6732
ssS'moribund'
p6733
(dp6734
g3
(lp6735
sg5
(lp6736
sg7
g8
sg9
S'(adj.) dying, on the way out'
p6737
ssS'implausible'
p6738
(dp6739
g3
(lp6740
(lp6741
S'28/07/2015'
p6742
aF17.42072606086731
ag615
aasg5
(lp6743
sg7
g15
sg9
S'unlikely; unbelievable'
p6744
ssS'subservient'
p6745
(dp6746
g3
(lp6747
sg5
(lp6748
sg7
g8
sg9
S'adj. obedient'
p6749
ssS'converge'
p6750
(dp6751
g3
(lp6752
sg5
(lp6753
sg7
g15
sg9
S'to approach; come together; tend to meet'
p6754
ssS'clement'
p6755
(dp6756
g3
(lp6757
sg5
(lp6758
sg7
g8
sg9
S'adj. mild and gentle'
p6759
ssS'bedeck'
p6760
(dp6761
g3
(lp6762
sg5
(lp6763
sg7
g8
sg9
S'v. adorn(make more attractive by adding something that is beautiful adorn, decorate)'
p6764
ssS'physiognomy'
p6765
(dp6766
g3
(lp6767
sg5
(lp6768
sg7
g15
sg9
S'facial features'
p6769
ssS'stodgy'
p6770
(dp6771
g3
(lp6772
sg5
(lp6773
sg7
g8
sg9
S'(adj.) Dull, unimaginative, and commonplace'
p6774
ssS'stiff'
p6775
(dp6776
g3
(lp6777
sg5
(lp6778
sg7
g8
sg9
S'not easily bent or changed in shape; rigid'
p6779
ssS'iniquity'
p6780
(dp6781
g3
(lp6782
sg5
(lp6783
sg7
g8
sg9
S'n. sin, wickedness'
p6784
ssS'insuperable'
p6785
(dp6786
g3
(lp6787
sg5
(lp6788
sg7
g15
sg9
S'insurmountable; unconquerable'
p6789
ssS'supine'
p6790
(dp6791
g3
(lp6792
sg5
(lp6793
sg7
g15
sg9
S'lying in the back, marked by lethargy'
p6794
ssS'trite'
p6795
(dp6796
g3
(lp6797
sg5
(lp6798
sg7
g8
sg9
S'adj. uninteresting, overused'
p6799
ssS'cloister'
p6800
(dp6801
g3
(lp6802
sg5
(lp6803
sg7
g15
sg9
S'to confine; seclude'
p6804
ssS'sedentary'
p6805
(dp6806
g3
(lp6807
sg5
(lp6808
sg7
g8
sg9
S'sitting down, accustomed to sitting or taking little exercise'
p6809
ssS'thespian'
p6810
(dp6811
g3
(lp6812
sg5
(lp6813
sg7
g15
sg9
S'an actor or actress'
p6814
ssS'dilute'
p6815
(dp6816
g3
(lp6817
sg5
(lp6818
sg7
g8
sg9
S'lessen strength'
p6819
ssS'exuberant'
p6820
(dp6821
g3
(lp6822
sg5
(lp6823
sg7
g8
sg9
S'adj. overflowing with vitality and good spirits'
p6824
ssS'inveterate'
p6825
(dp6826
g3
(lp6827
sg5
(lp6828
sg7
g15
sg9
S'confirmed; long standing'
p6829
ssS'aboveboard'
p6830
(dp6831
g3
(lp6832
sg5
(lp6833
sg7
g8
sg9
S'adj. legal'
p6834
ssS'ribald'
p6835
(dp6836
g3
(lp6837
sg5
(lp6838
sg7
g8
sg9
S'adj. vulgar, coarse'
p6839
ssS'vituperative'
p6840
(dp6841
g3
(lp6842
sg5
(lp6843
(lp6844
S'28/07/2015'
p6845
aF4.40381383895874
aasg7
g15
sg9
S'using or containing harsh, abusive censure'
p6846
ssS'volatile'
p6847
(dp6848
g3
(lp6849
sg5
(lp6850
sg7
g15
sg9
S'tending to vary frequently, fickle'
p6851
ssS'oration'
p6852
(dp6853
g3
(lp6854
sg5
(lp6855
sg7
g8
sg9
S'a formal speech, especially one given on a ceremonial occasion.'
p6856
ssS'infuse'
p6857
(dp6858
g3
(lp6859
sg5
(lp6860
sg7
g8
sg9
S'v. spread through'
p6861
ssS'stanch'
p6862
(dp6863
g3
(lp6864
sg5
(lp6865
sg7
g15
sg9
S'to stop or check the flow of'
p6866
ssS'peripatetic'
p6867
(dp6868
g3
(lp6869
sg5
(lp6870
sg7
g8
sg9
S'adj. moving or walking about'
p6871
ssS'puckish'
p6872
(dp6873
g3
(lp6874
sg5
(lp6875
sg7
g8
sg9
S'playful, especially in a mischievous ways'
p6876
ssS'gloat'
p6877
(dp6878
g3
(lp6879
sg5
(lp6880
sg7
g8
sg9
S'Express evil satisfaction; view malevolently'
p6881
ssS'abnegate'
p6882
(dp6883
g3
(lp6884
sg5
(lp6885
sg7
g8
sg9
S'v. deny oneself'
p6886
ssS'preamble'
p6887
(dp6888
g3
(lp6889
sg5
(lp6890
sg7
g15
sg9
S'preliminary statement'
p6891
ssS'implicit'
p6892
(dp6893
g3
(lp6894
sg5
(lp6895
sg7
g15
sg9
S'implied; understood but not stated'
p6896
ssS'requite'
p6897
(dp6898
g3
(lp6899
sg5
(lp6900
sg7
g8
sg9
S'(v.) to make suitable repayment, as for a kindness, service, or favor; to make retaliation, as for an injury or wrong; to reciprocate'
p6901
ssS'abominate'
p6902
(dp6903
g3
(lp6904
sg5
(lp6905
sg7
g8
sg9
S'to have an intense dislike or hatred for'
p6906
ssS'dissolute'
p6907
(dp6908
g3
(lp6909
sg5
(lp6910
sg7
g8
sg9
S'lacking restraint'
p6911
ssS'miscreant'
p6912
(dp6913
g3
(lp6914
sg5
(lp6915
sg7
g15
sg9
S'villain; criminal'
p6916
ssS'plutocracy'
p6917
(dp6918
g3
(lp6919
sg5
(lp6920
(lp6921
S'28/07/2015'
p6922
aF5.129576206207275
aasg7
g15
sg9
S'society ruled by the wealthy'
p6923
ssS'apt'
p6924
(dp6925
g3
(lp6926
sg5
(lp6927
sg7
g8
sg9
S'(adj.) suitable, fitting, likely; quick to learn'
p6928
ssS'limn'
p6929
(dp6930
g3
(lp6931
sg5
(lp6932
sg7
g15
sg9
S'to draw, describe'
p6933
ssS'extirpate'
p6934
(dp6935
g3
(lp6936
sg5
(lp6937
sg7
g15
sg9
S'to root up; to destroy'
p6938
ssS'causal'
p6939
(dp6940
g3
(lp6941
sg5
(lp6942
sg7
g15
sg9
S'involving a cause'
p6943
ssS'dissonance'
p6944
(dp6945
g3
(lp6946
sg5
(lp6947
sg7
g15
sg9
S'discord; lack of harmony'
p6948
ssS'pusillanimous'
p6949
(dp6950
g3
(lp6951
sg5
(lp6952
sg7
g15
sg9
S'cowardly; showing a lack of courage or determination; timid'
p6953
ssS'procrastinate'
p6954
(dp6955
g3
(lp6956
sg5
(lp6957
sg7
g8
sg9
S'v. put off till tomorrow or till a future time'
p6958
ssS'modicum'
p6959
(dp6960
g3
(lp6961
sg5
(lp6962
(lp6963
S'28/07/2015'
p6964
aF10.038144826889038
aasg7
g15
sg9
S'limited quantity'
p6965
ssS'Drivel'
p6966
(dp6967
g3
(lp6968
sg5
(lp6969
sg7
g8
sg9
S'Nonsense; foolishness'
p6970
ssS'circuitous'
p6971
(dp6972
g3
(lp6973
sg5
(lp6974
sg7
g15
sg9
S'roundabout'
p6975
ssS'harrowing'
p6976
(dp6977
g3
(lp6978
sg5
(lp6979
sg7
g15
sg9
S'extremely distressing; terrifying'
p6980
ssS'depreciate'
p6981
(dp6982
g3
(lp6983
sg5
(lp6984
sg7
g8
sg9
S'to lower in value, disparage, belittle, to decline in price'
p6985
ssS'engender'
p6986
(dp6987
g3
(lp6988
sg5
(lp6989
sg7
g15
sg9
S'to cause; produce'
p6990
ssS'lacerate'
p6991
(dp6992
g3
(lp6993
sg5
(lp6994
sg7
g8
sg9
S'to rip, maul, tear, mutilate, mangle'
p6995
ssS'transient'
p6996
(dp6997
g3
(lp6998
sg5
(lp6999
sg7
g15
sg9
S'temporary, fleeting'
p7000
ssS'entangle'
p7001
(dp7002
g3
(lp7003
sg5
(lp7004
sg7
g8
sg9
S'v. catch in'
p7005
ssS'disingenuous'
p7006
(dp7007
g3
(lp7008
sg5
(lp7009
(lp7010
S'28/07/2015'
p7011
aF7.537549018859863
aasg7
g15
sg9
S'not candid, crafty'
p7012
ssS'lapse'
p7013
(dp7014
g3
(lp7015
sg5
(lp7016
sg7
g8
sg9
S'n. temporary decline'
p7017
ssS'inculpate'
p7018
(dp7019
g3
(lp7020
sg5
(lp7021
sg7
g8
sg9
S'v. accuse'
p7022
ssS'cherubic'
p7023
(dp7024
g3
(lp7025
sg5
(lp7026
sg7
g8
sg9
S'(adj.) angelic'
p7027
ssS'Abstruse'
p7028
(dp7029
g3
(lp7030
sg5
(lp7031
sg7
g8
sg9
S'Hard to understand'
p7032
ssS'internecine'
p7033
(dp7034
g3
(lp7035
sg5
(lp7036
(lp7037
S'28/07/2015'
p7038
aF9.67933201789856
aasg7
g15
sg9
S'deadly to both sides'
p7039
ssS'poseur'
p7040
(dp7041
g3
(lp7042
sg5
(lp7043
(lp7044
S'28/07/2015'
p7045
aF10.070399045944214
aasg7
g15
sg9
S'person who affects an attitude to impress others'
p7046
ssS'vaunt'
p7047
(dp7048
g3
(lp7049
sg5
(lp7050
sg7
g15
sg9
S'to boast, drag'
p7051
ssS'beleaguer'
p7052
(dp7053
g3
(lp7054
sg5
(lp7055
sg7
g8
sg9
S'to surround; to harass'
p7056
ssS'rapt'
p7057
(dp7058
g3
(lp7059
sg5
(lp7060
sg7
g8
sg9
S'adj. having attention completely taken up'
p7061
ssS'atone'
p7062
(dp7063
g3
(lp7064
sg5
(lp7065
sg7
g8
sg9
S'v. make amends'
p7066
ssS'vivisection'
p7067
(dp7068
g3
(lp7069
sg5
(lp7070
sg7
g15
sg9
S'dissection, surgery, or painful experiments performed on a living animal for the purpose of scientific research'
p7071
ssS'counterfeit'
p7072
(dp7073
g3
(lp7074
sg5
(lp7075
sg7
g8
sg9
S'adj. imitation of something valuable'
p7076
ssS'ambivalence'
p7077
(dp7078
g3
(lp7079
sg5
(lp7080
sg7
g15
sg9
S'the state of having conflicting emotional attitudes'
p7081
ssS'tamper'
p7082
(dp7083
g3
(lp7084
sg5
(lp7085
sg7
g8
sg9
S'(v.) To interfere with; To meddle'
p7086
ssS'patronize'
p7087
(dp7088
g3
(lp7089
sg5
(lp7090
sg7
g8
sg9
S'treat with an apparent kindness that betrays a feeling of superiority'
p7091
ssS'elliptical'
p7092
(dp7093
g3
(lp7094
sg5
(lp7095
sg7
g8
sg9
S'extremely concise in speech or writing'
p7096
ssS'occlude'
p7097
(dp7098
g3
(lp7099
sg5
(lp7100
sg7
g15
sg9
S'to shut; block'
p7101
ssS'Solemnity'
p7102
(dp7103
g3
(lp7104
sg5
(lp7105
sg7
g8
sg9
S'Seriousness'
p7106
ssS'impenitent'
p7107
(dp7108
g3
(lp7109
sg5
(lp7110
sg7
g8
sg9
S'not repentent, shameless, unashamed, unrepentant'
p7111
ssS'Subterfuge'
p7112
(dp7113
g3
(lp7114
sg5
(lp7115
sg7
g8
sg9
S'Use of tricks especially to hide, avoid, or get something'
p7116
ssS'prolix'
p7117
(dp7118
g3
(lp7119
sg5
(lp7120
sg7
g8
sg9
S'adj. excessively wordy'
p7121
ssS'impecunious'
p7122
(dp7123
g3
(lp7124
(lp7125
S'28/07/2015'
p7126
aI15
ag419
aasg5
(lp7127
sg7
g15
sg9
S'poor; having no money'
p7128
ssS'foment'
p7129
(dp7130
g3
(lp7131
sg5
(lp7132
sg7
g15
sg9
S'to incite; arouse'
p7133
ssS'ambiguous'
p7134
(dp7135
g3
(lp7136
sg5
(lp7137
sg7
g15
sg9
S'unclear or doubtful in meaning'
p7138
ssS'amenable'
p7139
(dp7140
g3
(lp7141
sg5
(lp7142
sg7
g15
sg9
S'agreeable; cooperative; suited'
p7143
ssS'xenophobia'
p7144
(dp7145
g3
(lp7146
sg5
(lp7147
sg7
g8
sg9
S'intense fear of people from other countries'
p7148
ssS'arduous'
p7149
(dp7150
g3
(lp7151
sg5
(lp7152
sg7
g15
sg9
S'extremely difficult; laborious'
p7153
ssS'tendentious'
p7154
(dp7155
g3
(lp7156
sg5
(lp7157
sg7
g8
sg9
S'biased; showing marked tendencies'
p7158
ssS'alloy'
p7159
(dp7160
g3
(lp7161
(lp7162
S'28/07/2015'
p7163
aI15
ag419
aasg5
(lp7164
sg7
g15
sg9
S'a combination; a mixture of two or more metals'
p7165
ssS'Decant'
p7166
(dp7167
g3
(lp7168
sg5
(lp7169
sg7
g8
sg9
S'Gradually pour (liquid, typically wine or a solution) from one container into another, esp. without disturbing the sediment. 2. Empty out; move as if by pouring.'
p7170
ssS'sedulous'
p7171
(dp7172
g3
(lp7173
sg5
(lp7174
sg7
g15
sg9
S'diligent, assiduous'
p7175
ssS'Incorrigible'
p7176
(dp7177
g3
(lp7178
sg5
(lp7179
sg7
g8
sg9
S'Unable to be changed, corrected, or reformed.'
p7180
ssS'alacrity'
p7181
(dp7182
g3
(lp7183
sg5
(lp7184
sg7
g15
sg9
S'cheerful willingness; eagerness; speed'
p7185
ssS'embezzle'
p7186
(dp7187
g3
(lp7188
sg5
(lp7189
sg7
g8
sg9
S'misuse entrusted money or property'
p7190
ssS'vilify'
p7191
(dp7192
g3
(lp7193
sg5
(lp7194
sg7
g8
sg9
S"adj to slander or defame someone's name or reputation"
p7195
ssS'badger'
p7196
(dp7197
g3
(lp7198
sg5
(lp7199
sg7
g8
sg9
S'to annoy;'
p7200
ssS'subversive'
p7201
(dp7202
g3
(lp7203
sg5
(lp7204
(lp7205
S'28/07/2015'
p7206
aF20.994558811187744
aasg7
g15
sg9
S'intended to undermine or underthrow, especially an established government'
p7207
ssS'industrious'
p7208
(dp7209
g3
(lp7210
sg5
(lp7211
sg7
g8
sg9
S'working hard'
p7212
ssS'equanimity'
p7213
(dp7214
g3
(lp7215
sg5
(lp7216
(lp7217
S'28/07/2015'
p7218
aF4.309688091278076
aasg7
g15
sg9
S'composure; calmness'
p7219
ssS'decorum'
p7220
(dp7221
g3
(lp7222
sg5
(lp7223
sg7
g15
sg9
S'proper behavior'
p7224
ssS'brook'
p7225
(dp7226
g3
(lp7227
sg5
(lp7228
sg7
g8
sg9
S'v. to bear, suffer, or tolerate.'
p7229
ssS'nostalgia'
p7230
(dp7231
g3
(lp7232
sg5
(lp7233
sg7
g15
sg9
S'sentimental longing for a past time'
p7234
ssS'sinecure'
p7235
(dp7236
g3
(lp7237
sg5
(lp7238
sg7
g15
sg9
S'well-paying job that requieres little or no work'
p7239
ssS'primordial'
p7240
(dp7241
g3
(lp7242
sg5
(lp7243
sg7
g15
sg9
S'original; existing from the beginning'
p7244
ssS'choleric'
p7245
(dp7246
g3
(lp7247
sg5
(lp7248
sg7
g8
sg9
S'hot-tempered'
p7249
ssS'derelict'
p7250
(dp7251
g3
(lp7252
sg5
(lp7253
sg7
g8
sg9
S'adj. abandoned; discarded'
p7254
ssS'machinations'
p7255
(dp7256
g3
(lp7257
sg5
(lp7258
sg7
g15
sg9
S'plots or schemes'
p7259
ssS'impervious'
p7260
(dp7261
g3
(lp7262
sg5
(lp7263
sg7
g15
sg9
S'incapable of being affected; impossible to penetrate'
p7264
ssS'trenchant'
p7265
(dp7266
g3
(lp7267
sg5
(lp7268
sg7
g8
sg9
S'adj. energetic, vigorous'
p7269
ssS'denigrate'
p7270
(dp7271
g3
(lp7272
sg5
(lp7273
sg7
g15
sg9
S"to slur someone's reputation"
p7274
ssS'flout'
p7275
(dp7276
g3
(lp7277
sg5
(lp7278
(lp7279
S'28/07/2015'
p7280
aF5.7976438999176025
aasg7
g15
sg9
S'to treat scornfully'
p7281
ssS'negligent'
p7282
(dp7283
g3
(lp7284
sg5
(lp7285
sg7
g8
sg9
S'adj. failing to take proper care in doing something. careless'
p7286
ssS'placid'
p7287
(dp7288
g3
(lp7289
sg5
(lp7290
sg7
g15
sg9
S'calm'
p7291
ssS'crass'
p7292
(dp7293
g3
(lp7294
sg5
(lp7295
sg7
g8
sg9
S'adj. unrefined, coarse or thick in nature'
p7296
ssS'profound'
p7297
(dp7298
g3
(lp7299
sg5
(lp7300
(lp7301
S'28/07/2015'
p7302
aF2.7984001636505127
aasg7
g15
sg9
S'deep, not superficial'
p7303
ssS'laconic'
p7304
(dp7305
g3
(lp7306
sg5
(lp7307
sg7
g15
sg9
S'using few words'
p7308
ssS'concave'
p7309
(dp7310
g3
(lp7311
sg5
(lp7312
sg7
g15
sg9
S'curving inward'
p7313
ssS'virulent'
p7314
(dp7315
g3
(lp7316
sg5
(lp7317
sg7
g8
sg9
S'extremely harmful or poisonous; bitterly hostile or antagonistic'
p7318
ssS'predilection'
p7319
(dp7320
g3
(lp7321
sg5
(lp7322
sg7
g8
sg9
S'a disposition in favor of something; preference'
p7323
ssS'veracious'
p7324
(dp7325
g3
(lp7326
sg5
(lp7327
sg7
g15
sg9
S'truthful, accurate'
p7328
ssS'Decadence'
p7329
(dp7330
g3
(lp7331
sg5
(lp7332
sg7
g8
sg9
S'decline, decay, or deterioration; a condition or period of decline or decay; excessive self-indulgence'
p7333
ssS'homogeneous'
p7334
(dp7335
g3
(lp7336
sg5
(lp7337
sg7
g15
sg9
S'composed of identical parts; uniform in composition'
p7338
ssS'intangible'
p7339
(dp7340
g3
(lp7341
sg5
(lp7342
(lp7343
S'28/07/2015'
p7344
aF2.250154972076416
aasg7
g15
sg9
S'not material'
p7345
ssS'banal'
p7346
(dp7347
g3
(lp7348
sg5
(lp7349
sg7
g15
sg9
S'commonplace; trite'
p7350
ssS'Hauteur'
p7351
(dp7352
g3
(lp7353
sg5
(lp7354
sg7
g8
sg9
S'haughty,Haughtiness in bearing and attitude; arrogance. haughty'
p7355
ssS'gallant'
p7356
(dp7357
g3
(lp7358
sg5
(lp7359
sg7
g8
sg9
S'(of a person or their behaviour) brave; heroic'
p7360
ssS'Conjecture'
p7361
(dp7362
g3
(lp7363
sg5
(lp7364
sg7
g8
sg9
S'Surmise; guess'
p7365
ssS'loquacious'
p7366
(dp7367
g3
(lp7368
sg5
(lp7369
sg7
g15
sg9
S'talkative'
p7370
ssS'Disdain'
p7371
(dp7372
g3
(lp7373
sg5
(lp7374
sg7
g8
sg9
S'Strong dislike'
p7375
ssS'fathom'
p7376
(dp7377
g3
(lp7378
sg5
(lp7379
sg7
g8
sg9
S'to comprehend'
p7380
ssS'remiss'
p7381
(dp7382
g3
(lp7383
sg5
(lp7384
sg7
g8
sg9
S'negligent'
p7385
ssS'invective'
p7386
(dp7387
g3
(lp7388
sg5
(lp7389
sg7
g15
sg9
S'verbal abuse'
p7390
ssS'provident'
p7391
(dp7392
g3
(lp7393
sg5
(lp7394
sg7
g15
sg9
S'providing for future need, frugal'
p7395
ssS'implode'
p7396
(dp7397
g3
(lp7398
sg5
(lp7399
sg7
g15
sg9
S'collapse inward violently'
p7400
ssS'craving'
p7401
(dp7402
g3
(lp7403
sg5
(lp7404
sg7
g8
sg9
S'n. strong physical desire'
p7405
ssS'substantiate'
p7406
(dp7407
g3
(lp7408
sg5
(lp7409
sg7
g15
sg9
S'to support with proof or evidence'
p7410
ssS'overweening'
p7411
(dp7412
g3
(lp7413
sg5
(lp7414
(lp7415
S'28/07/2015'
p7416
aF8.044284105300903
aasg7
g15
sg9
S'presumptuous; arrogant'
p7417
ssS'Conscientious'
p7418
(dp7419
g3
(lp7420
sg5
(lp7421
sg7
g8
sg9
S'Scrupulous; careful'
p7422
ssS'Protrude'
p7423
(dp7424
g3
(lp7425
sg5
(lp7426
sg7
g8
sg9
S'Stick out'
p7427
ssS'facilitate'
p7428
(dp7429
g3
(lp7430
sg5
(lp7431
sg7
g15
sg9
S'to make less difficult'
p7432
ssS'comely'
p7433
(dp7434
g3
(lp7435
sg5
(lp7436
sg7
g8
sg9
S'adj. attractive'
p7437
ssS'incarnate'
p7438
(dp7439
g3
(lp7440
sg5
(lp7441
(lp7442
S'28/07/2015'
p7443
aF5.985290050506592
aasg7
g15
sg9
S'having bodily form'
p7444
ssS'platonic'
p7445
(dp7446
g3
(lp7447
(lp7448
S'28/07/2015'
p7449
aI15
ag419
aasg5
(lp7450
sg7
g15
sg9
S'spiritual; theoretical'
p7451
ssS'felicitous'
p7452
(dp7453
g3
(lp7454
sg5
(lp7455
(lp7456
S'28/07/2015'
p7457
aF10.864663124084473
aasg7
g15
sg9
S'well chosen or suited to the circumstances'
p7458
ssS'introspective'
p7459
(dp7460
g3
(lp7461
sg5
(lp7462
sg7
g15
sg9
S"contemplating one's own thoughts and feelings"
p7463
ssS'Wizened'
p7464
(dp7465
g3
(lp7466
sg5
(lp7467
sg7
g8
sg9
S'(adj.) dry, shrunken, and wrinkled (often as the result of aging)'
p7468
ssS'instill'
p7469
(dp7470
g3
(lp7471
sg5
(lp7472
sg7
g8
sg9
S'(v.) to add gradually; to introduce or cause to be taken in'
p7473
ssS'opportune'
p7474
(dp7475
g3
(lp7476
sg5
(lp7477
sg7
g8
sg9
S'(of a time) well-chosen or particularly favorable or appropriate.'
p7478
ssS'salutary'
p7479
(dp7480
g3
(lp7481
sg5
(lp7482
sg7
g15
sg9
S'expecting an improvement, favorable to health'
p7483
ssS'singular'
p7484
(dp7485
g3
(lp7486
sg5
(lp7487
(lp7488
S'28/07/2015'
p7489
aF17.58774209022522
aasg7
g15
sg9
S'unique, extraordinary, odd'
p7490
ssS'extrinsic'
p7491
(dp7492
g3
(lp7493
(lp7494
S'28/07/2015'
p7495
aI15
ag419
aasg5
(lp7496
sg7
g15
sg9
S'not inherent or essential'
p7497
ssS'accretion'
p7498
(dp7499
g3
(lp7500
sg5
(lp7501
sg7
g15
sg9
S'growth in size or increase in amount'
p7502
ssS'natty'
p7503
(dp7504
g3
(lp7505
sg5
(lp7506
sg7
g8
sg9
S'accurate, trim, tidy, careful'
p7507
ssS'pervasive'
p7508
(dp7509
g3
(lp7510
sg5
(lp7511
sg7
g15
sg9
S'spread throughout every part'
p7512
ssS'Dabble'
p7513
(dp7514
g3
(lp7515
sg5
(lp7516
sg7
g8
sg9
S'Take part in an activity that is not serious'
p7517
ssS'chagrin'
p7518
(dp7519
g3
(lp7520
sg5
(lp7521
sg7
g8
sg9
S'embarrassment; shame'
p7522
ssS'argot'
p7523
(dp7524
g3
(lp7525
sg5
(lp7526
sg7
g15
sg9
S'a specialized vocabulary used by a group'
p7527
ssS'dreary'
p7528
(dp7529
g3
(lp7530
sg5
(lp7531
sg7
g8
sg9
S'dismal, bleak, sad, boring or dull'
p7532
ssS'burlesque'
p7533
(dp7534
g3
(lp7535
sg5
(lp7536
sg7
g8
sg9
S'ludicrous, mocking, or exaggerated imitation'
p7537
ssS'expatriate'
p7538
(dp7539
g3
(lp7540
sg5
(lp7541
sg7
g15
sg9
S'to send into exile'
p7542
ssS'Subjugate'
p7543
(dp7544
g3
(lp7545
sg5
(lp7546
sg7
g8
sg9
S'Conquer'
p7547
ssS'neologism'
p7548
(dp7549
g3
(lp7550
sg5
(lp7551
sg7
g15
sg9
S'new word or expression'
p7552
ssS'condone'
p7553
(dp7554
g3
(lp7555
(lp7556
S'28/07/2015'
p7557
aI15
ag419
aasg5
(lp7558
sg7
g15
sg9
S'to overlook voluntarily; forgive'
p7559
ssS'prune'
p7560
(dp7561
g3
(lp7562
sg5
(lp7563
sg7
g8
sg9
S'trim'
p7564
ssS'churlish'
p7565
(dp7566
g3
(lp7567
sg5
(lp7568
sg7
g15
sg9
S'rude; boorish'
p7569
ssS'frugal'
p7570
(dp7571
g3
(lp7572
sg5
(lp7573
sg7
g8
sg9
S'sparing or economical as regards money or food.'
p7574
ssS'transgression'
p7575
(dp7576
g3
(lp7577
sg5
(lp7578
(lp7579
S'28/07/2015'
p7580
aF3.4322431087493896
aasg7
g15
sg9
S'act of trespassing or violating a law or rule'
p7581
ssS'coronation'
p7582
(dp7583
g3
(lp7584
sg5
(lp7585
sg7
g8
sg9
S'n. crowning of a monarch'
p7586
ssS'torrent'
p7587
(dp7588
g3
(lp7589
sg5
(lp7590
sg7
g8
sg9
S'large amount of something that is released suddenly'
p7591
ssS'gambol'
p7592
(dp7593
g3
(lp7594
sg5
(lp7595
sg7
g15
sg9
S'to frolic; leap playfully'
p7596
ssS'stipple'
p7597
(dp7598
g3
(lp7599
sg5
(lp7600
sg7
g8
sg9
S'v. draw using dots'
p7601
ssS'sardonic'
p7602
(dp7603
g3
(lp7604
sg5
(lp7605
sg7
g15
sg9
S'cynical, scornfully mocking'
p7606
ssS'metaphysics'
p7607
(dp7608
g3
(lp7609
sg5
(lp7610
sg7
g15
sg9
S'a branch of philosophy tha tinvestigates the ultimate nature of reality'
p7611
ssS'catholic'
p7612
(dp7613
g3
(lp7614
sg5
(lp7615
sg7
g8
sg9
S'adj. all-embracing'
p7616
ssS'Veer'
p7617
(dp7618
g3
(lp7619
sg5
(lp7620
sg7
g8
sg9
S'Change in direction'
p7621
ssS'florid'
p7622
(dp7623
g3
(lp7624
sg5
(lp7625
(lp7626
S'28/07/2015'
p7627
aF3.179245948791504
aasg7
g15
sg9
S'ruddy; reddish; flowery'
p7628
ssS'ephemeral'
p7629
(dp7630
g3
(lp7631
sg5
(lp7632
sg7
g15
sg9
S'short-lived; fleeting'
p7633
ssS'apprise'
p7634
(dp7635
g3
(lp7636
sg5
(lp7637
sg7
g15
sg9
S'to inform'
p7638
ssS'precipice'
p7639
(dp7640
g3
(lp7641
sg5
(lp7642
sg7
g8
sg9
S'n. cliff'
p7643
ssS'adjunct'
p7644
(dp7645
g3
(lp7646
sg5
(lp7647
sg7
g15
sg9
S'something added, attached, or joined'
p7648
ssS'singe'
p7649
(dp7650
g3
(lp7651
sg5
(lp7652
sg7
g8
sg9
S'v. burn lightly'
p7653
ssS'divert'
p7654
(dp7655
g3
(lp7656
sg5
(lp7657
sg7
g8
sg9
S'to draw attention from something'
p7658
ssS'cozen'
p7659
(dp7660
g3
(lp7661
sg5
(lp7662
sg7
g15
sg9
S'to mislead by trick or fraud; decieve'
p7663
ssS'mongrel'
p7664
(dp7665
g3
(lp7666
sg5
(lp7667
sg7
g8
sg9
S'n. of mixed breeds'
p7668
ssS'axiomatic'
p7669
(dp7670
g3
(lp7671
sg5
(lp7672
sg7
g15
sg9
S'taken for granted; self-evident truth'
p7673
ssS'Manifest'
p7674
(dp7675
g3
(lp7676
sg5
(lp7677
sg7
g8
sg9
S'Show clearly'
p7678
ssS'cipher'
p7679
(dp7680
g3
(lp7681
sg5
(lp7682
sg7
g8
sg9
S'n. secret code'
p7683
ssS'delve'
p7684
(dp7685
g3
(lp7686
sg5
(lp7687
sg7
g8
sg9
S'(v.) to dig; to search deeply and thoroughly into'
p7688
ssS'munificent'
p7689
(dp7690
g3
(lp7691
sg5
(lp7692
sg7
g8
sg9
S'adj. very generous'
p7693
ssS'truce'
p7694
(dp7695
g3
(lp7696
sg5
(lp7697
sg7
g8
sg9
S'(n.) An agreement between opposing groups'
p7698
ssS'inexorable'
p7699
(dp7700
g3
(lp7701
sg5
(lp7702
sg7
g8
sg9
S'unstoppable'
p7703
ssS'admonish'
p7704
(dp7705
g3
(lp7706
sg5
(lp7707
sg7
g15
sg9
S'to caution or reprimand'
p7708
ssS'dent'
p7709
(dp7710
g3
(lp7711
sg5
(lp7712
sg7
g8
sg9
S'L. tooth (indent)'
p7713
ssS'penitent'
p7714
(dp7715
g3
(lp7716
sg5
(lp7717
sg7
g8
sg9
S'feeling or showing sorrow and regret for having done wrong; repentant: a penitent expression.'
p7718
ssS'discursive'
p7719
(dp7720
g3
(lp7721
sg5
(lp7722
sg7
g8
sg9
S'desultory,digressional,excursive, rambling, lengthy with digressions'
p7723
ssS'absurd'
p7724
(dp7725
g3
(lp7726
sg5
(lp7727
sg7
g8
sg9
S'adj. meaninglessly illogical'
p7728
ssS'inept'
p7729
(dp7730
g3
(lp7731
sg5
(lp7732
sg7
g8
sg9
S'incompetent, clumsy, unskilled'
p7733
ssS'rubric'
p7734
(dp7735
g3
(lp7736
sg5
(lp7737
(lp7738
S'28/07/2015'
p7739
aF13.845829010009766
aasg7
g15
sg9
S'protocol, title or heading'
p7740
ssS'utter'
p7741
(dp7742
g3
(lp7743
sg5
(lp7744
sg7
g8
sg9
S'complete; absolute.'
p7745
ssS'obsequious'
p7746
(dp7747
g3
(lp7748
sg5
(lp7749
sg7
g15
sg9
S'overly submissive'
p7750
ssS'litigation'
p7751
(dp7752
g3
(lp7753
sg5
(lp7754
sg7
g15
sg9
S'legal proceedings'
p7755
ssS'cavort'
p7756
(dp7757
g3
(lp7758
sg5
(lp7759
sg7
g8
sg9
S'to romp or prance around exuberantly; to make merry'
p7760
ssS'scurrilous'
p7761
(dp7762
g3
(lp7763
sg5
(lp7764
sg7
g8
sg9
S'remarks, articles etc contain damaging and untrue statements about someone'
p7765
ssS'jaundiced'
p7766
(dp7767
g3
(lp7768
sg5
(lp7769
sg7
g15
sg9
S'having a yellowish discoloration of the skin; affected by envy'
p7770
ssS'flinch'
p7771
(dp7772
g3
(lp7773
sg5
(lp7774
sg7
g8
sg9
S'Hesitate; shrink'
p7775
ssS'Embroider'
p7776
(dp7777
g3
(lp7778
sg5
(lp7779
sg7
g8
sg9
S'Decorate with needlework; ornament with fancy or fictitious details'
p7780
ssS'dodge'
p7781
(dp7782
g3
(lp7783
sg5
(lp7784
sg7
g8
sg9
S'v. to avoid being hit by something by moving quickly to one side.'
p7785
ssS'gratify'
p7786
(dp7787
g3
(lp7788
sg5
(lp7789
sg7
g8
sg9
S'v. to please or indulge'
p7790
ssS'aphorism'
p7791
(dp7792
g3
(lp7793
sg5
(lp7794
sg7
g8
sg9
S'n. short statement expressing wisdom or wit'
p7795
ssS'perigee'
p7796
(dp7797
g3
(lp7798
sg5
(lp7799
sg7
g15
sg9
S'point in an orbit that is closest to the earth'
p7800
ssS'Coax'
p7801
(dp7802
g3
(lp7803
sg5
(lp7804
sg7
g8
sg9
S'Influence or persuade by talking in a gentle and friendly way'
p7805
ssS'accrue'
p7806
(dp7807
g3
(lp7808
sg5
(lp7809
sg7
g15
sg9
S'to accumulate; grow by additions'
p7810
ssS'syllogism'
p7811
(dp7812
g3
(lp7813
sg5
(lp7814
sg7
g15
sg9
S'a form of deductive reasoning with a major premise, a minor premise, and a conclusion'
p7815
ssS'extemporaneous'
p7816
(dp7817
g3
(lp7818
(lp7819
S'28/07/2015'
p7820
aI15
ag419
aasg5
(lp7821
sg7
g15
sg9
S'unrehearsed'
p7822
ssS'defame'
p7823
(dp7824
g3
(lp7825
sg5
(lp7826
sg7
g15
sg9
S"to malign; harm someone's reputation"
p7827
ssS'nefarious'
p7828
(dp7829
g3
(lp7830
sg5
(lp7831
sg7
g8
sg9
S'adj. very mean and wicked'
p7832
ssS'Vicarious'
p7833
(dp7834
g3
(lp7835
sg5
(lp7836
sg7
g8
sg9
S'Acting as a substitute'
p7837
ssS'cachet'
p7838
(dp7839
g3
(lp7840
sg5
(lp7841
sg7
g8
sg9
S'n. a sign or expression of approval, especially from a person who has a great deal of prestige.'
p7842
ssS'solicitous'
p7843
(dp7844
g3
(lp7845
sg5
(lp7846
sg7
g15
sg9
S'concerned, attentive, eager'
p7847
ssS'juxtapose'
p7848
(dp7849
g3
(lp7850
sg5
(lp7851
sg7
g15
sg9
S'place side by side'
p7852
ssS'theocracy'
p7853
(dp7854
g3
(lp7855
sg5
(lp7856
sg7
g15
sg9
S'government by priests representing a god'
p7857
ssS'gerrymander'
p7858
(dp7859
g3
(lp7860
sg5
(lp7861
sg7
g15
sg9
S'to divide an area into voting districts in a way that favors a political party'
p7862
ssS'luminous'
p7863
(dp7864
g3
(lp7865
sg5
(lp7866
sg7
g15
sg9
S'bright; brilliant; glowing'
p7867
ssS'literati'
p7868
(dp7869
g3
(lp7870
sg5
(lp7871
sg7
g15
sg9
S'scholarly or learned persons'
p7872
ssS'partisan'
p7873
(dp7874
g3
(lp7875
sg5
(lp7876
sg7
g15
sg9
S'one-sided; committed to a party, group or cause'
p7877
ssS'imprecation'
p7878
(dp7879
g3
(lp7880
sg5
(lp7881
sg7
g15
sg9
S'curse; damnation'
p7882
ssS'diverge'
p7883
(dp7884
g3
(lp7885
sg5
(lp7886
sg7
g15
sg9
S'to vary; go in different directions from the same point'
p7887
ssS'unwonted'
p7888
(dp7889
g3
(lp7890
sg5
(lp7891
sg7
g8
sg9
S'not usual or expected; not in character'
p7892
ssS'sabotage'
p7893
(dp7894
g3
(lp7895
sg5
(lp7896
sg7
g8
sg9
S'to secretely damage or destroy equipment, vehicles etc.'
p7897
ssS'browbeat'
p7898
(dp7899
g3
(lp7900
sg5
(lp7901
sg7
g8
sg9
S'v. yell at'
p7902
ssS'antics'
p7903
(dp7904
g3
(lp7905
sg5
(lp7906
sg7
g8
sg9
S'(n. pl.) ridiculous and unpredictable behavior or actions'
p7907
ssS'interpolate'
p7908
(dp7909
g3
(lp7910
sg5
(lp7911
sg7
g15
sg9
S'to insert; change by adding new words or material'
p7912
ssS'specious'
p7913
(dp7914
g3
(lp7915
sg5
(lp7916
sg7
g15
sg9
S'seeming to be logical and sound, but not really so'
p7917
ssS'waylay'
p7918
(dp7919
g3
(lp7920
sg5
(lp7921
sg7
g8
sg9
S'(v.) To lie in wait for and attack; To ambush'
p7922
ssS'solace'
p7923
(dp7924
g3
(lp7925
sg5
(lp7926
sg7
g8
sg9
S'n. comfort from pain or grief; consolation'
p7927
ssS'tantrum'
p7928
(dp7929
g3
(lp7930
sg5
(lp7931
sg7
g8
sg9
S'an uncontrolled outburst of anger and frustration, typically in a young child; caprice'
p7932
ssS'inundate'
p7933
(dp7934
g3
(lp7935
sg5
(lp7936
(lp7937
S'28/07/2015'
p7938
aF4.83097505569458
aasg7
g15
sg9
S'to cover with water, overwhelm'
p7939
ssS'asunder'
p7940
(dp7941
g3
(lp7942
sg5
(lp7943
sg7
g8
sg9
S'adv. into separate parts or pieces'
p7944
ssS'perfidious'
p7945
(dp7946
g3
(lp7947
(lp7948
S'28/07/2015'
p7949
aI15
ag419
aasg5
(lp7950
sg7
g15
sg9
S'faithless; disloyal; untrustworthy'
p7951
ssS'fester'
p7952
(dp7953
g3
(lp7954
sg5
(lp7955
sg7
g8
sg9
S'to rot'
p7956
ssS'commend'
p7957
(dp7958
g3
(lp7959
sg5
(lp7960
sg7
g8
sg9
S'to praise; to extol'
p7961
ssS'Vicissitude'
p7962
(dp7963
g3
(lp7964
sg5
(lp7965
sg7
g8
sg9
S'a change of circumstances or fortune, typically one that is unwelcome or unpleasant'
p7966
ssS'depravity'
p7967
(dp7968
g3
(lp7969
sg5
(lp7970
sg7
g8
sg9
S'1. corruption 2. corrupt act'
p7971
ssS'blatant'
p7972
(dp7973
g3
(lp7974
sg5
(lp7975
sg7
g8
sg9
S'noisy; glaring'
p7976
ssS'Deracinate'
p7977
(dp7978
g3
(lp7979
sg5
(lp7980
sg7
g8
sg9
S'to uproot, eradicate, extirpate, expunge'
p7981
ssS'stentorian'
p7982
(dp7983
g3
(lp7984
sg5
(lp7985
sg7
g15
sg9
S'extremely loud'
p7986
ssS'Intermittent'
p7987
(dp7988
g3
(lp7989
sg5
(lp7990
sg7
g8
sg9
S'Recurring. Stopping and starting; sporadic'
p7991
ssS'Politic'
p7992
(dp7993
g3
(lp7994
sg5
(lp7995
sg7
g8
sg9
S'seeming sensible and judicious under the circumstances ; Expedient; prudent; well advised'
p7996
ssS'shiftless'
p7997
(dp7998
g3
(lp7999
sg5
(lp8000
sg7
g8
sg9
S'(adj.) lazy, lacking in ambition and energy; inefficient'
p8001
ssS'derivative'
p8002
(dp8003
g3
(lp8004
sg5
(lp8005
(lp8006
S'28/07/2015'
p8007
aF3.2221028804779053
aasg7
g15
sg9
S'something derived; unoriginal'
p8008
ssS'altruism'
p8009
(dp8010
g3
(lp8011
sg5
(lp8012
sg7
g8
sg9
S'n. doing good for others(opp: egoism)'
p8013
ssS'cacophonous'
p8014
(dp8015
g3
(lp8016
sg5
(lp8017
sg7
g15
sg9
S'unpleasant or harsh-sounding'
p8018
ssS'vapid'
p8019
(dp8020
g3
(lp8021
sg5
(lp8022
sg7
g15
sg9
S'tasteless, dull'
p8023
ssS'asexual'
p8024
(dp8025
g3
(lp8026
sg5
(lp8027
sg7
g8
sg9
S'adj. having no interest in sex'
p8028
ssS'pandemonium'
p8029
(dp8030
g3
(lp8031
sg5
(lp8032
sg7
g8
sg9
S'n. chaotic confusion'
p8033
ssS'Plausible'
p8034
(dp8035
g3
(lp8036
sg5
(lp8037
sg7
g8
sg9
S'Seemingly credible or worthy of acceptance.'
p8038
ssS'plangent'
p8039
(dp8040
g3
(lp8041
sg5
(lp8042
sg7
g8
sg9
S'(of a sound) loud, reverberating, and often melancholy.'
p8043
ssS'fallacious'
p8044
(dp8045
g3
(lp8046
sg5
(lp8047
sg7
g15
sg9
S'based on a false idea or fact; misleading'
p8048
ssS'venomous'
p8049
(dp8050
g3
(lp8051
sg5
(lp8052
sg7
g8
sg9
S'(adj.) Malicious, spiteful, and mean'
p8053
ssS'lassitude'
p8054
(dp8055
g3
(lp8056
sg5
(lp8057
sg7
g15
sg9
S'lethargy; sluggishness'
p8058
ssS'Martinet'
p8059
(dp8060
g3
(lp8061
sg5
(lp8062
sg7
g8
sg9
S'Strict disciplinarian'
p8063
ssS'amenity'
p8064
(dp8065
g3
(lp8066
sg5
(lp8067
sg7
g15
sg9
S'something that increases comfort'
p8068
ssS'concerted'
p8069
(dp8070
g3
(lp8071
sg5
(lp8072
sg7
g8
sg9
S'(adj.)  planned or preformed in cooperation with others'
p8073
ssS'Proffer'
p8074
(dp8075
g3
(lp8076
sg5
(lp8077
sg7
g8
sg9
S'Offer; put before a person for acceptance'
p8078
ssS'tonic'
p8079
(dp8080
g3
(lp8081
sg5
(lp8082
sg7
g8
sg9
S'refreshing'
p8083
ssS'lascivious'
p8084
(dp8085
g3
(lp8086
sg5
(lp8087
sg7
g15
sg9
S'lustful'
p8088
ssS'Motility'
p8089
(dp8090
g3
(lp8091
sg5
(lp8092
sg7
g8
sg9
S'_ is a biological term which refers to the ability to move spontaneously and actively, consuming energy in the process (sperm, egg).'
p8093
ssS'ostentatious'
p8094
(dp8095
g3
(lp8096
(lp8097
S'28/07/2015'
p8098
aI15
ag419
aasg5
(lp8099
(lp8100
S'28/07/2015'
p8101
aF7.87895393371582
aasg7
g15
sg9
S'showy; pretentious'
p8102
ssS'dilate'
p8103
(dp8104
g3
(lp8105
sg5
(lp8106
sg7
g8
sg9
S'v. make wider'
p8107
ssS'untoward'
p8108
(dp8109
g3
(lp8110
sg5
(lp8111
sg7
g15
sg9
S'not favorable, troublesome, unruly'
p8112
ssS'eulogize'
p8113
(dp8114
g3
(lp8115
sg5
(lp8116
sg7
g8
sg9
S'v. to praise, to say good things about (as in eulogy)'
p8117
ssS'propensity'
p8118
(dp8119
g3
(lp8120
sg5
(lp8121
sg7
g15
sg9
S'inclination, tendency'
p8122
ssS'Enfranchise'
p8123
(dp8124
g3
(lp8125
sg5
(lp8126
sg7
g8
sg9
S'Admit citizenship'
p8127
ssS'schematic'
p8128
(dp8129
g3
(lp8130
sg5
(lp8131
sg7
g15
sg9
S'relating to or in the form of an outline or diagram'
p8132
ssS'eclectic'
p8133
(dp8134
g3
(lp8135
(lp8136
S'28/07/2015'
p8137
aI15
ag419
aasg5
(lp8138
sg7
g15
sg9
S'selecting from various sources'
p8139
ssS'frivolous'
p8140
(dp8141
g3
(lp8142
sg5
(lp8143
sg7
g8
sg9
S'not important'
p8144
ssS'garish'
p8145
(dp8146
g3
(lp8147
sg5
(lp8148
sg7
g8
sg9
S'dressed too brightly'
p8149
ssS'balk'
p8150
(dp8151
g3
(lp8152
sg5
(lp8153
sg7
g8
sg9
S'(n.) An barrier, obstacle or hindrance causing defeat; (v.) To stop short and refuse to go on'
p8154
ssS'bale'
p8155
(dp8156
g3
(lp8157
sg5
(lp8158
sg7
g8
sg9
S'n. suffering as a result of evil'
p8159
ssS'spleenful'
p8160
(dp8161
g3
(lp8162
sg5
(lp8163
sg7
g8
sg9
S'full of or displaying spleen; ill humored; irritable or peevish; spiteful; splenetic'
p8164
ssS'appall'
p8165
(dp8166
g3
(lp8167
sg5
(lp8168
sg7
g8
sg9
S'to shock and disgust'
p8169
ssS'impeccable'
p8170
(dp8171
g3
(lp8172
sg5
(lp8173
sg7
g8
sg9
S'(adj.) faultless, beyond criticism or blame'
p8174
ssS'compendium'
p8175
(dp8176
g3
(lp8177
(lp8178
S'28/07/2015'
p8179
aI15
ag419
aasg5
(lp8180
sg7
g15
sg9
S'brief, comprehensive summary'
p8181
ssS'retard'
p8182
(dp8183
g3
(lp8184
sg5
(lp8185
sg7
g8
sg9
S'delay or hold back in terms of progress, development, or accomplishment'
p8186
ssS'warranted'
p8187
(dp8188
g3
(lp8189
sg5
(lp8190
sg7
g15
sg9
S'justified'
p8191
ssS'timbre'
p8192
(dp8193
g3
(lp8194
sg5
(lp8195
sg7
g15
sg9
S'voice tone color'
p8196
ssS'castigation'
p8197
(dp8198
g3
(lp8199
sg5
(lp8200
sg7
g15
sg9
S'punishment; chastisement; criticism'
p8201
ssS'contumacious'
p8202
(dp8203
g3
(lp8204
sg5
(lp8205
sg7
g15
sg9
S'disobedient; rebellious'
p8206
ssS'draconian'
p8207
(dp8208
g3
(lp8209
sg5
(lp8210
sg7
g8
sg9
S'extremely harsh or severe'
p8211
ssS'intransigence'
p8212
(dp8213
g3
(lp8214
sg5
(lp8215
sg7
g15
sg9
S'stubbornness; refusal to compromise'
p8216
ssS'ratify'
p8217
(dp8218
g3
(lp8219
sg5
(lp8220
sg7
g8
sg9
S'approve'
p8221
ssS'glut'
p8222
(dp8223
g3
(lp8224
sg5
(lp8225
sg7
g8
sg9
S'(v.) to provide more than is needed or wanted; to feed or fill to the point of overstuffing; (n.) an oversupply'
p8226
ssS'inveigle'
p8227
(dp8228
g3
(lp8229
sg5
(lp8230
sg7
g15
sg9
S'to win over by flattering or coaxing'
p8231
ssS'evince'
p8232
(dp8233
g3
(lp8234
(lp8235
S'28/07/2015'
p8236
aI15
ag419
aasg5
(lp8237
sg7
g15
sg9
S'to show plainly; be an indication of'
p8238
ssS'interim'
p8239
(dp8240
g3
(lp8241
sg5
(lp8242
sg7
g8
sg9
S'(n.) the time between; (adj.) temporary, coming between two points in time'
p8243
ssS'apostasy'
p8244
(dp8245
g3
(lp8246
sg5
(lp8247
sg7
g8
sg9
S'n. renunciation of religious belief'
p8248
ssS'dais'
p8249
(dp8250
g3
(lp8251
sg5
(lp8252
sg7
g8
sg9
S'a platform in a room that you stand on to make a speech'
p8253
ssS'distend'
p8254
(dp8255
g3
(lp8256
sg5
(lp8257
sg7
g15
sg9
S'to expand; swell out'
p8258
ssS'temerity'
p8259
(dp8260
g3
(lp8261
sg5
(lp8262
sg7
g8
sg9
S'boldness'
p8263
ssS'penchant'
p8264
(dp8265
g3
(lp8266
sg5
(lp8267
sg7
g15
sg9
S'inclination'
p8268
ssS'demographic'
p8269
(dp8270
g3
(lp8271
sg5
(lp8272
sg7
g15
sg9
S'related to population balance'
p8273
ssS'undulating'
p8274
(dp8275
g3
(lp8276
sg5
(lp8277
sg7
g15
sg9
S'moving in waves'
p8278
ssS'arrest'
p8279
(dp8280
g3
(lp8281
sg5
(lp8282
sg7
g15
sg9
S'to stop; to seize'
p8283
ssS'enact'
p8284
(dp8285
g3
(lp8286
sg5
(lp8287
sg7
g8
sg9
S'to make proposed legislation into law'
p8288
ssS'tumid'
p8289
(dp8290
g3
(lp8291
sg5
(lp8292
sg7
g15
sg9
S'swollen, distended'
p8293
ssS'frieze'
p8294
(dp8295
g3
(lp8296
sg5
(lp8297
sg7
g15
sg9
S'ornamental band on a wall'
p8298
ssS'masquerade'
p8299
(dp8300
g3
(lp8301
sg5
(lp8302
sg7
g8
sg9
S'n. the wearing of a disguise'
p8303
ssS'crux'
p8304
(dp8305
g3
(lp8306
sg5
(lp8307
sg7
g8
sg9
S'main point; central issue; heart of the matter'
p8308
ssS'feral'
p8309
(dp8310
g3
(lp8311
sg5
(lp8312
sg7
g15
sg9
S'existing in a wild or untamed state'
p8313
ssS'truculence'
p8314
(dp8315
g3
(lp8316
sg5
(lp8317
sg7
g15
sg9
S'aggressiveness, ferocity'
p8318
ssS'porous'
p8319
(dp8320
g3
(lp8321
sg5
(lp8322
sg7
g15
sg9
S'full of holes; permeable to liquids'
p8323
ssS'incendiary'
p8324
(dp8325
g3
(lp8326
sg5
(lp8327
sg7
g8
sg9
S'deliberatelky setting or causing fires; designed to start fires; tending to stir up strife or rebellion; (n) one who deliberately sets fires, arsonist; one who cause strife'
p8328
ssS'vortex'
p8329
(dp8330
g3
(lp8331
sg5
(lp8332
sg7
g15
sg9
S'whirpool, center of turbulence'
p8333
ssS'divest'
p8334
(dp8335
g3
(lp8336
sg5
(lp8337
sg7
g15
sg9
S'to strip; deprive; rid'
p8338
ssS'Profligate'
p8339
(dp8340
g3
(lp8341
sg5
(lp8342
sg7
g8
sg9
S'Dissipated; wasteful; wildly immoral'
p8343
ssS'parity'
p8344
(dp8345
g3
(lp8346
sg5
(lp8347
sg7
g8
sg9
S'n. equality of treatment'
p8348
ssS'Purvey'
p8349
(dp8350
g3
(lp8351
sg5
(lp8352
sg7
g8
sg9
S'Seller, supplier'
p8353
ssS'corroborate'
p8354
(dp8355
g3
(lp8356
sg5
(lp8357
sg7
g8
sg9
S'confirm as true'
p8358
ssS'Painstaking'
p8359
(dp8360
g3
(lp8361
sg5
(lp8362
sg7
g8
sg9
S'Showing diligent effort or care; careful.'
p8363
ssS'convex'
p8364
(dp8365
g3
(lp8366
sg5
(lp8367
sg7
g15
sg9
S'curved outward'
p8368
ssS'elephantine'
p8369
(dp8370
g3
(lp8371
sg5
(lp8372
sg7
g8
sg9
S'1. slow and heavy 2. enormous 3. similar to an elephant'
p8373
ssS'leery'
p8374
(dp8375
g3
(lp8376
sg5
(lp8377
sg7
g8
sg9
S'suspicious'
p8378
ssS'Ductile'
p8379
(dp8380
g3
(lp8381
sg5
(lp8382
sg7
g8
sg9
S'Malleable; flexible; pliable'
p8383
ssS'staccato'
p8384
(dp8385
g3
(lp8386
sg5
(lp8387
sg7
g15
sg9
S'marked by abrupt, clear-cut sounds'
p8388
ssS'discretion'
p8389
(dp8390
g3
(lp8391
sg5
(lp8392
sg7
g15
sg9
S'quality of showing self-restraint in speech or actions'
p8393
ssS'mutation'
p8394
(dp8395
g3
(lp8396
sg5
(lp8397
sg7
g8
sg9
S'n. change in genes'
p8398
ssS'pilfer'
p8399
(dp8400
g3
(lp8401
sg5
(lp8402
sg7
g8
sg9
S'v. steal'
p8403
ssS'voluptuous'
p8404
(dp8405
g3
(lp8406
sg5
(lp8407
sg7
g8
sg9
S'adj. of or relating to luxury'
p8408
ssS'slur'
p8409
(dp8410
g3
(lp8411
sg5
(lp8412
sg7
g8
sg9
S'smear; insinuation of an insult'
p8413
ssS'ornithologist'
p8414
(dp8415
g3
(lp8416
sg5
(lp8417
sg7
g15
sg9
S'scientist who studies birds'
p8418
ssS'obsequy'
p8419
(dp8420
g3
(lp8421
sg5
(lp8422
(lp8423
S'28/07/2015'
p8424
aF2.035156011581421
aasg7
g15
sg9
S'funeral ceremony'
p8425
ssS'subsume'
p8426
(dp8427
g3
(lp8428
sg5
(lp8429
sg7
g15
sg9
S'to include, incorporate'
p8430
ssS'abstinence'
p8431
(dp8432
g3
(lp8433
sg5
(lp8434
sg7
g15
sg9
S'the giving up of certain pleasures'
p8435
ssS'complaisance'
p8436
(dp8437
g3
(lp8438
sg5
(lp8439
sg7
g8
sg9
S'the willingness to comply with the wishes of others'
p8440
ssS'scorch'
p8441
(dp8442
g3
(lp8443
sg5
(lp8444
sg7
g8
sg9
S'to burn slightly, dry up or criticize sharply'
p8445
ssS'diabolical'
p8446
(dp8447
g3
(lp8448
sg5
(lp8449
sg7
g8
sg9
S'adj. like the devil'
p8450
ssS'tome'
p8451
(dp8452
g3
(lp8453
sg5
(lp8454
sg7
g15
sg9
S'book, usually large and academic'
p8455
ssS'dulcet'
p8456
(dp8457
g3
(lp8458
sg5
(lp8459
sg7
g8
sg9
S'adj. sweet and mild'
p8460
ssS'stultify'
p8461
(dp8462
g3
(lp8463
sg5
(lp8464
sg7
g15
sg9
S'to impair or reduce to uselessness'
p8465
ssS'perfervid'
p8466
(dp8467
g3
(lp8468
sg5
(lp8469
sg7
g8
sg9
S'intense and impassioned'
p8470
ssS'vulgarity'
p8471
(dp8472
g3
(lp8473
sg5
(lp8474
sg7
g8
sg9
S'n. coarseness'
p8475
ssS'articulate'
p8476
(dp8477
g3
(lp8478
sg5
(lp8479
sg7
g8
sg9
S'adj. having the ability to speak coherently'
p8480
ssS'chronic'
p8481
(dp8482
g3
(lp8483
sg5
(lp8484
sg7
g8
sg9
S'constant; lasting a long time'
p8485
ssS'assiduous'
p8486
(dp8487
g3
(lp8488
sg5
(lp8489
sg7
g15
sg9
S'diligent; hard-working'
p8490
ssS'esteem'
p8491
(dp8492
g3
(lp8493
sg5
(lp8494
sg7
g8
sg9
S'n. respect'
p8495
ssS'negate'
p8496
(dp8497
g3
(lp8498
sg5
(lp8499
(lp8500
S'28/07/2015'
p8501
aF1.4981870651245117
aasg7
g15
sg9
S'to cancel out; nullify'
p8502
ssS'fawning'
p8503
(dp8504
g3
(lp8505
sg5
(lp8506
sg7
g15
sg9
S'give a servile display of exaggerated flattery or affection, typically in order to gain favor'
p8507
ssS'noxious'
p8508
(dp8509
g3
(lp8510
sg5
(lp8511
sg7
g8
sg9
S'harmful, injurious'
p8512
ssS'luminary'
p8513
(dp8514
g3
(lp8515
sg5
(lp8516
sg7
g8
sg9
S'n. famous or distinguished person'
p8517
ssS'stamina'
p8518
(dp8519
g3
(lp8520
sg5
(lp8521
sg7
g8
sg9
S'the ability to sustain prolonged physical or mental effort'
p8522
ssS'scintillating'
p8523
(dp8524
g3
(lp8525
sg5
(lp8526
sg7
g8
sg9
S'adj. sparkling'
p8527
ssS'rococo'
p8528
(dp8529
g3
(lp8530
sg5
(lp8531
sg7
g15
sg9
S'excessively ornate'
p8532
ssS'glib'
p8533
(dp8534
g3
(lp8535
sg5
(lp8536
(lp8537
S'28/07/2015'
p8538
aF2.819239854812622
aasg7
g15
sg9
S'fluent in an insincere way; offhand'
p8539
ssS'Stupor'
p8540
(dp8541
g3
(lp8542
sg5
(lp8543
sg7
g8
sg9
S'State of apathy; daze; lack of awareness'
p8544
ssS'Philanthropic'
p8545
(dp8546
g3
(lp8547
sg5
(lp8548
sg7
g8
sg9
S'Showing love of mankind through charitable gifts and deeds'
p8549
ssS'complacency'
p8550
(dp8551
g3
(lp8552
sg5
(lp8553
sg7
g8
sg9
S'n.  self-satisfied ignorance of danger'
p8554
ssS'amity'
p8555
(dp8556
g3
(lp8557
sg5
(lp8558
sg7
g8
sg9
S'harmony, friendship'
p8559
ssS'elicit'
p8560
(dp8561
g3
(lp8562
sg5
(lp8563
sg7
g15
sg9
S'to provoke; draw out'
p8564
ssS'congruity'
p8565
(dp8566
g3
(lp8567
sg5
(lp8568
sg7
g8
sg9
S'n. state of belonging or making sense together'
p8569
ssS'wince'
p8570
(dp8571
g3
(lp8572
sg5
(lp8573
sg7
g8
sg9
S'(n.) A shrinking or startled movement or gesture; (v.) To draw back or tense the body, to flinch'
p8574
ssS'strident'
p8575
(dp8576
g3
(lp8577
sg5
(lp8578
(lp8579
S'28/07/2015'
p8580
aF12.669018030166626
aasg7
g15
sg9
S'loud, harsh, unpleasantly noisy'
p8581
ssS'paean'
p8582
(dp8583
g3
(lp8584
sg5
(lp8585
sg7
g15
sg9
S'song of joy or triumph; a fervent expression of joy'
p8586
ssS'behemoth'
p8587
(dp8588
g3
(lp8589
sg5
(lp8590
sg7
g15
sg9
S'huge creature; anything very large and powerful'
p8591
ssS'oligarchy'
p8592
(dp8593
g3
(lp8594
sg5
(lp8595
sg7
g15
sg9
S'form of government in which power belongs to only a few leaders'
p8596
ssS'dearth'
p8597
(dp8598
g3
(lp8599
sg5
(lp8600
sg7
g15
sg9
S'scarcity'
p8601
ssS'lissome'
p8602
(dp8603
g3
(lp8604
sg5
(lp8605
sg7
g8
sg9
S'adj. supple, athletic(not lithe, limber)'
p8606
ssS'pastiche'
p8607
(dp8608
g3
(lp8609
sg5
(lp8610
sg7
g8
sg9
S'n. humorous imitation; parody; travesty'
p8611
ssS'sobriety'
p8612
(dp8613
g3
(lp8614
sg5
(lp8615
sg7
g15
sg9
S'seriousness'
p8616
ssS'unimpeachable'
p8617
(dp8618
g3
(lp8619
sg5
(lp8620
sg7
g8
sg9
S'not able to be doubted, questioned, or criticized; entirely ; Unassailable'
p8621
ssS'Babble'
p8622
(dp8623
g3
(lp8624
sg5
(lp8625
sg7
g8
sg9
S'Chatter idly'
p8626
ssS'boon'
p8627
(dp8628
g3
(lp8629
sg5
(lp8630
sg7
g8
sg9
S'n. something to be grateful for'
p8631
ssS'fledgling'
p8632
(dp8633
g3
(lp8634
sg5
(lp8635
sg7
g15
sg9
S'beginner; novice'
p8636
ssS'ecstatic'
p8637
(dp8638
g3
(lp8639
sg5
(lp8640
sg7
g8
sg9
S'delighted'
p8641
ssS'dismantle'
p8642
(dp8643
g3
(lp8644
sg5
(lp8645
sg7
g8
sg9
S'destroy in an orderly way'
p8646
ssS'vignette'
p8647
(dp8648
g3
(lp8649
sg5
(lp8650
sg7
g8
sg9
S'n. a brief descriptive passage in writing'
p8651
ssS'Regress'
p8652
(dp8653
g3
(lp8654
sg5
(lp8655
sg7
g8
sg9
S'Return to an earlier and usually worse condition or state'
p8656
ssS'seismic'
p8657
(dp8658
g3
(lp8659
sg5
(lp8660
sg7
g15
sg9
S'relating to earthquakes'
p8661
ssS'extort'
p8662
(dp8663
g3
(lp8664
sg5
(lp8665
sg7
g8
sg9
S'v. obtain by force'
p8666
ssS'ramble'
p8667
(dp8668
g3
(lp8669
sg5
(lp8670
sg7
g8
sg9
S'v. to talk on and on pointlessly'
p8671
ssS'insipid'
p8672
(dp8673
g3
(lp8674
sg5
(lp8675
sg7
g15
sg9
S'lacking in flavor; dull'
p8676
ssS'coquette'
p8677
(dp8678
g3
(lp8679
sg5
(lp8680
sg7
g15
sg9
S'woman who flirts'
p8681
ssS'mercenary'
p8682
(dp8683
g3
(lp8684
sg5
(lp8685
sg7
g8
sg9
S'motivated by money'
p8686
ssS'abhor'
p8687
(dp8688
g3
(lp8689
sg5
(lp8690
sg7
g8
sg9
S'hate'
p8691
ss.