(dp0
S'voluble'
p1
(dp2
S'class'
p3
S'p3000'
p4
sS'exp'
p5
S'fluent, verbal, having easy use of spoken language'
p6
ssS'dissolution'
p7
(dp8
S'right'
p9
(lp10
S'28/07/2015'
p11
aF7.029159069061279
asg3
S'b800'
p12
sg5
S'disintegration;debauchery'
p13
ssS'surreptitious'
p14
(dp15
g3
g4
sg5
S'adj. secretive'
p16
ssS'elegy'
p17
(dp18
g9
(lp19
S'28/07/2015'
p20
aF14.476521015167236
asg3
g12
sg5
S'poem or song expressing lamentation'
p21
ssS'tenuous'
p22
(dp23
g3
g12
sg5
S'weak, insubstantial'
p24
ssS'minuscule'
p25
(dp26
g9
(lp27
S'28/07/2015'
p28
aF2.866441011428833
asg3
g12
sg5
S'very small'
p29
ssS'Wry'
p30
(dp31
g3
g4
sg5
S'Grimly humorous.'
p32
ssS'excoriate'
p33
(dp34
g3
g4
sg5
S'v. criticize angrily'
p35
ssS'etymology'
p36
(dp37
g9
(lp38
S'28/07/2015'
p39
aF3.071697950363159
asg3
g12
sg5
S'origin and history of a word'
p40
ssS'sinew'
p41
(dp42
g3
g4
sg5
S'vigorous strength, muscular power or the source thereof'
p43
ssS'rankle'
p44
(dp45
g3
g4
sg5
S'(v.) to cause anger, irritation, or bitterness (with the suggestion that the pain grows worse with time)'
p46
ssS'portentous'
p47
(dp48
g3
g4
sg5
S'adj. acting as a sign for the future'
p49
ssS'plaintive'
p50
(dp51
g9
(lp52
S'28/07/2015'
p53
aF11.914607048034668
asg3
g12
sg5
S'melancholy; mournful'
p54
ssS'vociferous'
p55
(dp56
g3
g4
sg5
S'adj: loud; boisterous'
p57
ssS'intercessor'
p58
(dp59
g3
g4
sg5
S"n. someone who steps in on another's behalf"
p60
ssS'stipulate'
p61
(dp62
g3
g12
sg5
S'to specify as an essential condition'
p63
ssS'eugenics'
p64
(dp65
g9
(lp66
S'28/07/2015'
p67
aI15
asg3
g12
sg5
S'study of factors that influence the hereditary qualities of the human race and ways to improve those qualities'
p68
ssS'Cogent'
p69
(dp70
g3
g4
sg5
S'Convincing'
p71
ssS'anemic'
p72
(dp73
g3
g4
sg5
S'lacking force, vitality, or spirit(sapless, feeble, decrepit, wan, pale, pallid, effete, lethargic)'
p74
ssS'protean'
p75
(dp76
g3
g4
sg5
S'adj. constantly changing'
p77
ssS'grueling'
p78
(dp79
g3
g4
sg5
S'very tiring and exhausting'
p80
ssS'vitriolic'
p81
(dp82
g3
g4
sg5
S'adj. highly corrosive, bitterly scathing, caustic, virulent'
p83
ssS'enhance'
p84
(dp85
g9
(lp86
S'28/07/2015'
p87
aF2.861297130584717
asg3
g12
sg5
S'to increase; improve'
p88
ssS'veritable'
p89
(dp90
g3
g4
sg5
S'true'
p91
ssS'pragmatic'
p92
(dp93
g9
(lp94
S'28/07/2015'
p95
aF6.186756134033203
asg3
g12
sg5
S'practical'
p96
ssS'concise'
p97
(dp98
g3
g4
sg5
S'adj. to the point; expressing a lot in a few words(brevity)'
p99
ssS'reprehension'
p100
(dp101
g3
g4
sg5
S'n. telling off'
p102
ssS'scrutinize'
p103
(dp104
g3
g4
sg5
S'v. examine closely'
p105
ssS'tangential'
p106
(dp107
g9
(lp108
S'28/07/2015'
p109
aI15
asg3
g12
sg5
S'peripheral, irrelevant, digressing'
p110
ssS'tether'
p111
(dp112
g3
g4
sg5
S'(n.) a rope or chain used to fasten something to a fixed object; the outer limit of strength or resources; (v.) to fasten with a rope or chain'
p113
ssS'sterile'
p114
(dp115
g3
g4
sg5
S'uncontaminated; pure; infertile'
p116
ssS'Retrench'
p117
(dp118
g3
g4
sg5
S'Cut down; economize'
p119
ssS'jocular'
p120
(dp121
g3
g4
sg5
S'adj. in a jokey spirit(not jocund)'
p122
ssS'malleable'
p123
(dp124
g3
g12
sg5
S'able to be hammered or pressed permanently out of shape without breaking or cracking'
p125
ssS'insinuate'
p126
(dp127
g9
(lp128
S'28/07/2015'
p129
aF31.91135597229004
asg3
g12
sg5
S'to suggest; say indirectly; imply'
p130
ssS'maverick'
p131
(dp132
g3
g12
sg5
S'dissenter'
p133
ssS'prate'
p134
(dp135
g3
g12
sg5
S'to talk idly; chatter'
p136
ssS'Renege'
p137
(dp138
g3
g4
sg5
S'Deny'
p139
ssS'Tinge'
p140
(dp141
g3
g4
sg5
S'color slightly'
p142
ssS'recessive'
p143
(dp144
g3
g4
sg5
S'adj. not dominant'
p145
ssS'connoisseur'
p146
(dp147
g9
(lp148
S'28/07/2015'
p149
aI15
asg3
g12
sg5
S'expert in matters of taste; expert knowledge or training'
p150
ssS'etiology'
p151
(dp152
g9
(lp153
S'28/07/2015'
p154
aF14.892850875854492
asg3
g12
sg5
S'causes or origins'
p155
ssS'harass'
p156
(dp157
g3
g4
sg5
S'v. bother'
p158
ssS'leaven'
p159
(dp160
g3
g4
sg5
S'v. add yeast to'
p161
ssS'provident'
p162
(dp163
g9
(lp164
S'28/07/2015'
p165
aF2.392019033432007
asg3
g12
sg5
S'providing for future need, frugal'
p166
ssS'anarchist'
p167
(dp168
g3
g4
sg5
S'n. one who believes in lawless society(chaos,disarray)'
p169
ssS'intrigue'
p170
(dp171
g3
g4
sg5
S'(n.) crafty dealings, underhanded plotting; (v.) to form and carry out plots; to puzzle or excite the curiosity'
p172
ssS'astute'
p173
(dp174
g3
g4
sg5
S'shrewd; keen in judgment'
p175
ssS'punctilious'
p176
(dp177
g9
(lp178
S'28/07/2015'
p179
aF5.51595401763916
asg3
g12
sg5
S'careful in observing rules fo behavior'
p180
ssS'stray'
p181
(dp182
g3
g4
sg5
S'move away aimlessly from a group or from the right course or place; desultory, haphzard'
p183
ssS'Limber'
p184
(dp185
g3
g4
sg5
S'Flexible(not lissome,lithe)'
p186
ssS'Riveting'
p187
(dp188
g3
g4
sg5
S'Absorbing; engrossing'
p189
ssS'Lampoon'
p190
(dp191
g3
g4
sg5
S'Ridicule'
p192
ssS'circumvent'
p193
(dp194
g3
g4
sg5
S'find a way around (an obstacle).'
p195
ssS'exhort'
p196
(dp197
g9
(lp198
S'28/07/2015'
p199
aI15
asg3
g12
sg5
S'to urge by strong appeals'
p200
ssS'Jaunty'
p201
(dp202
g3
g4
sg5
S'Lighthearted; animated'
p203
ssS'inchoate'
p204
(dp205
g3
g12
sg5
S'imperfectely formed or formulated'
p206
ssS'barbarous'
p207
(dp208
g3
g4
sg5
S'savage and uncivilised'
p209
ssS'Profane'
p210
(dp211
g3
g4
sg5
S'Violate; desecrate; treat unworthily'
p212
ssS'wary'
p213
(dp214
g3
g12
sg5
S'careful, cautious'
p215
ssS'mesmerize'
p216
(dp217
g9
(lp218
S'28/07/2015'
p219
aF7.2309019565582275
asg3
g12
sg5
S'to hypnotize'
p220
ssS'dogma'
p221
(dp222
g3
g4
sg5
S'n. credo, doctrine,gospel, belief people must accept'
p223
ssS'qualm'
p224
(dp225
g3
g12
sg5
S'sudden feeling of faintness or nausea'
p226
ssS'adamant'
p227
(dp228
g9
(lp229
S'28/07/2015'
p230
aI15
asg3
g12
sg5
S'uncompromising; unyielding'
p231
ssS'confound'
p232
(dp233
S'wrong'
p234
(lp235
S'28/07/2015'
p236
aI15
asg3
g12
sg5
S'to baffle; perplex; mix up'
p237
ssS'flora'
p238
(dp239
g9
(lp240
S'28/07/2015'
p241
aI15
asg3
g12
sg5
S'plants of a region or era'
p242
ssS'somber'
p243
(dp244
g3
g4
sg5
S'gloomy;stygian'
p245
ssS'grovel'
p246
(dp247
g3
g4
sg5
S'(v.) To show submission or fear; To humble oneself'
p248
ssS'guise'
p249
(dp250
g9
(lp251
S'28/07/2015'
p252
aF7.917838096618652
asg3
g12
sg5
S'outward appearance; false appearance'
p253
ssS'spendthrift'
p254
(dp255
g3
g12
sg5
S'person who spends money recklessly'
p256
ssS'aggrandize'
p257
(dp258
g9
(lp259
S'28/07/2015'
p260
aI15
asg3
g12
sg5
S'to make larger or greater'
p261
ssS'ascetic'
p262
(dp263
g9
(lp264
S'28/07/2015'
p265
aI15
asg3
g12
sg5
S'one who practices self-denial'
p266
ssS'mnemonic'
p267
(dp268
g9
(lp269
S'28/07/2015'
p270
aF5.1828930377960205
asg3
g12
sg5
S'realated to memory; assisting memory'
p271
ssS'defile'
p272
(dp273
g3
g4
sg5
S'(v., trans.) to make unclean or dirty, destroy the purity of; (v., intrans.) to march in a single line or in columns; (n.) a narrow passage; gorge, canyon'
p274
ssS'refulgent'
p275
(dp276
g3
g12
sg5
S'brightly shining, resplendent'
p277
ssS'impair'
p278
(dp279
g9
(lp280
S'28/07/2015'
p281
aF20.09798502922058
asg3
g12
sg5
S'to damage; injure'
p282
ssS'malign'
p283
(dp284
g3
g12
sg5
S'to speak evil of'
p285
ssS'quail'
p286
(dp287
g3
g12
sg5
S'to cower, lose heart'
p288
ssS'enervate'
p289
(dp290
g9
(lp291
S'28/07/2015'
p292
aF1.6182868480682373
asg3
g12
sg5
S'to weaken'
p293
ssS'gargantuan'
p294
(dp295
g3
g4
sg5
S'huge'
p296
ssS'obloquy'
p297
(dp298
g3
g4
sg5
S'strong public criticism or verbal abuse. exasperate'
p299
ssS'provincial'
p300
(dp301
g3
g4
sg5
S'(adj.) pertaining to an outlying area; local; narrow in mind or outlook, countrified in the sense of being limited and backward; of a simple, plain design that originated in the countryside; (n.) a pe'
p302
ssS'Panache'
p303
(dp304
g3
g4
sg5
S'Flair; flamboyance'
p305
ssS'impassive'
p306
(dp307
g9
(lp308
S'28/07/2015'
p309
aF3.9036948680877686
asg3
g12
sg5
S'showing no emotion'
p310
ssS'farce'
p311
(dp312
g3
g4
sg5
S'an absurd situation'
p313
ssS'copious'
p314
(dp315
g9
(lp316
S'28/07/2015'
p317
aI15
asg3
g12
sg5
S'abundant; plentiful'
p318
ssS'debauchery'
p319
(dp320
g9
(lp321
S'28/07/2015'
p322
aI15
asg3
g12
sg5
S'corruption'
p323
ssS'sate'
p324
(dp325
g3
g4
sg5
S'satisfy (a desire or an appetite) to the full'
p326
ssS'facetious'
p327
(dp328
g234
(lp329
S'28/07/2015'
p330
aI15
asg3
g12
sg5
S'treating serious issues with deliberately inappropriate humour; flippant'
p331
ssS'vicious'
p332
(dp333
g3
g4
sg5
S'(adj.) Hurtful; Intending to harm'
p334
ssS'adumbrate'
p335
(dp336
g3
g4
sg5
S'produce an outline or preliminary image; foreshadow'
p337
ssS'fracas'
p338
(dp339
g9
(lp340
S'28/07/2015'
p341
aF4.6732048988342285
asg3
g12
sg5
S'a loud quarrel; brawl'
p342
ssS'Boisterous'
p343
(dp344
g3
g4
sg5
S'Violent; rough; noisy(vociferous, blatant, clamorous, raucous, rowdy)'
p345
ssS'complacent'
p346
(dp347
g9
(lp348
S'28/07/2015'
p349
aF12.810134172439575
asg3
g12
sg5
S'self-satisfied'
p350
ssS'execrable'
p351
(dp352
g9
(lp353
S'28/07/2015'
p354
aF5.3757851123809814
asg3
g12
sg5
S'extremely bad or unpleasant'
p355
ssS'austere'
p356
(dp357
g9
(lp358
S'28/07/2015'
p359
aI15
asg3
g12
sg5
S'stern; unadorned; simple'
p360
ssS'retort'
p361
(dp362
g3
g4
sg5
S'v. sharp response;riposte; repartee'
p363
ssS'Conspire'
p364
(dp365
g3
g4
sg5
S'Conspiracy; plan illegally, connive'
p366
ssS'hypnotic'
p367
(dp368
g3
g4
sg5
S'adj. causing trances'
p369
ssS'nascent'
p370
(dp371
g3
g4
sg5
S'coming into being; in early developmental stages'
p372
ssS'Swelter'
p373
(dp374
g3
g4
sg5
S'Oppressed by heat'
p375
ssS'remonstrate'
p376
(dp377
g3
g12
sg5
S'to object or protest'
p378
ssS'archaeology'
p379
(dp380
g9
(lp381
S'28/07/2015'
p382
aI15
asg3
g12
sg5
S'the study of material evidence of past human life'
p383
ssS'fetter'
p384
(dp385
g9
(lp386
S'28/07/2015'
p387
aI15
asg3
g12
sg5
S'to bind; confine'
p388
ssS'fortify'
p389
(dp390
g3
g4
sg5
S'v. make stronger'
p391
ssS'fable'
p392
(dp393
g3
g4
sg5
S'a story that teaches a lesson'
p394
ssS'toady'
p395
(dp396
g3
g12
sg5
S'flatterer, yes-man'
p397
ssS'carnal'
p398
(dp399
g9
(lp400
S'28/07/2015'
p401
aF4.495882034301758
asg3
g12
sg5
S'of the flesh or body; related to physical appetites'
p402
ssS'fidelity'
p403
(dp404
g9
(lp405
S'28/07/2015'
p406
aF9.645388126373291
asg3
g12
sg5
S'loyalty; exact correspondence'
p407
ssS'estrange'
p408
(dp409
g3
g4
sg5
S'to cause to stop being friendly, alienate, disaffect, sour, disgruntle'
p410
ssS'Gaudy'
p411
(dp412
g3
g4
sg5
S'Excessively showy or extravagant.'
p413
ssS'Prowess'
p414
(dp415
g3
g4
sg5
S'Extraordinary ability'
p416
ssS'apothegm'
p417
(dp418
g9
(lp419
S'28/07/2015'
p420
aI15
asg3
g12
sg5
S'a terse, witty saying'
p421
ssS'supplicant'
p422
(dp423
g9
(lp424
S'28/07/2015'
p425
aI15
asg3
g12
sg5
S'one who asks humbly and earnestly'
p426
ssS'hirsute'
p427
(dp428
g9
(lp429
S'28/07/2015'
p430
aF2.578110933303833
asg3
g12
sg5
S'covered with hair'
p431
ssS'precipitate'
p432
(dp433
g9
(lp434
S'28/07/2015'
p435
aF22.92368793487549
asg3
g12
sg5
S'rash; hasty; sudden; done without deliberation'
p436
ssS'apogee'
p437
(dp438
g9
(lp439
S'28/07/2015'
p440
aI15
asg3
g12
sg5
S'the point in an orbit most distant from the body being orbited; the highest point'
p441
ssS'imperturbable'
p442
(dp443
g3
g12
sg5
S'not easily disturbed'
p444
ssS'affected'
p445
(dp446
g9
(lp447
S'28/07/2015'
p448
aI15
asg3
g12
sg5
S'pretentious; phony'
p449
ssS'entomology'
p450
(dp451
g9
(lp452
S'28/07/2015'
p453
aI15
asg3
g12
sg5
S'the scientific study of insects'
p454
ssS'bane'
p455
(dp456
g3
g4
sg5
S'poison, cause of harm'
p457
ssS'shirk'
p458
(dp459
g3
g4
sg5
S'(v.) To avoid work, duty or responsibility; To slough off'
p460
ssS'ebullient'
p461
(dp462
g9
(lp463
S'28/07/2015'
p464
aI15
asg3
g12
sg5
S'exhilarated; overly enthusiastic'
p465
ssS'acme'
p466
(dp467
g3
g4
sg5
S'(n.) the highest point'
p468
ssS'debut'
p469
(dp470
g3
g4
sg5
S'first public appearance'
p471
ssS'absolve'
p472
(dp473
g3
g4
sg5
S'v. declare free from responsibility'
p474
ssS'herald'
p475
(dp476
g3
g4
sg5
S'a sign that something is about to happen'
p477
ssS'capricious'
p478
(dp479
g9
(lp480
S'28/07/2015'
p481
aI15
asg3
g12
sg5
S'fickle'
p482
ssS'lofty'
p483
(dp484
g3
g4
sg5
S'(adj.) Having or displaying great dignity or nobility; grand and elevated'
p485
ssS'obdurate'
p486
(dp487
g3
g12
sg5
S'stubborn'
p488
ssS'improvise'
p489
(dp490
g3
g4
sg5
S'to deal with things as they come, without planning'
p491
ssS'dour'
p492
(dp493
g3
g4
sg5
S'adj. sullen, gloomy'
p494
ssS'cartography'
p495
(dp496
g9
(lp497
S'28/07/2015'
p498
aF2.509903907775879
asg3
g12
sg5
S'science of making maps'
p499
ssS'heterodox'
p500
(dp501
g9
(lp502
S'28/07/2015'
p503
aF3.907708168029785
asg3
g12
sg5
S'not widely accepted'
p504
ssS'transient'
p505
(dp506
g3
g12
sg5
S'temporary, fleeting'
p507
ssS'Edifice'
p508
(dp509
g3
g4
sg5
S'Large and usually impressive building'
p510
ssS'caustic'
p511
(dp512
g234
(lp513
S'28/07/2015'
p514
aI15
asg3
g12
sg5
S'burning; stinging; causing corrosion'
p515
ssS'Latitude'
p516
(dp517
g3
g4
sg5
S'Freedom fron narrow limitations'
p518
ssS'ameliorate'
p519
(dp520
g9
(lp521
S'28/07/2015'
p522
aI15
asg3
g12
sg5
S'to improve'
p523
ssS'allay'
p524
(dp525
g9
(lp526
S'28/07/2015'
p527
aI15
asg3
g12
sg5
S'to lessen; ease; soothe'
p528
ssS'contend'
p529
(dp530
g9
(lp531
S'28/07/2015'
p532
aF2.656055212020874
asg3
g12
sg5
S'to assert'
p533
ssS'fraught'
p534
(dp535
g3
g4
sg5
S'adj. filled with anxiety'
p536
ssS'urbane'
p537
(dp538
g3
g4
sg5
S'adj. refined in behaviour'
p539
ssS'remorse'
p540
(dp541
g3
g4
sg5
S'n. deep regret'
p542
ssS'instill'
p543
(dp544
g3
g4
sg5
S'(v.) to add gradually; to introduce or cause to be taken in'
p545
ssS'disinterested'
p546
(dp547
g234
(lp548
S'28/07/2015'
p549
aI15
asg3
g12
sg5
S'unprejudiced; objective'
p550
ssS'eternal'
p551
(dp552
g3
g4
sg5
S'perpetual, ageless, everlasting, immportal, imperishable, perennial, perpetual, undying'
p553
ssS'salutary'
p554
(dp555
g3
g12
sg5
S'expecting an improvement, favorable to health'
p556
ssS'dexterous'
p557
(dp558
g3
g4
sg5
S'(adj.) skillful in the use of hands or body; clever'
p559
ssS'abate'
p560
(dp561
g9
(lp562
S'28/07/2015'
p563
aI15
asg3
g12
sg5
S'to decrease; reduce'
p564
ssS'jubilant'
p565
(dp566
g3
g4
sg5
S'adj. full of joy'
p567
ssS'Implacable'
p568
(dp569
g3
g4
sg5
S'Unable to be pacified or appeased; inexorable.'
p570
ssS'connive'
p571
(dp572
g3
g4
sg5
S'to cooperate secretly, collude, conspire;'
p573
ssS'prodigal'
p574
(dp575
g3
g12
sg5
S'wasteful; extravagant; lavish'
p576
ssS'explicate'
p577
(dp578
g9
(lp579
S'28/07/2015'
p580
aF9.287251949310303
asg3
g12
sg5
S'to explain;interpret;clarify'
p581
ssS'unflappable'
p582
(dp583
g3
g4
sg5
S'composed'
p584
ssS'penury'
p585
(dp586
g9
(lp587
S'28/07/2015'
p588
aF2.7503488063812256
asg3
g12
sg5
S'extreme poverty'
p589
ssS'officious'
p590
(dp591
g9
(lp592
S'28/07/2015'
p593
aI15
asg3
g12
sg5
S'assertive of authority in an annoyingly domineering way, esp. with regard to petty or trivial matters'
p594
ssS'rant'
p595
(dp596
g3
g4
sg5
S'(n.) A loud, violent, or extravagant speech or writing; (v.) To speak or write in a angry or violent manner'
p597
ssS'Bliss'
p598
(dp599
g3
g4
sg5
S'Extreme happiness or joy'
p600
ssS'adventitious'
p601
(dp602
g3
g4
sg5
S'resulting from chance rather than from an inherent cause or character; accidental, not essential; (medicine) acquired, not congenital( external, extraneous)'
p603
ssS'sarcasm'
p604
(dp605
g3
g4
sg5
S'biting and often ironic and caustic remarks or attitude'
p606
ssS'indeterminate'
p607
(dp608
g9
(lp609
S'28/07/2015'
p610
aI15
asg3
g12
sg5
S'uncertain; indefinite'
p611
ssS'euphoria'
p612
(dp613
g9
(lp614
S'28/07/2015'
p615
aF3.812688112258911
asg3
g12
sg5
S'feeling of extreme happiness'
p616
ssS'centripetal'
p617
(dp618
g9
(lp619
S'28/07/2015'
p620
aF2.5894110202789307
asg3
g12
sg5
S'moving or directed toward a center'
p621
ssS'flippant'
p622
(dp623
g3
g4
sg5
S'Lacking seriousness'
p624
ssS'analgesic'
p625
(dp626
g9
(lp627
S'28/07/2015'
p628
aI15
asg3
g12
sg5
S'medication that reduces or eliminates pain'
p629
ssS'postulate'
p630
(dp631
g3
g4
sg5
S'essential premise; underlying assumption'
p632
ssS'filibuster'
p633
(dp634
g9
(lp635
S'28/07/2015'
p636
aF8.458434104919434
asg3
g12
sg5
S'use of obstructive tactics in a legislature to block passage of a law'
p637
ssS'reparation'
p638
(dp639
g3
g12
sg5
S'amends, compensation'
p640
ssS'compunction'
p641
(dp642
g9
(lp643
S'28/07/2015'
p644
aF13.728868961334229
asg3
g12
sg5
S'uneasiness caused by guilt'
p645
ssS'reprobate'
p646
(dp647
g3
g12
sg5
S'morally unprincipled person'
p648
ssS'paltry'
p649
(dp650
g3
g4
sg5
S'trifling, insignificant; mean, despicable'
p651
ssS'esoteric'
p652
(dp653
g9
(lp654
S'28/07/2015'
p655
aF8.346716165542603
asg3
g12
sg5
S'hard to understand; known only to a few'
p656
ssS'embellish'
p657
(dp658
g9
(lp659
S'28/07/2015'
p660
aF3.95625901222229
asg3
g12
sg5
S'to adorn; enhance'
p661
ssS'Nebulous'
p662
(dp663
g3
g4
sg5
S'in the form of a cloud or haze; hazy. Vague; hazy; cloudy'
p664
ssS'stoic'
p665
(dp666
g3
g4
sg5
S'unemotional, resigned to the motions of fate'
p667
ssS'requisite'
p668
(dp669
g3
g4
sg5
S'adj. necessary'
p670
ssS'rebuff'
p671
(dp672
g3
g4
sg5
S'(v.)reject (someone or something) in an abrupt or ungracious manner  to snub; to repel, drive away; (n.) a curt rejection, a check'
p673
ssS'supersede'
p674
(dp675
g3
g12
sg5
S'to replace, especially to displace as inferior or antiquated'
p676
ssS'Anterior'
p677
(dp678
g3
g4
sg5
S'Front'
p679
ssS'guile'
p680
(dp681
g3
g4
sg5
S'(n) deceit, treachery, insidious cunning, slyness, a trick'
p682
ssS'medley'
p683
(dp684
g3
g4
sg5
S'n. mixture'
p685
ssS'stratified'
p686
(dp687
g3
g12
sg5
S'arranged in layers'
p688
ssS'exorcise'
p689
(dp690
g9
(lp691
S'28/07/2015'
p692
aI15
asg3
g12
sg5
S'to expel evil spirits; free from bad influences'
p693
ssS'threadbare'
p694
(dp695
g3
g4
sg5
S'(adj.) Overused to the point of being worn out; shabby'
p696
ssS'seminal'
p697
(dp698
g3
g4
sg5
S'influential, at the beginning of a trend or movement'
p699
ssS'Preeminence'
p700
(dp701
g3
g4
sg5
S'Superiority.'
p702
ssS'temporize'
p703
(dp704
g3
g4
sg5
S'to stall or act evasively in order to gain time, avoid a confrontations, or postpone a decision; to compromise'
p705
ssS'torque'
p706
(dp707
g3
g12
sg5
S'a turning or twisting force'
p708
ssS'spectrum'
p709
(dp710
g3
g12
sg5
S'band of color, broad range of related ideas or objects'
p711
ssS'lull'
p712
(dp713
g3
g4
sg5
S'to soothe or calm; to deceive into trustfulness'
p714
ssS'cadge'
p715
(dp716
g9
(lp717
S'28/07/2015'
p718
aF22.479053020477295
asg3
g12
sg5
S'to beg; sponge'
p719
ssS'Rancor'
p720
(dp721
g3
g4
sg5
S'Angry feeling of hatred'
p722
ssS'spect'
p723
(dp724
g3
g4
sg5
S'see, look'
p725
ssS'relapse'
p726
(dp727
g3
g4
sg5
S'v. fall into a previously rejected behaviour'
p728
ssS'prehensile'
p729
(dp730
g9
(lp731
S'28/07/2015'
p732
aF2.5825068950653076
asg3
g12
sg5
S'capable of grasping'
p733
ssS'uncouth'
p734
(dp735
g3
g4
sg5
S'(adj.) Crude or unrefined; Lacking refinement'
p736
ssS'divulge'
p737
(dp738
g9
(lp739
S'28/07/2015'
p740
aI15
asg3
g12
sg5
S'to make known something that is secret'
p741
ssS'insularity'
p742
(dp743
g3
g12
sg5
S'narrow-mindedness; isolation'
p744
ssS'propitious'
p745
(dp746
g3
g4
sg5
S'giving or indicating a good chance of success; favorable'
p747
ssS'imprudent'
p748
(dp749
g3
g4
sg5
S'adj. not caring about the consequences of an action'
p750
ssS'inured'
p751
(dp752
g3
g12
sg5
S'hardened; accustomed; used to'
p753
ssS'salubrious'
p754
(dp755
g3
g12
sg5
S'healthful'
p756
ssS'Vagary'
p757
(dp758
g3
g4
sg5
S'An erratic, unpredictable action; idea; whim; wild notion'
p759
ssS'germane'
p760
(dp761
g3
g4
sg5
S'relevant; appropriate'
p762
ssS'prohibitive'
p763
(dp764
g3
g12
sg5
S'so high as to prevent the purchase or use of, forbidding'
p765
ssS'encomium'
p766
(dp767
g9
(lp768
S'28/07/2015'
p769
aF8.619767904281616
asg3
g12
sg5
S'a formal expression of praise'
p770
ssS'venial'
p771
(dp772
g3
g4
sg5
S'adj. not serious'
p773
ssS'exonerate'
p774
(dp775
g3
g4
sg5
S'to free somebody from blame or guilt'
p776
ssS'peevish'
p777
(dp778
g3
g4
sg5
S'adj. easily angered'
p779
ssS'mitigate'
p780
(dp781
g9
(lp782
S'28/07/2015'
p783
aF9.99223518371582
asg3
g12
sg5
S'alleviate; to become less severe'
p784
ssS'Wane'
p785
(dp786
g3
g4
sg5
S'Decrease in size or strength; draw gradually to an end'
p787
ssS'impostor'
p788
(dp789
g3
g4
sg5
S'(n.) Someone who assumes a false identity'
p790
ssS'disabuse'
p791
(dp792
g9
(lp793
S'28/07/2015'
p794
aI15
asg3
g12
sg5
S'free from a misconception'
p795
ssS'bonhomie'
p796
(dp797
g3
g4
sg5
S'n. cheerfulness(affability, geniality, amiability)'
p798
ssS'nettle'
p799
(dp800
g3
g4
sg5
S'annoy; vex;exasperate'
p801
ssS'consummate'
p802
(dp803
g3
g4
sg5
S'having or revealing supreme mastery or skill'
p804
ssS'marvel'
p805
(dp806
g3
g4
sg5
S'n. amazing thing'
p807
ssS'incorporate'
p808
(dp809
g3
g12
sg5
S'introduce something into another thing already in existence'
p810
ssS'bait'
p811
(dp812
g3
g4
sg5
S'vt. to persecute or exasperate with unjust, malicious, or persistent attacks,( badger, annoy, badger,heckle, harass)'
p813
ssS'sage'
p814
(dp815
g3
g12
sg5
S'wise'
p816
ssS'precarious'
p817
(dp818
g9
(lp819
S'28/07/2015'
p820
aF8.855343103408813
asg3
g12
sg5
S'uncertain'
p821
ssS'lurch'
p822
(dp823
g3
g4
sg5
S'to lean or pitch suddenly to one side, to stagger or sway'
p824
ssS'dupe'
p825
(dp826
g9
(lp827
S'28/07/2015'
p828
aF4.236046075820923
asg3
g12
sg5
S'to deceive; trick'
p829
ssS'venal'
p830
(dp831
g3
g12
sg5
S'mercenary, corruptible'
p832
ssS'mingle'
p833
(dp834
g3
g4
sg5
S'v mix or cause to mix together.'
p835
ssS'capitulate'
p836
(dp837
g3
g4
sg5
S'to surrender'
p838
ssS'latent'
p839
(dp840
g9
(lp841
S'28/07/2015'
p842
aF18.605756998062134
asg3
g12
sg5
S'dormant; potential not apparent'
p843
ssS'hoary'
p844
(dp845
g3
g4
sg5
S'gray white from age; old'
p846
ssS'itinerant'
p847
(dp848
g3
g12
sg5
S'wandering from place to place; unsettled'
p849
ssS'abjure'
p850
(dp851
g9
(lp852
S'28/07/2015'
p853
aI15
asg3
g12
sg5
S'to reject; abandon formally'
p854
ssS'hoard'
p855
(dp856
g3
g4
sg5
S'(n.) A secret store of valuables or money; (v.) To accumulate by saving'
p857
ssS'Inclement'
p858
(dp859
g3
g4
sg5
S'Stormy; unkind'
p860
ssS'ardor'
p861
(dp862
g9
(lp863
S'28/07/2015'
p864
aI15
asg3
g12
sg5
S'great emotion or passion'
p865
ssS'raiment'
p866
(dp867
g3
g12
sg5
S'clothing'
p868
ssS'smug'
p869
(dp870
g3
g4
sg5
S'(adj.) Highly self-satisfied; So pleased with yourself that you annoy other people'
p871
ssS'prune'
p872
(dp873
g3
g4
sg5
S'trim'
p874
ssS'overbearing'
p875
(dp876
g3
g4
sg5
S'unpleasantly or arrogantly domineering.'
p877
ssS'igneous'
p878
(dp879
g9
(lp880
S'28/07/2015'
p881
aF1.9474871158599854
asg3
g12
sg5
S'produced by fire; volcanic'
p882
ssS'suffrage'
p883
(dp884
g9
(lp885
S'28/07/2015'
p886
aF31.511613130569458
asg3
g12
sg5
S'the right to vote'
p887
ssS'collusion'
p888
(dp889
g3
g4
sg5
S'secret agreement or cooperation'
p890
ssS'egoism'
p891
(dp892
g9
(lp893
S'28/07/2015'
p894
aF4.278409004211426
asg3
g12
sg5
S'the tendency to see things in relation to oneself; self-centeredness'
p895
ssS'labile'
p896
(dp897
g3
g12
sg5
S'likely to change'
p898
ssS'unwitting'
p899
(dp900
g3
g4
sg5
S'unintentional'
p901
ssS'peripheral'
p902
(dp903
g3
g4
sg5
S'of, relating to, or situated on the edge or periphery of something'
p904
ssS'rivulet'
p905
(dp906
g3
g4
sg5
S'n. very small stream'
p907
ssS'allure'
p908
(dp909
g9
(lp910
S'28/07/2015'
p911
aI15
asg3
g12
sg5
S'the power to entice by charm'
p912
ssS'sporadic'
p913
(dp914
g3
g12
sg5
S'irregular'
p915
ssS'nocturnal'
p916
(dp917
g3
g4
sg5
S'adj. active at night'
p918
ssS'diffidence'
p919
(dp920
g9
(lp921
S'28/07/2015'
p922
aI15
asg3
g12
sg5
S'shyness; lack of confidence'
p923
ssS'accede'
p924
(dp925
g3
g4
sg5
S'approve, consent to'
p926
ssS'exponent'
p927
(dp928
g3
g4
sg5
S'n. believer in, advocator, booster, espouser,'
p929
ssS'jocose'
p930
(dp931
g3
g12
sg5
S'fond of joking; jocular'
p932
ssS'propitiate'
p933
(dp934
g3
g12
sg5
S'to win over, appease'
p935
ssS'transgression'
p936
(dp937
g3
g12
sg5
S'act of trespassing or violating a law or rule'
p938
ssS'lethargic'
p939
(dp940
g3
g12
sg5
S'inactive; sluggish; dull'
p941
ssS'juxtapose'
p942
(dp943
g3
g12
sg5
S'place side by side'
p944
ssS'aesthetic'
p945
(dp946
g9
(lp947
S'28/07/2015'
p948
aI15
asg3
g12
sg5
S'relating to beauty or the arts'
p949
ssS'contort'
p950
(dp951
g3
g4
sg5
S'twist; bend,distort'
p952
ssS'posit'
p953
(dp954
g3
g4
sg5
S'assume as a fact; put forward as a basis of argument'
p955
ssS'devout'
p956
(dp957
g3
g4
sg5
S'adj. serious in the practicing of religion'
p958
ssS'Ensconce'
p959
(dp960
g3
g4
sg5
S'Settle confortably, bury, cache, conceal, roost, nestle, perch, lodge'
p961
ssS'lilliputian'
p962
(dp963
g3
g12
sg5
S'extremely small'
p964
ssS'estimable'
p965
(dp966
g9
(lp967
S'28/07/2015'
p968
aI15
asg3
g12
sg5
S'admirable; possible to estimate'
p969
ssS'askew'
p970
(dp971
g3
g4
sg5
S'crooked; off to one side'
p972
ssS'didactic'
p973
(dp974
g3
g4
sg5
S'instructive, having an educational purpose'
p975
ssS'insouciant'
p976
(dp977
g234
(lp978
S'28/07/2015'
p979
aI15
asg3
g12
sg5
S'indifferent; lacking concern or care'
p980
ssS'pertinacious'
p981
(dp982
g3
g4
sg5
S'stubborn; persistent'
p983
ssS'stygian'
p984
(dp985
g3
g12
sg5
S'dark and gloomy, hellish'
p986
ssS'incessant'
p987
(dp988
g3
g4
sg5
S'unceasing'
p989
ssS'inquisitive'
p990
(dp991
g3
g4
sg5
S'adj. curious, questioning'
p992
ssS'maudlin'
p993
(dp994
g3
g4
sg5
S'adj. tearfully or weakly emotional; foolishly sentimental'
p995
ssS'infirm'
p996
(dp997
g3
g4
sg5
S'adj. frail due to poor health'
p998
ssS'oblivious'
p999
(dp1000
g3
g4
sg5
S'not aware of or not concerned about what is happening around one.'
p1001
ssS'aspersion'
p1002
(dp1003
g234
(lp1004
S'28/07/2015'
p1005
aI15
asg3
g12
sg5
S'slander; false rumor'
p1006
ssS'perfervid'
p1007
(dp1008
g3
g4
sg5
S'intense and impassioned'
p1009
ssS'Pompous'
p1010
(dp1011
g3
g4
sg5
S'Showing an exaggerated air of importance; bombastic; grandiloquent'
p1012
ssS'Relinquish'
p1013
(dp1014
g3
g4
sg5
S'to retire from'
p1015
ssS'lissome'
p1016
(dp1017
g3
g4
sg5
S'adj. supple, athletic(not lithe, limber)'
p1018
ssS'efficacy'
p1019
(dp1020
g9
(lp1021
S'28/07/2015'
p1022
aF3.2090630531311035
asg3
g12
sg5
S'effectiveness; efficiency'
p1023
ssS'dismiss'
p1024
(dp1025
g9
(lp1026
S'28/07/2015'
p1027
aF17.826272010803223
asg3
g12
sg5
S'put away from consideration; reject'
p1028
ssS'disgruntle'
p1029
(dp1030
g3
g4
sg5
S'to make discontented'
p1031
ssS'decrepit'
p1032
(dp1033
g3
g4
sg5
S'poor health'
p1034
ssS'kudos'
p1035
(dp1036
g3
g12
sg5
S'fame; glory; honor'
p1037
ssS'demotic'
p1038
(dp1039
g9
(lp1040
S'28/07/2015'
p1041
aF13.258096933364868
asg3
g12
sg5
S'pertaining to people'
p1042
ssS'imbroglio'
p1043
(dp1044
g9
(lp1045
S'28/07/2015'
p1046
aI15
asg3
g12
sg5
S'complicated situation; an entanglement'
p1047
ssS'pejorative'
p1048
(dp1049
g3
g4
sg5
S'adj. insulting'
p1050
ssS'clairvoyant'
p1051
(dp1052
g9
(lp1053
S'28/07/2015'
p1054
aI15
asg3
g12
sg5
S'one who can predict the future; psychic'
p1055
ssS'chicanery'
p1056
(dp1057
g9
(lp1058
S'28/07/2015'
p1059
aI15
asg3
g12
sg5
S'trickery; fraud'
p1060
ssS'vendetta'
p1061
(dp1062
g9
(lp1063
S'28/07/2015'
p1064
aI15
asg3
g12
sg5
S'prolonged feud marked by bitter hostility'
p1065
ssS'apprehension'
p1066
(dp1067
g3
g4
sg5
S'state of unease about the near future'
p1068
ssS'dissect'
p1069
(dp1070
g3
g4
sg5
S'v. cut up to study internal parts'
p1071
ssS'pungent'
p1072
(dp1073
g9
(lp1074
S'28/07/2015'
p1075
aF3.5596530437469482
asg3
g12
sg5
S'penetrating, caustic, to the point'
p1076
ssS'fallow'
p1077
(dp1078
g9
(lp1079
S'28/07/2015'
p1080
aF22.848640203475952
asg3
g12
sg5
S'plowed but not sowed; uncultivated'
p1081
ssS'itinerary'
p1082
(dp1083
g3
g12
sg5
S"route of a traveler's journey"
p1084
ssS'convalesce'
p1085
(dp1086
g3
g4
sg5
S'v. get better after a disease or injury'
p1087
ssS'prostrate'
p1088
(dp1089
g3
g4
sg5
S'adj. lying face down'
p1090
ssS'mangle'
p1091
(dp1092
g3
g4
sg5
S'(v.) To injure severely, disfigure, or mutilate by cutting, slashing, or crushing'
p1093
ssS'concomitant'
p1094
(dp1095
g9
(lp1096
S'28/07/2015'
p1097
aF10.100335121154785
asg3
g12
sg5
S'existing concurrently'
p1098
ssS'recuperate'
p1099
(dp1100
g3
g4
sg5
S'recover from illness or exertion'
p1101
ssS'cant'
p1102
(dp1103
g9
(lp1104
S'28/07/2015'
p1105
aI15
asg3
g12
sg5
S'insincere talk; language of a particular group'
p1106
ssS'lugubrious'
p1107
(dp1108
g3
g4
sg5
S'looking or sounding sad and dismal.'
p1109
ssS'euthanasia'
p1110
(dp1111
g9
(lp1112
S'28/07/2015'
p1113
aF4.3803629875183105
asg3
g12
sg5
S'mercy killing'
p1114
ssS'stint'
p1115
(dp1116
g3
g12
sg5
S'to be sparing'
p1117
ssS'rapprochement'
p1118
(dp1119
g3
g4
sg5
S'reconciliation, resumption of friendly relations'
p1120
ssS'grandiose'
p1121
(dp1122
g3
g4
sg5
S'pretentious and pompous'
p1123
ssS'indigence'
p1124
(dp1125
g3
g12
sg5
S'poverty'
p1126
ssS'haphazard'
p1127
(dp1128
g3
g4
sg5
S'adj. done in a not very systematic way'
p1129
ssS'contaminate'
p1130
(dp1131
g3
g4
sg5
S'v. make something impure,adulterate'
p1132
ssS'sodden'
p1133
(dp1134
g3
g12
sg5
S'thoroughly soaked, saturated'
p1135
ssS'jocund'
p1136
(dp1137
g3
g4
sg5
S'merry; jolly(not jocular)'
p1138
ssS'inadvertently'
p1139
(dp1140
g3
g12
sg5
S'carelessly; unintentionally'
p1141
ssS'Nautical'
p1142
(dp1143
g3
g4
sg5
S'Of or pertaining to sailors, ships, or navigation'
p1144
ssS'rail'
p1145
(dp1146
g3
g12
sg5
S'to scold with bitter or abusive language'
p1147
ssS'Incense'
p1148
(dp1149
g3
g4
sg5
S'Enrage; infuriate, aggravate, enrage, inflame, infuriate, madden, outrage, rile, roil, rankle,exasperate'
p1150
ssS'palpable'
p1151
(dp1152
g3
g4
sg5
S'tangible'
p1153
ssS'overt'
p1154
(dp1155
g3
g4
sg5
S'done or shown openly; plainly or readily apparent, not secret or hidden'
p1156
ssS'peremptory'
p1157
(dp1158
g9
(lp1159
S'28/07/2015'
p1160
aF11.625138998031616
asg3
g12
sg5
S'imperative; leaving no choice'
p1161
ssS'berate'
p1162
(dp1163
g3
g4
sg5
S'v. scold angrily'
p1164
ssS'ragged'
p1165
(dp1166
g3
g4
sg5
S'old and torn.'
p1167
ssS'approbation'
p1168
(dp1169
g9
(lp1170
S'28/07/2015'
p1171
aI15
asg3
g12
sg5
S'praise, approval'
p1172
ssS'subpoena'
p1173
(dp1174
g3
g12
sg5
S'notice ordering someone to appear in court'
p1175
ssS'impertinent'
p1176
(dp1177
g3
g4
sg5
S'Insolent; rude;impudent'
p1178
ssS'jibe'
p1179
(dp1180
g3
g12
sg5
S'to be in agreement'
p1181
ssS'Hamper'
p1182
(dp1183
g3
g4
sg5
S'Obstruct'
p1184
ssS'appease'
p1185
(dp1186
g234
(lp1187
S'28/07/2015'
p1188
aI15
asg9
(lp1189
S'28/07/2015'
p1190
aI15
asg3
g12
sg5
S'to calm, pacify, placate'
p1191
ssS'Stymie'
p1192
(dp1193
g3
g4
sg5
S'hinder'
p1194
ssS'olfactory'
p1195
(dp1196
g3
g12
sg5
S'concerning the sense of smell'
p1197
ssS'dissident'
p1198
(dp1199
g9
(lp1200
S'28/07/2015'
p1201
aF3.8064699172973633
asg3
g12
sg5
S'person who disagrees about beliefs'
p1202
ssS'Noisome'
p1203
(dp1204
g3
g4
sg5
S'having an extremely offensive smell.'
p1205
ssS'plight'
p1206
(dp1207
g3
g4
sg5
S'bad situation'
p1208
ssS'extol'
p1209
(dp1210
g3
g4
sg5
S'praise in the highest terms'
p1211
ssS'convivial'
p1212
(dp1213
g9
(lp1214
S'28/07/2015'
p1215
aF1.6716210842132568
asg3
g12
sg5
S'sociable'
p1216
ssS'verbose'
p1217
(dp1218
g3
g12
sg5
S'wordy'
p1219
ssS'Crestfallen'
p1220
(dp1221
g3
g4
sg5
S'Dejected; dispirited'
p1222
ssS'exalt'
p1223
(dp1224
g3
g4
sg5
S'v. to praise or glorify'
p1225
ssS'alchemy'
p1226
(dp1227
g9
(lp1228
S'28/07/2015'
p1229
aI15
asg3
g12
sg5
S'medieval chemical philosophy based on changing metal into gold; a seemingly magical power or process of transmutation'
p1230
ssS'affinity'
p1231
(dp1232
g9
(lp1233
S'28/07/2015'
p1234
aI15
asg3
g12
sg5
S'fondness; liking; similarity'
p1235
ssS'falter'
p1236
(dp1237
g3
g4
sg5
S'(v.) to hesitate, stumble, lose courage; to speak hesitatingly; to lose drive, weaken, decline'
p1238
ssS'salacious'
p1239
(dp1240
g3
g12
sg5
S'lascivious, lustful'
p1241
ssS'paleontology'
p1242
(dp1243
g9
(lp1244
S'28/07/2015'
p1245
aF8.468653917312622
asg3
g12
sg5
S'study of past geological eras through fossil remains'
p1246
ssS'perfunctory'
p1247
(dp1248
g3
g12
sg5
S'superficial; performed really as a duty'
p1249
ssS'effulgent'
p1250
(dp1251
g3
g4
sg5
S'adj. shining brightly, splendid'
p1252
ssS'fusion'
p1253
(dp1254
g234
(lp1255
S'28/07/2015'
p1256
aI15
asg3
g12
sg5
S'union; synthesis'
p1257
ssS'blemish'
p1258
(dp1259
g3
g4
sg5
S'n. flaw, imperfection'
p1260
ssS'Chide'
p1261
(dp1262
g3
g4
sg5
S'To scold or rebuke; to express disapproval of.'
p1263
ssS'bucolic'
p1264
(dp1265
g9
(lp1266
S'28/07/2015'
p1267
aF3.2108168601989746
asg3
g12
sg5
S'characteristic of the countryside; rustic; pastoral'
p1268
ssS'diaphanous'
p1269
(dp1270
g9
(lp1271
S'28/07/2015'
p1272
aI15
asg3
g12
sg5
S'transparent; vague; insubstancial'
p1273
ssS'Cajole'
p1274
(dp1275
g3
g4
sg5
S'Persuade someone to do something by making promises or flattering'
p1276
ssS'detraction'
p1277
(dp1278
g9
(lp1279
S'28/07/2015'
p1280
aF3.472946882247925
asg3
g12
sg5
S'the act of taking away'
p1281
ssS'repudiate'
p1282
(dp1283
g3
g12
sg5
S'to reject as having no authority'
p1284
ssS'accost'
p1285
(dp1286
g3
g4
sg5
S'v. approach with a request or insult(Applause)'
p1287
ssS'Annul'
p1288
(dp1289
g3
g4
sg5
S'Make void'
p1290
ssS'Mollycoddle'
p1291
(dp1292
g3
g4
sg5
S'treat (someone) very indulgently or protectively. Pamper; spoil'
p1293
ssS'archetype'
p1294
(dp1295
g3
g4
sg5
S'n. very typical example'
p1296
ssS'cede'
p1297
(dp1298
g3
g4
sg5
S'v. give up control of'
p1299
ssS'Procure'
p1300
(dp1301
g3
g4
sg5
S'Obtain or acquire something by special means'
p1302
ssS'flounder'
p1303
(dp1304
g3
g4
sg5
S'(v.) To move or act clumsily and in confusion; To have great difficulty with something'
p1305
ssS'periphery'
p1306
(dp1307
g3
g4
sg5
S'the outer limits or edge of an area or object'
p1308
ssS'discerning'
p1309
(dp1310
g9
(lp1311
S'28/07/2015'
p1312
aI15
asg3
g12
sg5
S'perceptive; exhibiting keen insight and good judgement'
p1313
ssS'jejune'
p1314
(dp1315
g3
g4
sg5
S'without interest or significance'
p1316
ssS'elucidate'
p1317
(dp1318
g3
g4
sg5
S'to explain something'
p1319
ssS'enunciate'
p1320
(dp1321
g9
(lp1322
S'28/07/2015'
p1323
aI15
asg3
g12
sg5
S'to pronounce clearly'
p1324
ssS'Thwart'
p1325
(dp1326
g3
g4
sg5
S'Prevent; frustrate; oppose and defeat'
p1327
ssS'phlegmatic'
p1328
(dp1329
g3
g12
sg5
S'unemotional; calm in temperament'
p1330
ssS'blithe'
p1331
(dp1332
g3
g4
sg5
S'n. joyous, carefree, merry'
p1333
ssS'inveigh'
p1334
(dp1335
g9
(lp1336
S'28/07/2015'
p1337
aF4.711714029312134
asg3
g12
sg5
S'to disapprove; protest vehemently'
p1338
ssS'rebus'
p1339
(dp1340
g3
g12
sg5
S'puzzle in which pictures or symbols represent words'
p1341
ssS'abet'
p1342
(dp1343
g3
g4
sg5
S'help, assist'
p1344
ssS'raconteur'
p1345
(dp1346
g3
g12
sg5
S'witty, skillful storyteller'
p1347
ssS'Schism'
p1348
(dp1349
g3
g4
sg5
S'Division; split'
p1350
ssS'formidable'
p1351
(dp1352
g234
(lp1353
S'28/07/2015'
p1354
aI15
asg3
g12
sg5
S'menacing; threatening'
p1355
ssS'squander'
p1356
(dp1357
g3
g4
sg5
S'to waste by spending or using irresponsibly'
p1358
ssS'slipshod'
p1359
(dp1360
g3
g4
sg5
S'untidy, slovenly;(typically of a person or method of work) characterized by a lack of care, thought, or organization'
p1361
ssS'quorum'
p1362
(dp1363
g9
(lp1364
S'28/07/2015'
p1365
aI15
asg3
g12
sg5
S'number of memeber necessary to conduct a meeting'
p1366
ssS'valedictory'
p1367
(dp1368
g3
g12
sg5
S'pertaining to a farewell'
p1369
ssS'mettle'
p1370
(dp1371
g9
(lp1372
S'28/07/2015'
p1373
aF2.289777994155884
asg3
g12
sg5
S'courage; endurance'
p1374
ssS'macabre'
p1375
(dp1376
g3
g4
sg5
S'adj. grisly, shocking'
p1377
ssS'unpretentious'
p1378
(dp1379
g3
g4
sg5
S'not showing the quality of people who want to be regarded as more important'
p1380
ssS'abysmal'
p1381
(dp1382
g9
(lp1383
S'28/07/2015'
p1384
aI15
asg3
g12
sg5
S'very bad'
p1385
ssS'sundry'
p1386
(dp1387
g3
g12
sg5
S'various'
p1388
ssS'heinous'
p1389
(dp1390
g3
g4
sg5
S'grossly wicked; vile; odious'
p1391
ssS'catalyst'
p1392
(dp1393
g9
(lp1394
S'28/07/2015'
p1395
aI15
asg3
g12
sg5
S'something that causes change'
p1396
ssS'squalid'
p1397
(dp1398
g3
g4
sg5
S'adj. dirty, unpleasant'
p1399
ssS'restive'
p1400
(dp1401
g3
g4
sg5
S'adj. restless, antsy'
p1402
ssS'Unassailable'
p1403
(dp1404
g3
g4
sg5
S'Not open to attack; untenable;unimpeachable'
p1405
ssS'invincible'
p1406
(dp1407
g3
g4
sg5
S'adj. too powerful to be overcome'
p1408
ssS'Nauseate'
p1409
(dp1410
g3
g4
sg5
S'Cause to become sick; fill with disgust'
p1411
ssS'encumber'
p1412
(dp1413
g3
g4
sg5
S'hold back; restrain'
p1414
ssS'hegemony'
p1415
(dp1416
g3
g4
sg5
S'n. dominance of a leader or nation over its subjects'
p1417
ssS'pontificate'
p1418
(dp1419
g3
g4
sg5
S'to speak pompously and at length'
p1420
ssS'digression'
p1421
(dp1422
g234
(lp1423
S'28/07/2015'
p1424
aI15
asg3
g12
sg5
S'act of straying from the main point'
p1425
ssS'liberal'
p1426
(dp1427
g3
g12
sg5
S'tolerant; broad-minded'
p1428
ssS'covert'
p1429
(dp1430
g9
(lp1431
S'28/07/2015'
p1432
aF1.6627790927886963
asg3
g12
sg5
S'hidden; secret'
p1433
ssS'pedagogue'
p1434
(dp1435
g3
g4
sg5
S'a teacher, especially a strict or pedantic one.'
p1436
ssS'mediocre'
p1437
(dp1438
g3
g4
sg5
S'adj. average quality'
p1439
ssS'incursion'
p1440
(dp1441
g3
g12
sg5
S'sudden invasion'
p1442
ssS'levity'
p1443
(dp1444
g3
g12
sg5
S'light manner or attitude'
p1445
ssS'redolent'
p1446
(dp1447
g3
g4
sg5
S'fragment, smelling strongly; tending to arouse memories or create an aura'
p1448
ssS'junta'
p1449
(dp1450
g3
g12
sg5
S'group of people united in political intrigue'
p1451
ssS'bumptious'
p1452
(dp1453
g3
g4
sg5
S'adj. arrogantly noisy'
p1454
ssS'desecrate'
p1455
(dp1456
g3
g4
sg5
S'treat (a sacred place or thing) with violent disrespect.'
p1457
ssS'congeal'
p1458
(dp1459
g3
g4
sg5
S'to change from liquid to solid, thicken; to make inflexible or rigid(coagulate'
p1460
ssS'tardy'
p1461
(dp1462
g3
g4
sg5
S'slow, slate'
p1463
ssS'Retribution'
p1464
(dp1465
g3
g4
sg5
S'Vengeance; compensation; punishment for offenses'
p1466
ssS'truncate'
p1467
(dp1468
g3
g4
sg5
S'v. make shorter'
p1469
ssS'palmy'
p1470
(dp1471
g3
g4
sg5
S'(especially of a previous period of time) flourishing or successful'
p1472
ssS'infatuate'
p1473
(dp1474
g3
g4
sg5
S'to inspire with a foolish passion; to make foolish'
p1475
ssS'assiduous'
p1476
(dp1477
g9
(lp1478
S'28/07/2015'
p1479
aI15
asg3
g12
sg5
S'diligent; hard-working'
p1480
ssS'trepidation'
p1481
(dp1482
g3
g12
sg5
S'fear and anxiety'
p1483
ssS'comely'
p1484
(dp1485
g3
g4
sg5
S'adj. attractive'
p1486
ssS'censure'
p1487
(dp1488
g3
g4
sg5
S'to criticize severely; to officially rebuke'
p1489
ssS'Diffident'
p1490
(dp1491
g3
g4
sg5
S'Lacking self-confidence, timid'
p1492
ssS'microcosm'
p1493
(dp1494
g9
(lp1495
S'28/07/2015'
p1496
aI15
asg3
g12
sg5
S'a small system having analogies to a larger system'
p1497
ssS'quandary'
p1498
(dp1499
g3
g4
sg5
S'dilemma'
p1500
ssS'accolade'
p1501
(dp1502
g3
g4
sg5
S'n. words of praise'
p1503
ssS'ramification'
p1504
(dp1505
g9
(lp1506
S'28/07/2015'
p1507
aF4.15444803237915
asg3
g12
sg5
S'implication, consequence'
p1508
ssS'meander'
p1509
(dp1510
g3
g4
sg5
S'v. wind and turn while proceeding in a course'
p1511
ssS'necromancy'
p1512
(dp1513
g9
(lp1514
S'28/07/2015'
p1515
aI15
asg3
g12
sg5
S'black magic'
p1516
ssS'obviate'
p1517
(dp1518
g9
(lp1519
S'28/07/2015'
p1520
aF4.710618019104004
asg3
g12
sg5
S'to make unnecessary; to anticipate and prevent'
p1521
ssS'nonentity'
p1522
(dp1523
g3
g4
sg5
S'n. unimportant person or thing'
p1524
ssS'idolatry'
p1525
(dp1526
g9
(lp1527
S'28/07/2015'
p1528
aF2.814939022064209
asg3
g12
sg5
S'idol worship; blind or excessive devotion'
p1529
ssS'recluse'
p1530
(dp1531
g9
(lp1532
S'28/07/2015'
p1533
aF5.366188049316406
asg3
g12
sg5
S'person who lives in seclusion and often in solitude'
p1534
ssS'turbid'
p1535
(dp1536
g3
g12
sg5
S'muddy, opaque, in a state of great confusion'
p1537
ssS'indolent'
p1538
(dp1539
g3
g12
sg5
S'habitually lazy; idle'
p1540
ssS'doggerel'
p1541
(dp1542
g9
(lp1543
S'28/07/2015'
p1544
aI15
asg3
g12
sg5
S'poor verse'
p1545
ssS'deject'
p1546
(dp1547
g3
g4
sg5
S'v. make to feel bad'
p1548
ssS'quash'
p1549
(dp1550
g3
g4
sg5
S'reject or void, especially by legal procedure; to crush; quell'
p1551
ssS'analogous'
p1552
(dp1553
g9
(lp1554
S'28/07/2015'
p1555
aI15
asg3
g12
sg5
S'comparable'
p1556
ssS'tenacious'
p1557
(dp1558
g3
g4
sg5
S'tending to keep a firm hold of something; clinging or adhering closely'
p1559
ssS'antediluvian'
p1560
(dp1561
g9
(lp1562
S'28/07/2015'
p1563
aI15
asg3
g12
sg5
S'prehistoric'
p1564
ssS'blase'
p1565
(dp1566
g9
(lp1567
S'28/07/2015'
p1568
aI15
asg3
g12
sg5
S'bored because of frequent indulgence; unconcerned'
p1569
ssS'votary'
p1570
(dp1571
g3
g4
sg5
S'n. person who has vows of dedication to a religious service'
p1572
ssS'convoke'
p1573
(dp1574
g3
g4
sg5
S'call together'
p1575
ssS'untenable'
p1576
(dp1577
g3
g12
sg5
S'indefensible'
p1578
ssS'waylay'
p1579
(dp1580
g3
g4
sg5
S'(v.) To lie in wait for and attack; To ambush'
p1581
ssS'exact'
p1582
(dp1583
g9
(lp1584
S'28/07/2015'
p1585
aI15
asg3
g12
sg5
S'to force the payment of; demand and obtain by authority'
p1586
ssS'feeble'
p1587
(dp1588
g3
g4
sg5
S'physically or mentally weak(foible)'
p1589
ssS'coeval'
p1590
(dp1591
g3
g4
sg5
S'n. a person of nearly the same age as another'
p1592
ssS'camaraderie'
p1593
(dp1594
g3
g4
sg5
S'n. trust among friends'
p1595
ssS'levee'
p1596
(dp1597
g3
g12
sg5
S'en embankment that prevents a river from overflowing'
p1598
ssS'discrete'
p1599
(dp1600
g9
(lp1601
S'28/07/2015'
p1602
aF3.965212821960449
asg3
g12
sg5
S'constituing a separate thing; distinct'
p1603
ssS'invidious'
p1604
(dp1605
g9
(lp1606
S'28/07/2015'
p1607
aF10.55279016494751
asg3
g12
sg5
S'likely to provoke ill will'
p1608
ssS'turgid'
p1609
(dp1610
g3
g12
sg5
S'swollen, pompous'
p1611
ssS'burgeon'
p1612
(dp1613
g9
(lp1614
S'28/07/2015'
p1615
aF8.685536861419678
asg3
g12
sg5
S'to grow and flourish'
p1616
ssS'anesthetic'
p1617
(dp1618
g3
g4
sg5
S'n. chemical that causes numbing'
p1619
ssS'plummet'
p1620
(dp1621
g9
(lp1622
S'28/07/2015'
p1623
aF3.229300022125244
asg3
g12
sg5
S'to fall; plunge'
p1624
ssS'collage'
p1625
(dp1626
g9
(lp1627
S'28/07/2015'
p1628
aI15
asg3
g12
sg5
S'artistic composition of materials pasted over a surface; an assemblage of diverse elements'
p1629
ssS'inconsequential'
p1630
(dp1631
g3
g12
sg5
S'insignificant; unimportant'
p1632
ssS'adulation'
p1633
(dp1634
g3
g4
sg5
S'a show of excessive admiration or devotion'
p1635
ssS'slake'
p1636
(dp1637
g3
g4
sg5
S"(v.) To satisfy or quench; To relieve or bring to an end'"
p1638
ssS'stupefy'
p1639
(dp1640
g9
(lp1641
S'28/07/2015'
p1642
aF4.163283109664917
asg3
g12
sg5
S'to dull the senses of, stun, astonish'
p1643
ssS'Obsequious'
p1644
(dp1645
g3
g4
sg5
S'flattering'
p1646
ssS'sordid'
p1647
(dp1648
g3
g12
sg5
S'filthy, contemptible and corrupt'
p1649
ssS'Insular'
p1650
(dp1651
g3
g4
sg5
S'isolated'
p1652
ssS'obsequious'
p1653
(dp1654
g9
(lp1655
S'28/07/2015'
p1656
aF6.178395986557007
asg3
g12
sg5
S'overly submissive'
p1657
ssS'continence'
p1658
(dp1659
g9
(lp1660
S'28/07/2015'
p1661
aF5.730798959732056
asg3
g12
sg5
S'self-control; abstention from sexual activity'
p1662
ssS'havoc'
p1663
(dp1664
g3
g4
sg5
S'disorder of chaos'
p1665
ssS'commensurate'
p1666
(dp1667
g9
(lp1668
S'28/07/2015'
p1669
aF19.42054510116577
asg3
g12
sg5
S'proportional'
p1670
ssS'Conspicuous'
p1671
(dp1672
g3
g4
sg5
S'Obvious'
p1673
ssS'abscond'
p1674
(dp1675
g9
(lp1676
S'28/07/2015'
p1677
aI15
asg3
g12
sg5
S'to depart secretly'
p1678
ssS'hermetic'
p1679
(dp1680
g9
(lp1681
S'28/07/2015'
p1682
aF-7.471950054168701
asg3
g12
sg5
S'tighly sealed; magical'
p1683
ssS'mellifluous'
p1684
(dp1685
g3
g4
sg5
S'adj. flowing like honey'
p1686
ssS'ingenuous'
p1687
(dp1688
g3
g12
sg5
S'naive and trusting; lacking sophistication'
p1689
ssS'lustrous'
p1690
(dp1691
g3
g12
sg5
S'shining'
p1692
ssS'splice'
p1693
(dp1694
g3
g4
sg5
S'unite'
p1695
ssS'decipher'
p1696
(dp1697
g3
g4
sg5
S'v. figure out'
p1698
ssS'rue'
p1699
(dp1700
g3
g12
sg5
S'regret'
p1701
ssS'Stratagem'
p1702
(dp1703
g3
g4
sg5
S'Deceptive scheme;a plan or scheme, especially one used to outwit an opponent or achieve an end'
p1704
ssS'precursor'
p1705
(dp1706
g234
(lp1707
S'28/07/2015'
p1708
aI15
asg3
g12
sg5
S'forerunner; predecessor'
p1709
ssS'disavow'
p1710
(dp1711
g3
g4
sg5
S'deny'
p1712
ssS'somatic'
p1713
(dp1714
g9
(lp1715
S'28/07/2015'
p1716
aF11.396902084350586
asg3
g12
sg5
S'relating to or affecting the body, corporeal'
p1717
ssS'machiavellian'
p1718
(dp1719
g3
g12
sg5
S'crafty; double-dealing'
p1720
ssS'equable'
p1721
(dp1722
g9
(lp1723
S'28/07/2015'
p1724
aF23.364936113357544
asg3
g12
sg5
S'steady; unvarying; serene'
p1725
ssS'tutelary'
p1726
(dp1727
g3
g12
sg5
S'serving as a guardian or protector'
p1728
ssS'Reprieve'
p1729
(dp1730
g3
g4
sg5
S'a respite; postponement of a sentence'
p1731
ssS'insolent'
p1732
(dp1733
g3
g4
sg5
S'adj. willing to talk back to authority; rude'
p1734
ssS'defer'
p1735
(dp1736
g3
g4
sg5
S'postpone'
p1737
ssS'problematic'
p1738
(dp1739
g3
g12
sg5
S'posing a problem; doubtful'
p1740
ssS'paragon'
p1741
(dp1742
g3
g12
sg5
S'model of perfection or excellence'
p1743
ssS'Stealth'
p1744
(dp1745
g3
g4
sg5
S'Secret'
p1746
ssS'stingy'
p1747
(dp1748
g3
g4
sg5
S'adj. not generous;parsimonious'
p1749
ssS'abase'
p1750
(dp1751
g3
g4
sg5
S'lower; humiliate(abash)'
p1752
ssS'ungainly'
p1753
(dp1754
g3
g4
sg5
S'adj. clumsy'
p1755
ssS'concoct'
p1756
(dp1757
g234
(lp1758
S'28/07/2015'
p1759
aI15
asg3
g12
sg5
S'to invent'
p1760
ssS'subvert'
p1761
(dp1762
g3
g4
sg5
S'to overthrow'
p1763
ssS'captivate'
p1764
(dp1765
g3
g4
sg5
S'v. hold the attention of'
p1766
ssS'complaisant'
p1767
(dp1768
g9
(lp1769
S'28/07/2015'
p1770
aF9.743617057800293
asg3
g12
sg5
S'overly polite; willingness to comply with the wishes of others'
p1771
ssS'Effusive'
p1772
(dp1773
g3
g4
sg5
S'Expressing emotion in a heartfelt, unrestrained manner; gushing.'
p1774
ssS'contrite'
p1775
(dp1776
g9
(lp1777
S'28/07/2015'
p1778
aF8.270041942596436
asg3
g12
sg5
S'very sorrowful for a wrong; seeking forgiveness'
p1779
ssS'dismay'
p1780
(dp1781
g3
g4
sg5
S'discourage somebody'
p1782
ssS'bombastic'
p1783
(dp1784
g9
(lp1785
S'28/07/2015'
p1786
aI15
asg3
g12
sg5
S'pompous; using inflated language'
p1787
ssS'muffle'
p1788
(dp1789
g3
g4
sg5
S'v. make quiet'
p1790
ssS'reprise'
p1791
(dp1792
g9
(lp1793
S'28/07/2015'
p1794
aI15
asg3
g12
sg5
S'repetition, especially of a piece of music'
p1795
ssS'preponderance'
p1796
(dp1797
g3
g4
sg5
S'n. the state of being more in number'
p1798
ssS'hubris'
p1799
(dp1800
g3
g4
sg5
S'n. the state of someone getting their comeuppance'
p1801
ssS'Castigate'
p1802
(dp1803
g3
g4
sg5
S'to scold'
p1804
ssS'stature'
p1805
(dp1806
g3
g4
sg5
S'hieght'
p1807
ssS'fauna'
p1808
(dp1809
g9
(lp1810
S'28/07/2015'
p1811
aI15
asg3
g12
sg5
S'animals of a period o region'
p1812
ssS'eclectic'
p1813
(dp1814
g234
(lp1815
S'28/07/2015'
p1816
aI15
asg3
g12
sg5
S'selecting from various sources'
p1817
ssS'nexus'
p1818
(dp1819
g9
(lp1820
S'28/07/2015'
p1821
aF4.037840127944946
asg3
g12
sg5
S'a means of connection; a center'
p1822
ssS'anomalous'
p1823
(dp1824
g9
(lp1825
S'28/07/2015'
p1826
aI15
asg3
g12
sg5
S'irregular; deviating from the norm'
p1827
ssS'avocation'
p1828
(dp1829
g9
(lp1830
S'28/07/2015'
p1831
aI15
asg3
g12
sg5
S'secondary occupation'
p1832
ssS'regale'
p1833
(dp1834
g9
(lp1835
S'28/07/2015'
p1836
aF8.947707176208496
asg3
g12
sg5
S'to entertain'
p1837
ssS'conciliatory'
p1838
(dp1839
g9
(lp1840
S'28/07/2015'
p1841
aI15
asg3
g12
sg5
S'overcoming distrust or hostility'
p1842
ssS'serendipity'
p1843
(dp1844
g3
g4
sg5
S'n. happy coincidence'
p1845
ssS'Coax'
p1846
(dp1847
g3
g4
sg5
S'Influence or persuade by talking in a gentle and friendly way'
p1848
ssS'Apocalyptic'
p1849
(dp1850
g3
g4
sg5
S'Prophetic; pertaining to revelations'
p1851
ssS'bigot'
p1852
(dp1853
g3
g4
sg5
S'bekrompen, bevooroordeeld persoon(dogmatist, partisan)'
p1854
ssS'savor'
p1855
(dp1856
g3
g12
sg5
S'to enjoy, have a distinctive flavor or smell'
p1857
ssS'apocryphal'
p1858
(dp1859
g3
g4
sg5
S'adj. probably untrue'
p1860
ssS'meager'
p1861
(dp1862
g3
g4
sg5
S'adj. scanty, inadequate'
p1863
ssS'immune'
p1864
(dp1865
g3
g4
sg5
S'adj. resistant'
p1866
ssS'query'
p1867
(dp1868
g3
g12
sg5
S'question'
p1869
ssS'irascible'
p1870
(dp1871
g9
(lp1872
S'28/07/2015'
p1873
aI15
asg3
g12
sg5
S'easily angered'
p1874
ssS'cavil'
p1875
(dp1876
g3
g4
sg5
S'make petty of unnecessary objections'
p1877
ssS'paramount'
p1878
(dp1879
g3
g4
sg5
S'adj. supremely important'
p1880
ssS'brazen'
p1881
(dp1882
g234
(lp1883
S'28/07/2015'
p1884
aI15
asg3
g12
sg5
S'bold; shameless'
p1885
ssS'countermand'
p1886
(dp1887
g3
g4
sg5
S'to cancel or reverse one order or command with another that is contrary to the first'
p1888
ssS'wistful'
p1889
(dp1890
g9
(lp1891
S'28/07/2015'
p1892
aF16.13825821876526
asg3
g12
sg5
S'vaguely longing, sadly thoughtful'
p1893
ssS'hedonism'
p1894
(dp1895
g3
g4
sg5
S'the pursuit of or devotion to pleasure; seeking pleasure of the senses'
p1896
ssS'coagulate'
p1897
(dp1898
g9
(lp1899
S'28/07/2015'
p1900
aF32.3638801574707
asg3
g12
sg5
S'thicken; congeal'
p1901
ssS'flourish'
p1902
(dp1903
g9
(lp1904
S'28/07/2015'
p1905
aF3.75468111038208
asg3
g12
sg5
S'en embellishment or ornamentation'
p1906
ssS'egotistical'
p1907
(dp1908
g9
(lp1909
S'28/07/2015'
p1910
aF6.4734179973602295
asg3
g12
sg5
S'excessively self-centered; conceited'
p1911
ssS'Infuriate'
p1912
(dp1913
g3
g4
sg5
S'Enrage; anger'
p1914
ssS'cosmology'
p1915
(dp1916
g9
(lp1917
S'28/07/2015'
p1918
aI15
asg3
g12
sg5
S'study of the universe as a totality; theory of the origin and structure of the universe'
p1919
ssS'propriety'
p1920
(dp1921
g3
g12
sg5
S'correct conduct, fitness'
p1922
ssS'truce'
p1923
(dp1924
g3
g4
sg5
S'(n.) An agreement between opposing groups'
p1925
ssS'bungle'
p1926
(dp1927
g3
g4
sg5
S'v. make a mess of(exacerbate)'
p1928
ssS'innocuous'
p1929
(dp1930
g3
g12
sg5
S'harmless'
p1931
ssS'nefarious'
p1932
(dp1933
g3
g4
sg5
S'adj. very mean and wicked'
p1934
ssS'arabesque'
p1935
(dp1936
g9
(lp1937
S'28/07/2015'
p1938
aI15
asg3
g12
sg5
S'ornate design featuring intertwined curves; a ballet position in which one leg is extended in back while the other supports the weight of the body'
p1939
ssS'dyspeptic'
p1940
(dp1941
g3
g4
sg5
S'adj. bad-tempered having an upset stomach'
p1942
ssS'unwonted'
p1943
(dp1944
g3
g4
sg5
S'not usual or expected; not in character'
p1945
ssS'avid'
p1946
(dp1947
g3
g4
sg5
S'adj. showing enthusiasm'
p1948
ssS'relegate'
p1949
(dp1950
g3
g12
sg5
S'to consign to an inferior position'
p1951
ssS'haughty'
p1952
(dp1953
g3
g4
sg5
S'adj. hauteur,arrogant, condescending'
p1954
ssS'apex'
p1955
(dp1956
g9
(lp1957
S'28/07/2015'
p1958
aI15
asg3
g12
sg5
S'the highest point'
p1959
ssS'sylvan'
p1960
(dp1961
g9
(lp1962
S'28/07/2015'
p1963
aF5.847640037536621
asg3
g12
sg5
S'related to the woods or forest'
p1964
ssS'satyr'
p1965
(dp1966
g9
(lp1967
S'28/07/2015'
p1968
aF7.446613073348999
asg3
g12
sg5
S'a creature that is half-man, half beast, with the horns and legs of a goat'
p1969
ssS'antipathy'
p1970
(dp1971
g9
(lp1972
S'28/07/2015'
p1973
aI15
asg3
g12
sg5
S'dislike; hostility'
p1974
ssS'Throng'
p1975
(dp1976
g3
g4
sg5
S'Crowd'
p1977
ssS'disparate'
p1978
(dp1979
g9
(lp1980
S'28/07/2015'
p1981
aF3.6419918537139893
asg3
g12
sg5
S'dissimilar'
p1982
ssS'amulet'
p1983
(dp1984
g9
(lp1985
S'28/07/2015'
p1986
aI15
asg3
g12
sg5
S'ornament worn as a charm against evil spirits'
p1987
ssS'cloying'
p1988
(dp1989
g3
g4
sg5
S'adj. excessively sweet'
p1990
ssS'qualified'
p1991
(dp1992
g3
g12
sg5
S'limited, restricted'
p1993
ssS'pinnacle'
p1994
(dp1995
g3
g4
sg5
S'n. highest point'
p1996
ssS'expedite'
p1997
(dp1998
g3
g4
sg5
S'to make easy, cause to progress faster'
p1999
ssS'rescind'
p2000
(dp2001
g3
g12
sg5
S'to cancel'
p2002
ssS'occult'
p2003
(dp2004
g9
(lp2005
S'28/07/2015'
p2006
aF5.902491092681885
asg3
g12
sg5
S'relating to practices connected with supernatural phenomena'
p2007
ssS'minatory'
p2008
(dp2009
g9
(lp2010
S'28/07/2015'
p2011
aF2.304399013519287
asg3
g12
sg5
S'threatening; menacing'
p2012
ssS'peregrination'
p2013
(dp2014
g234
(lp2015
S'28/07/2015'
p2016
aI15
asg3
g12
sg5
S'wandering from place to place'
p2017
ssS'placate'
p2018
(dp2019
g9
(lp2020
S'28/07/2015'
p2021
aF4.503319025039673
asg3
g12
sg5
S'soothe; pacify'
p2022
ssS'deify'
p2023
(dp2024
g3
g4
sg5
S'v. worship'
p2025
ssS'furtive'
p2026
(dp2027
g3
g4
sg5
S'done slyly or stealthily, sneaky, secret, shifty; stolen'
p2028
ssS'vexation'
p2029
(dp2030
g3
g12
sg5
S'irritation, annoyance'
p2031
ssS'vogue'
p2032
(dp2033
g3
g12
sg5
S'prevailing fashion or practice'
p2034
ssS'Acrimonious'
p2035
(dp2036
g3
g4
sg5
S'Bitter in words or manner( Embittered, Resentful)'
p2037
ssS'menagerie'
p2038
(dp2039
g3
g12
sg5
S'a variety of animals kept together'
p2040
ssS'grouse'
p2041
(dp2042
g9
(lp2043
S'28/07/2015'
p2044
aF7.116966962814331
asg3
g12
sg5
S'to complain'
p2045
ssS'treacherous'
p2046
(dp2047
g3
g4
sg5
S'adj. untrustworthy'
p2048
ssS'bovine'
p2049
(dp2050
g9
(lp2051
S'28/07/2015'
p2052
aI15
asg3
g12
sg5
S'cowlike'
p2053
ssS'supplant'
p2054
(dp2055
g9
(lp2056
S'28/07/2015'
p2057
aF10.697700023651123
asg3
g12
sg5
S'to replace, substitute'
p2058
ssS'aloof'
p2059
(dp2060
g3
g4
sg5
S'not desiring to associate with others'
p2061
ssS'flaccid'
p2062
(dp2063
g3
g4
sg5
S'(adj.) limp, not firm; lacking vigor or effectiveness'
p2064
ssS'antagonist (n)'
p2065
(dp2066
g3
g4
sg5
S'an opponent, adversary, an opposing force'
p2067
ssS'abide'
p2068
(dp2069
g3
g4
sg5
S'endure'
p2070
ssS'condole'
p2071
(dp2072
g3
g4
sg5
S'v. express sympathy for someone'
p2073
ssS'nominal'
p2074
(dp2075
g3
g4
sg5
S'appearing in name only; negligible or of low amount'
p2076
ssS'imperative'
p2077
(dp2078
g3
g4
sg5
S'adj. very important'
p2079
ssS'viable'
p2080
(dp2081
g3
g12
sg5
S'practicable, capable of developing'
p2082
ssS'simile'
p2083
(dp2084
g3
g12
sg5
S'comparison of one thing with another using "like" or "as"'
p2085
ssS'ascendant'
p2086
(dp2087
g3
g4
sg5
S'adj. rising in power'
p2088
ssS'Taint'
p2089
(dp2090
g3
g4
sg5
S'Contaminate; cause to lose purity'
p2091
ssS'virtuoso'
p2092
(dp2093
g9
(lp2094
S'28/07/2015'
p2095
aF3.375488042831421
asg3
g12
sg5
S'someone with master skills, expert musician'
p2096
ssS'gaffe'
p2097
(dp2098
g3
g4
sg5
S'tavla, blunder'
p2099
ssS'ominous'
p2100
(dp2101
g3
g4
sg5
S'adj. relating to an evil omen'
p2102
ssS'solicitous'
p2103
(dp2104
g3
g12
sg5
S'concerned, attentive, eager'
p2105
ssS'vestige'
p2106
(dp2107
g3
g4
sg5
S'n. remnant'
p2108
ssS'homily'
p2109
(dp2110
g9
(lp2111
S'28/07/2015'
p2112
aF14.942224979400635
asg3
g12
sg5
S'sermon; tedious moralizing lecture'
p2113
ssS'pundit'
p2114
(dp2115
g3
g4
sg5
S'one who gives expert opinions'
p2116
ssS'vehemently'
p2117
(dp2118
g3
g4
sg5
S'adv. marked by intense force or emotion'
p2119
ssS'quibble'
p2120
(dp2121
g3
g12
sg5
S'to argue over insignificant and irrelevant details'
p2122
ssS'desultory'
p2123
(dp2124
g234
(lp2125
S'28/07/2015'
p2126
aI15
asg3
g12
sg5
S'random; disconnected; rambling'
p2127
ssS'exotic'
p2128
(dp2129
g3
g4
sg5
S'strikingly different'
p2130
ssS'feign'
p2131
(dp2132
g3
g4
sg5
S'to pretend something'
p2133
ssS'petulant'
p2134
(dp2135
g9
(lp2136
S'28/07/2015'
p2137
aI15
asg3
g12
sg5
S'rude; peevish'
p2138
ssS'clumsy'
p2139
(dp2140
g3
g4
sg5
S'adj. always breaking things'
p2141
ssS'consecrate'
p2142
(dp2143
g9
(lp2144
S'28/07/2015'
p2145
aF11.723369121551514
asg3
g12
sg5
S'to declare sacred'
p2146
ssS'languish'
p2147
(dp2148
g3
g4
sg5
S'v. grow weak'
p2149
ssS'impetuous'
p2150
(dp2151
g3
g4
sg5
S'impulsive, characterized by sudden or rash action'
p2152
ssS'Disdain'
p2153
(dp2154
g3
g4
sg5
S'Strong dislike'
p2155
ssS'categorical'
p2156
(dp2157
g9
(lp2158
S'28/07/2015'
p2159
aI15
asg3
g12
sg5
S'absolute; without exception'
p2160
ssS'murky'
p2161
(dp2162
g3
g4
sg5
S'dark and gloomy, obscure; lacking in clarity and precision; stygian'
p2163
ssS'callous'
p2164
(dp2165
g9
(lp2166
S'28/07/2015'
p2167
aI15
asg3
g12
sg5
S'thick-skinned; insensitive'
p2168
ssS'purloin'
p2169
(dp2170
g3
g4
sg5
S'steal'
p2171
ssS'lambaste'
p2172
(dp2173
g3
g12
sg5
S'to trash verbally or physically'
p2174
ssS'convention'
p2175
(dp2176
g9
(lp2177
S'28/07/2015'
p2178
aI15
asg3
g12
sg5
S'practice widely observed in a group; custom; accepted technique or device'
p2179
ssS'daunt'
p2180
(dp2181
g9
(lp2182
S'28/07/2015'
p2183
aF3.4836909770965576
asg3
g12
sg5
S'to discourage; intimidate; dishearten'
p2184
ssS'Repeal'
p2185
(dp2186
g3
g4
sg5
S'Revoke; annul'
p2187
ssS'artless'
p2188
(dp2189
g9
(lp2190
S'28/07/2015'
p2191
aI15
asg3
g12
sg5
S'guileless; natural'
p2192
ssS'soporific'
p2193
(dp2194
g3
g12
sg5
S'sleep producing'
p2195
ssS'artifact'
p2196
(dp2197
g9
(lp2198
S'28/07/2015'
p2199
aI15
asg3
g12
sg5
S'item made by human craft'
p2200
ssS'Torrid'
p2201
(dp2202
g3
g4
sg5
S'Passionate; hot or scorching'
p2203
ssS'interdict'
p2204
(dp2205
g3
g12
sg5
S'to forbid; prohibit'
p2206
ssS'enigma'
p2207
(dp2208
g3
g4
sg5
S'puzzle, mystery'
p2209
ssS'Espouse'
p2210
(dp2211
g3
g4
sg5
S'Adopt; support'
p2212
ssS'sextant'
p2213
(dp2214
g9
(lp2215
S'28/07/2015'
p2216
aF6.119487047195435
asg3
g12
sg5
S'navigation tool that determines latitude and longitude'
p2217
ssS'Nondescript'
p2218
(dp2219
g3
g4
sg5
S'Ordinary'
p2220
ssS'heretical'
p2221
(dp2222
g3
g4
sg5
S'adj. departing from accepted beliefs or standards, oppositional'
p2223
ssS'infiltrate'
p2224
(dp2225
g3
g4
sg5
S'(v.) to pass through or gain entrance to gradually or stealthily'
p2226
ssS'tawdry'
p2227
(dp2228
g3
g4
sg5
S'adj. cheap and dirty'
p2229
ssS'cower'
p2230
(dp2231
g3
g4
sg5
S'v. hunch over in fear, to cringer in fear'
p2232
ssS'quotidian'
p2233
(dp2234
g3
g4
sg5
S'adj. happening every day'
p2235
ssS'distill'
p2236
(dp2237
g9
(lp2238
S'28/07/2015'
p2239
aF11.86962103843689
asg3
g12
sg5
S'extract the essential elements'
p2240
ssS'savant'
p2241
(dp2242
g3
g4
sg5
S'n. person with a particularly developed knowledge or skill'
p2243
ssS'blandishment'
p2244
(dp2245
g9
(lp2246
S'28/07/2015'
p2247
aI15
asg3
g12
sg5
S'flattery'
p2248
ssS'impinge'
p2249
(dp2250
g3
g12
sg5
S'to strike; encroach'
p2251
ssS'profuse'
p2252
(dp2253
g3
g4
sg5
S'(especially of something offered or discharged) exuberantly plentiful; abundant'
p2254
ssS'sublime'
p2255
(dp2256
g3
g4
sg5
S'noble'
p2257
ssS'contentious'
p2258
(dp2259
g9
(lp2260
S'28/07/2015'
p2261
aI15
asg3
g12
sg5
S'quarrelsome; causing quarrels'
p2262
ssS'pellucid'
p2263
(dp2264
g3
g12
sg5
S'transparent; easily understood'
p2265
ssS'onomatopoeia'
p2266
(dp2267
g9
(lp2268
S'28/07/2015'
p2269
aF4.2285051345825195
asg3
g12
sg5
S'formation or use of words that imitate sounds of the actions they refer to'
p2270
ssS'sumptuous'
p2271
(dp2272
g3
g4
sg5
S'costly, rich, magnificent'
p2273
ssS'culpable'
p2274
(dp2275
g3
g4
sg5
S'deserving blame'
p2276
ssS'stolid'
p2277
(dp2278
g3
g12
sg5
S'having or showing little emotion'
p2279
ssS'knead'
p2280
(dp2281
g3
g4
sg5
S'v. squeeze and fold with the hands'
p2282
ssS'acumen'
p2283
(dp2284
g3
g4
sg5
S'keen, accurate judgement or insight'
p2285
ssS'mendicant'
p2286
(dp2287
g3
g12
sg5
S'beggar'
p2288
ssS'appellation'
p2289
(dp2290
g9
(lp2291
S'28/07/2015'
p2292
aI15
asg3
g12
sg5
S'name'
p2293
ssS'inept'
p2294
(dp2295
g3
g4
sg5
S'incompetent, clumsy, unskilled'
p2296
ssS'indelible'
p2297
(dp2298
g3
g4
sg5
S'cannot be erased'
p2299
ssS'squalor'
p2300
(dp2301
g3
g12
sg5
S'filthy, wretched condition'
p2302
ssS'remunerate'
p2303
(dp2304
g3
g4
sg5
S'v. pay'
p2305
ssS'abut'
p2306
(dp2307
g3
g4
sg5
S'v. adjacent, skirt'
p2308
ssS'barrage'
p2309
(dp2310
g3
g4
sg5
S'(n.) An overwhelming quantity or explosion, as of words, blows, or criticisms'
p2311
ssS'rationale'
p2312
(dp2313
g9
(lp2314
S'28/07/2015'
p2315
aI15
asg3
g12
sg5
S'fundamental reason'
p2316
ssS'saunter'
p2317
(dp2318
g3
g4
sg5
S'(n.) A leisurely walk, a stroll; (v.) To walk at a leisurely pace, to stroll slowly'
p2319
ssS'pernicious'
p2320
(dp2321
g3
g4
sg5
S'adj. very destructive or harmful'
p2322
ssS'glutton'
p2323
(dp2324
g3
g4
sg5
S'n. one who over indulges in food and drink'
p2325
ssS'permeable'
p2326
(dp2327
g9
(lp2328
S'28/07/2015'
p2329
aF4.614670991897583
asg3
g12
sg5
S'penetrable'
p2330
ssS'bacchanalian'
p2331
(dp2332
g9
(lp2333
S'28/07/2015'
p2334
aI15
asg3
g12
sg5
S'pertaining to riotous or drunken festivity; pertaining to revelry'
p2335
ssS'supposition'
p2336
(dp2337
g3
g12
sg5
S'the act of assuming to be true or real'
p2338
ssS'dirge'
p2339
(dp2340
g9
(lp2341
S'28/07/2015'
p2342
aF3.842705011367798
asg3
g12
sg5
S'funeral hymn'
p2343
ssS'diverge'
p2344
(dp2345
g9
(lp2346
S'28/07/2015'
p2347
aF3.344541072845459
asg3
g12
sg5
S'to vary; go in different directions from the same point'
p2348
ssS'Timidity'
p2349
(dp2350
g3
g4
sg5
S'Lack of self-confidence or courage'
p2351
ssS'fulsome'
p2352
(dp2353
g9
(lp2354
S'28/07/2015'
p2355
aF7.079324007034302
asg3
g12
sg5
S'so excessive as to be disgusting'
p2356
ssS'plumb'
p2357
(dp2358
g9
(lp2359
S'28/07/2015'
p2360
aF27.869637966156006
asg3
g12
sg5
S'to examine deeply; determine the depth'
p2361
ssS'preternatural'
p2362
(dp2363
g9
(lp2364
S'28/07/2015'
p2365
aF2.612912893295288
asg3
g12
sg5
S'supernatural; beyond the normal use of nature'
p2366
ssS'travesty'
p2367
(dp2368
g3
g12
sg5
S'parody, exaggerated imitation, caricature'
p2369
ssS'froward'
p2370
(dp2371
g9
(lp2372
S'28/07/2015'
p2373
aF3.070003032684326
asg3
g12
sg5
S'stubbornly contrary; obstinately disobedient'
p2374
ssS'nugatory'
p2375
(dp2376
g9
(lp2377
S'28/07/2015'
p2378
aI15
asg3
g12
sg5
S'trifling; invalid'
p2379
ssS'loath'
p2380
(dp2381
g3
g4
sg5
S'unwilling, reluctant'
p2382
ssS'factotum'
p2383
(dp2384
g9
(lp2385
S'28/07/2015'
p2386
aI15
asg3
g12
sg5
S'a person who does all sorts of work; a handyman'
p2387
ssS'badinage'
p2388
(dp2389
g3
g4
sg5
S'light and playful conversation'
p2390
ssS'beseech'
p2391
(dp2392
g3
g4
sg5
S'beg; implore'
p2393
ssS'deprecate'
p2394
(dp2395
g3
g4
sg5
S'(v.) to express mild disapproval; to belittle'
p2396
ssS'Scrupulous'
p2397
(dp2398
g3
g4
sg5
S'Conscientious; extremely thorough'
p2399
ssS'obliterate'
p2400
(dp2401
g3
g4
sg5
S'destroy utterly; wipe out.'
p2402
ssS'Reciprocate'
p2403
(dp2404
g3
g4
sg5
S'Repay or respond in similar manner; respond to kindness'
p2405
ssS'denouement'
p2406
(dp2407
g9
(lp2408
S'28/07/2015'
p2409
aF47.8113489151001
asg3
g12
sg5
S'outcome; unraveling of the plot of a play or work of literature'
p2410
ssS'browbeat'
p2411
(dp2412
g3
g4
sg5
S'v. yell at'
p2413
ssS'Mirage'
p2414
(dp2415
g3
g4
sg5
S'something illusionary'
p2416
ssS'disparage'
p2417
(dp2418
g9
(lp2419
S'28/07/2015'
p2420
aF5.69420599937439
asg3
g12
sg5
S'to belittle'
p2421
ssS'morose'
p2422
(dp2423
g9
(lp2424
S'28/07/2015'
p2425
aF5.151119947433472
asg3
g12
sg5
S'ill-humored; sullen'
p2426
ssS'expiate'
p2427
(dp2428
g9
(lp2429
S'28/07/2015'
p2430
aF11.983082056045532
asg3
g12
sg5
S'to atone for'
p2431
ssS'recalcitrant'
p2432
(dp2433
g3
g12
sg5
S'resisting authority or control'
p2434
ssS'salutation'
p2435
(dp2436
g3
g4
sg5
S'n. greeting'
p2437
ssS'stigma'
p2438
(dp2439
g3
g12
sg5
S'mark of disgrace or inferiority'
p2440
ssS'asperity'
p2441
(dp2442
g9
(lp2443
S'28/07/2015'
p2444
aI15
asg3
g12
sg5
S'severity; harshness; irritability'
p2445
ssS'Impugn'
p2446
(dp2447
g3
g4
sg5
S'insult'
p2448
ssS'nostrum'
p2449
(dp2450
g9
(lp2451
S'28/07/2015'
p2452
aF4.794249057769775
asg3
g12
sg5
S'medicine or remedy of doubtful effectiveness'
p2453
ssS'bathetic'
p2454
(dp2455
g3
g4
sg5
S'adj. characterized by exceptional commonplaceness( trite,commonplace, stale, stereotyped)'
p2456
ssS'denizen'
p2457
(dp2458
g234
(lp2459
S'28/07/2015'
p2460
aI15
asg3
g12
sg5
S'an inhabitant; a regular visitor'
p2461
ssS'perspicuous'
p2462
(dp2463
g3
g4
sg5
S'adj. clear and easy to understand'
p2464
ssS'anodyne'
p2465
(dp2466
g234
(lp2467
S'28/07/2015'
p2468
aI15
asg3
g12
sg5
S'something that calms or soothes pain'
p2469
ssS'Awe'
p2470
(dp2471
g3
g4
sg5
S'Solemn wonder'
p2472
ssS'presage'
p2473
(dp2474
g3
g12
sg5
S'to foretell; indicate in advance'
p2475
ssS'caucus'
p2476
(dp2477
g9
(lp2478
S'28/07/2015'
p2479
aI15
asg3
g12
sg5
S'smaller group within an organization'
p2480
ssS'pitiless'
p2481
(dp2482
g3
g4
sg5
S'adj. without pity'
p2483
ssS'satiate'
p2484
(dp2485
g9
(lp2486
S'28/07/2015'
p2487
aF1.961496114730835
asg3
g12
sg5
S'to satisfy'
p2488
ssS'somnolence'
p2489
(dp2490
g3
g4
sg5
S'n. the state of being about to fall asleep'
p2491
ssS'tacit'
p2492
(dp2493
g3
g12
sg5
S'silently understood, implied'
p2494
ssS'rapacious'
p2495
(dp2496
g3
g4
sg5
S'adj. violently greedy;avarice'
p2497
ssS'jovial'
p2498
(dp2499
g3
g4
sg5
S'adj. good-humored'
p2500
ssS'animus'
p2501
(dp2502
g3
g4
sg5
S'n. strong dislike (a...)'
p2503
ssS'distrait'
p2504
(dp2505
g9
(lp2506
S'28/07/2015'
p2507
aI15
asg3
g12
sg5
S'inattentive; preoccupied'
p2508
ssS'oust'
p2509
(dp2510
g3
g4
sg5
S'drive out or expel (someone) from a position or place.'
p2511
ssS'puerile'
p2512
(dp2513
g3
g4
sg5
S'adj. childishly foolish; immature or trivial'
p2514
ssS'emaciated'
p2515
(dp2516
g9
(lp2517
S'28/07/2015'
p2518
aI15
asg3
g12
sg5
S'thin and wasted'
p2519
ssS'tractable'
p2520
(dp2521
g3
g12
sg5
S'obedient, yielding'
p2522
ssS'fulminate'
p2523
(dp2524
g9
(lp2525
S'28/07/2015'
p2526
aF6.315346002578735
asg3
g12
sg5
S'to attack loudly; denounce'
p2527
ssS'ethnocentric'
p2528
(dp2529
g9
(lp2530
S'28/07/2015'
p2531
aF4.64160680770874
asg3
g12
sg5
S"based on the attitude tha one's group is superior"
p2532
ssS'belie'
p2533
(dp2534
g9
(lp2535
S'28/07/2015'
p2536
aI15
asg3
g12
sg5
S'to contradict; misrepresent; give a false impression'
p2537
ssS'tout'
p2538
(dp2539
g3
g12
sg5
S'to promote or praise energetically'
p2540
ssS'delirium'
p2541
(dp2542
g3
g4
sg5
S'great excitement'
p2543
ssS'Acrid'
p2544
(dp2545
g3
g4
sg5
S'Sharp; bitterly pungent'
p2546
ssS'calumniate'
p2547
(dp2548
g3
g4
sg5
S'to slander; to accuse falsely and maliciously'
p2549
ssS'evict'
p2550
(dp2551
g3
g4
sg5
S'expel'
p2552
ssS'Sprawl'
p2553
(dp2554
g3
g4
sg5
S'To spread out in an irregular manner.'
p2555
ssS'terse'
p2556
(dp2557
g3
g4
sg5
S'adj. using only the words that are need to make a point'
p2558
ssS'ineluctable'
p2559
(dp2560
g3
g12
sg5
S'not to be avoided or escaped; inevitable'
p2561
ssS'dispatch'
p2562
(dp2563
g3
g4
sg5
S'efficient speed'
p2564
ssS'Morbid'
p2565
(dp2566
g3
g4
sg5
S'Moody; given to unwholesome thought'
p2567
ssS'epistemology'
p2568
(dp2569
g9
(lp2570
S'28/07/2015'
p2571
aF3.8817291259765625
asg3
g12
sg5
S'branch of philosophy tha examines the nature of knowledge'
p2572
ssS'caricature'
p2573
(dp2574
g3
g4
sg5
S'portrait (distorted)'
p2575
ssS'repine'
p2576
(dp2577
g3
g12
sg5
S'fret, complain'
p2578
ssS'depravity'
p2579
(dp2580
g3
g4
sg5
S'1. corruption 2. corrupt act'
p2581
ssS'linguistic'
p2582
(dp2583
g3
g12
sg5
S'pertaining to language'
p2584
ssS'diatribe'
p2585
(dp2586
g234
(lp2587
S'28/07/2015'
p2588
aI15
asg3
g12
sg5
S'bitter verbal attack'
p2589
ssS'torpor'
p2590
(dp2591
g9
(lp2592
S'28/07/2015'
p2593
aF10.723896980285645
asg3
g12
sg5
S'lethargy, dormancy, sluggishness'
p2594
ssS'exasperate'
p2595
(dp2596
g3
g4
sg5
S'to make angry,vex'
p2597
ssS'dissipate'
p2598
(dp2599
g3
g4
sg5
S'cause to diminish,disperse,dispel'
p2600
ssS'homely'
p2601
(dp2602
g3
g4
sg5
S'lacking in physical attractiveness; not beautiful; unattractive'
p2603
ssS'abject'
p2604
(dp2605
g9
(lp2606
S'28/07/2015'
p2607
aI15
asg3
g12
sg5
S'miserable; pitiful'
p2608
ssS'extant'
p2609
(dp2610
g9
(lp2611
S'28/07/2015'
p2612
aI15
asg3
g12
sg5
S'in existence; not lost'
p2613
ssS'Scotch'
p2614
(dp2615
g3
g4
sg5
S'Suppress, thwart, to put an end to'
p2616
ssS'odyssey'
p2617
(dp2618
g9
(lp2619
S'28/07/2015'
p2620
aF2.8322560787200928
asg3
g12
sg5
S'a long, adventurous voyage; a quest'
p2621
ssS'sedition'
p2622
(dp2623
g3
g12
sg5
S'behaviour prompting rebellion'
p2624
ssS'Crescendo'
p2625
(dp2626
g3
g4
sg5
S'Increase in the volume or intensity'
p2627
ssS'invigorate'
p2628
(dp2629
g3
g4
sg5
S'v. give energy'
p2630
ssS'refractory'
p2631
(dp2632
g9
(lp2633
S'28/07/2015'
p2634
aI15
asg3
g12
sg5
S'stubborn, resisting ordinary methods of treatment'
p2635
ssS'implacable'
p2636
(dp2637
g3
g12
sg5
S'inflexible; incable of being pleased or calmed down'
p2638
ssS'misanthrope'
p2639
(dp2640
g9
(lp2641
S'28/07/2015'
p2642
aF4.238117933273315
asg3
g12
sg5
S'one who hates humanity; one who dislikes others'
p2643
ssS'zenith'
p2644
(dp2645
g3
g4
sg5
S'peak, highest point (z...)'
p2646
ssS'recumbent'
p2647
(dp2648
g3
g4
sg5
S'in a reclining position, lying down, in the posture of one sleeping or resting'
p2649
ssS'canon'
p2650
(dp2651
g9
(lp2652
S'28/07/2015'
p2653
aF1.8824920654296875
asg3
g12
sg5
S'an established set of principles; a basis or standard for judgment; a group of literary works'
p2654
ssS'dubious'
p2655
(dp2656
g3
g4
sg5
S'doubtful'
p2657
ssS'incubate'
p2658
(dp2659
g3
g4
sg5
S'develop slowly'
p2660
ssS'volition'
p2661
(dp2662
g3
g4
sg5
S'n. willingness'
p2663
ssS'ingrained'
p2664
(dp2665
g3
g4
sg5
S'firmly rooted'
p2666
ssS'demur'
p2667
(dp2668
g9
(lp2669
S'28/07/2015'
p2670
aI15
asg3
g12
sg5
S'to express doubt; question or oppose'
p2671
ssS'quagmire'
p2672
(dp2673
g3
g12
sg5
S'marsh, difficult situation'
p2674
ssS'deference'
p2675
(dp2676
g9
(lp2677
S'28/07/2015'
p2678
aI15
asg3
g12
sg5
S"respect; regard for another's wish"
p2679
ssS'document'
p2680
(dp2681
g9
(lp2682
S'28/07/2015'
p2683
aF4.618579864501953
asg3
g12
sg5
S'to provide with written evidence to support'
p2684
ssS'Jettison'
p2685
(dp2686
g3
g4
sg5
S'Get rid of something'
p2687
ssS'pedantic'
p2688
(dp2689
g234
(lp2690
S'28/07/2015'
p2691
aI15
asg3
g12
sg5
S'Characterized by a narrow, often ostentatious concern for book learning and formal rules'
p2692
ssS'amenable'
p2693
(dp2694
g9
(lp2695
S'28/07/2015'
p2696
aI15
asg3
g12
sg5
S'agreeable; cooperative; suited'
p2697
ssS'deft'
p2698
(dp2699
g3
g4
sg5
S'adj. skillful'
p2700
ssS'meteorological'
p2701
(dp2702
g3
g12
sg5
S'concerned with the weather'
p2703
ssS'callow'
p2704
(dp2705
g3
g4
sg5
S'adj. inexperienced'
p2706
ssS'odium'
p2707
(dp2708
g3
g4
sg5
S'n. widespread hatred'
p2709
ssS'Repartee'
p2710
(dp2711
g3
g4
sg5
S'Quick, witty reply; riposte'
p2712
ssS'perennial'
p2713
(dp2714
g9
(lp2715
S'28/07/2015'
p2716
aF4.789988040924072
asg3
g12
sg5
S'present throughout the years; persistent'
p2717
ssS'dogmatic'
p2718
(dp2719
g9
(lp2720
S'28/07/2015'
p2721
aF6.678879976272583
asg3
g12
sg5
S'stating opinions without proof'
p2722
ssS'substantive'
p2723
(dp2724
g3
g12
sg5
S'essential'
p2725
ssS'suppliant'
p2726
(dp2727
g3
g12
sg5
S'beseeching, a person making a humble plea to someone in power or authority'
p2728
ssS'alleviate'
p2729
(dp2730
g9
(lp2731
S'28/07/2015'
p2732
aI15
asg3
g12
sg5
S'to relieve; improve partially'
p2733
ssS'miscellany'
p2734
(dp2735
g9
(lp2736
S'28/07/2015'
p2737
aF7.9525370597839355
asg3
g12
sg5
S'mixture of writtings on various subjects'
p2738
ssS'Moratorium'
p2739
(dp2740
g3
g4
sg5
S'(n.) a suspension of activity; an offical waiting period; an authorized period of delay'
p2741
ssS'parody'
p2742
(dp2743
g3
g4
sg5
S'a humorous imitation intended for ridicule or comic effect, esp. in literature and art; travesty;pastiche'
p2744
ssS'elysian'
p2745
(dp2746
g9
(lp2747
S'28/07/2015'
p2748
aF4.010502815246582
asg3
g12
sg5
S'delightful; blissful'
p2749
ssS'amalgamate'
p2750
(dp2751
g9
(lp2752
S'28/07/2015'
p2753
aI15
asg3
g12
sg5
S'to combine into a unified whole'
p2754
ssS'pariah'
p2755
(dp2756
g3
g4
sg5
S'one who has been rejected by society, social outcast'
p2757
ssS'homeostasis'
p2758
(dp2759
g9
(lp2760
S'28/07/2015'
p2761
aF5.1332619190216064
asg3
g12
sg5
S'automatic maintenance by an organism in balance with itself'
p2762
ssS'tirade'
p2763
(dp2764
g3
g12
sg5
S'long, violent speech, verbal assault'
p2765
ssS'Nuance'
p2766
(dp2767
g3
g4
sg5
S'something subtle, a fine shade of meaning'
p2768
ssS'domicile'
p2769
(dp2770
g3
g4
sg5
S'n. home'
p2771
ssS'sinuous'
p2772
(dp2773
g3
g12
sg5
S'intricate, complex'
p2774
ssS'doyen'
p2775
(dp2776
g3
g4
sg5
S'man who is the eldest or senior member of a group, profession, or society'
p2777
ssS'exult'
p2778
(dp2779
g3
g4
sg5
S'rejoice, delight, glory, jubilate, joy, rejoice, triumph,'
p2780
ssS'seamy'
p2781
(dp2782
g3
g4
sg5
S'unwholesome; sordid'
p2783
ssS'earnest'
p2784
(dp2785
g3
g4
sg5
S'intensely serious and sincere'
p2786
ssS'tremulous'
p2787
(dp2788
g3
g12
sg5
S'trembling, frugal, timid'
p2789
ssS'cardinal'
p2790
(dp2791
g9
(lp2792
S'28/07/2015'
p2793
aI15
asg3
g12
sg5
S'of foremost importance'
p2794
ssS'multifarious'
p2795
(dp2796
g9
(lp2797
S'28/07/2015'
p2798
aF2.178766965866089
asg3
g12
sg5
S'diverse'
p2799
ssS'engross'
p2800
(dp2801
g3
g4
sg5
S'preoccupy,immerse, fascinate, grip, absorb'
p2802
ssS'feckless'
p2803
(dp2804
g3
g4
sg5
S'unlikely to be successful'
p2805
ssS'Valiant'
p2806
(dp2807
g3
g4
sg5
S'Bold; courageous; stouthearted; heroic'
p2808
ssS'militate'
p2809
(dp2810
g9
(lp2811
S'28/07/2015'
p2812
aF2.158017873764038
asg3
g12
sg5
S'to work against'
p2813
ssS'captious'
p2814
(dp2815
g9
(lp2816
S'28/07/2015'
p2817
aI15
asg3
g12
sg5
S'faultfinding; intended to entrap, as in an argument'
p2818
ssS'Matriculate'
p2819
(dp2820
g3
g4
sg5
S'Enroll (in college)'
p2821
ssS'servile'
p2822
(dp2823
g3
g12
sg5
S'submissive, obedient'
p2824
ssS'droll'
p2825
(dp2826
g3
g4
sg5
S'oddly amusing'
p2827
ssS'phoenix'
p2828
(dp2829
g234
(lp2830
S'28/07/2015'
p2831
aI15
asg3
g12
sg5
S'anything that is restored after suffering great destruction'
p2832
ssS'fusty'
p2833
(dp2834
g3
g4
sg5
S'Smelling stale, damp, or stuffy: "the fusty odor of decay".  2.\tOld-fashioned in attitude or style'
p2835
ssS'corrosive'
p2836
(dp2837
g3
g4
sg5
S'adj. erosive, caustic, liable to eat away at things'
p2838
ssS'juggernaut'
p2839
(dp2840
g3
g12
sg5
S'huge froce destroying everything in its path'
p2841
ssS'intimate'
p2842
(dp2843
g3
g12
sg5
S'marked by close acquaintance'
p2844
ssS'voracious'
p2845
(dp2846
g3
g4
sg5
S'adj. wanting large amounts of food'
p2847
ssS'prattle'
p2848
(dp2849
g3
g12
sg5
S'meaningless, foolish talk'
p2850
ssS'vacillate'
p2851
(dp2852
g3
g12
sg5
S'to waver, oscillate'
p2853
ssS'Languid'
p2854
(dp2855
g3
g4
sg5
S'Weary; sluggish; listless'
p2856
ssS'piety'
p2857
(dp2858
g3
g12
sg5
S'devoutness'
p2859
ssS'sensuous'
p2860
(dp2861
g9
(lp2862
S'28/07/2015'
p2863
aF3.080836057662964
asg3
g12
sg5
S'relating to the senses'
p2864
ssS'acclimate'
p2865
(dp2866
g3
g4
sg5
S'v. become accustomed to'
p2867
ssS'Ensue'
p2868
(dp2869
g3
g4
sg5
S'Follow immediately; occur as a result'
p2870
ssS'hieroglyphics'
p2871
(dp2872
g9
(lp2873
S'28/07/2015'
p2874
aF2.2121119499206543
asg3
g12
sg5
S'a system of writing in which pictorial symbols represent meanings or sounds; wirting or symbols that are difficult to decipher'
p2875
ssS'dilettante'
p2876
(dp2877
g3
g4
sg5
S'amateur,nonexpert,one who dabbles in art and science'
p2878
ssS'chivalry'
p2879
(dp2880
g9
(lp2881
S'28/07/2015'
p2882
aF4.985894203186035
asg3
g12
sg5
S'the qualities idealized by knighthood such as bravery and gallantry toward women'
p2883
ssS'renovate'
p2884
(dp2885
g3
g4
sg5
S'v. make as if new again'
p2886
ssS'ambrosia'
p2887
(dp2888
g9
(lp2889
S'28/07/2015'
p2890
aI15
asg3
g12
sg5
S'something delicious; the food of the gods'
p2891
ssS'resuscitate'
p2892
(dp2893
g3
g4
sg5
S'v. bring back to life'
p2894
ssS'hew'
p2895
(dp2896
g3
g4
sg5
S'(v.) to shape or cut down with an ax; to hold to'
p2897
ssS'log'
p2898
(dp2899
g3
g12
sg5
S'record of a voyage; record of daily activities'
p2900
ssS'myopic'
p2901
(dp2902
g3
g4
sg5
S'shortsighted'
p2903
ssS'compliant'
p2904
(dp2905
g9
(lp2906
S'28/07/2015'
p2907
aI15
asg3
g12
sg5
S'yielding'
p2908
ssS'bromide'
p2909
(dp2910
g3
g4
sg5
S'a statement which is intended to make someone less angry but which is not effective'
p2911
ssS'futile'
p2912
(dp2913
g9
(lp2914
S'28/07/2015'
p2915
aF3.864765167236328
asg3
g12
sg5
S'ineffective; useless; fruitless'
p2916
ssS'galvanize'
p2917
(dp2918
g3
g4
sg5
S'Stimulate by shock; stir up; revitalize'
p2919
ssS'expatriate'
p2920
(dp2921
g9
(lp2922
S'28/07/2015'
p2923
aI15
asg3
g12
sg5
S'to send into exile'
p2924
ssS'viscous'
p2925
(dp2926
g3
g12
sg5
S'thick, syrupy'
p2927
ssS'immaculate'
p2928
(dp2929
g3
g4
sg5
S'perfectly clean, spotless'
p2930
ssS'Veer'
p2931
(dp2932
g3
g4
sg5
S'Change in direction'
p2933
ssS'fanatic'
p2934
(dp2935
g3
g4
sg5
S'n. blindly keen person'
p2936
ssS'tranquility'
p2937
(dp2938
g3
g4
sg5
S'state of calm, serenity or quiet'
p2939
ssS'shroud'
p2940
(dp2941
g3
g4
sg5
S'cover or hide something'
p2942
ssS'recoil'
p2943
(dp2944
g3
g4
sg5
S'(v.) to spring back, shrink; (n.) the act of springing back'
p2945
ssS'rouse'
p2946
(dp2947
g3
g4
sg5
S'v\xc3\xa4cka, elda, uppr\xc3\xb6ra'
p2948
ssS'emancipate'
p2949
(dp2950
g3
g4
sg5
S'v. release from slavery'
p2951
ssS'plucky'
p2952
(dp2953
g3
g4
sg5
S'adj. brave'
p2954
ssS'regimen'
p2955
(dp2956
g3
g4
sg5
S'n. set of rules or suggested habits'
p2957
ssS'flamboyant'
p2958
(dp2959
g3
g4
sg5
S'praktfull, extravagant, tending to attract attention because of their exuberance, confidence, and stylishness. \tostentatious, exuberant, confident, lively, buoyant, animated'
p2960
ssS'default'
p2961
(dp2962
g234
(lp2963
S'28/07/2015'
p2964
aI15
asg3
g12
sg5
S'to fail to act'
p2965
ssS'attenuate'
p2966
(dp2967
g9
(lp2968
S'28/07/2015'
p2969
aI15
asg3
g12
sg5
S'to weaken'
p2970
ssS'excruciate'
p2971
(dp2972
g3
g4
sg5
S'v. make feel uncomfortable'
p2973
ssS'ruse'
p2974
(dp2975
g3
g12
sg5
S'trick, crafty stratagem'
p2976
ssS'impute'
p2977
(dp2978
g9
(lp2979
S'28/07/2015'
p2980
aF20.51120615005493
asg3
g12
sg5
S'to attribute the fault to; relate to a particular cause or source'
p2981
ssS'histrionic'
p2982
(dp2983
g9
(lp2984
S'28/07/2015'
p2985
aI15
asg3
g12
sg5
S'relating to exaggerated emotional behavior calculated for effect; theatrical acts or performances'
p2986
ssS'eschew'
p2987
(dp2988
g3
g4
sg5
S'to avoid'
p2989
ssS'atavism'
p2990
(dp2991
g234
(lp2992
S'28/07/2015'
p2993
aI15
asg3
g12
sg5
S'in biology, the reappearance of a characteristic in an organism after several generations of absence; individual or a part that exhibits atavism; return of a trait after a period of absence'
p2994
ssS'ennui'
p2995
(dp2996
g3
g4
sg5
S'n. boredom'
p2997
ssS'charlatan'
p2998
(dp2999
g3
g4
sg5
S'(n.) one who feigns knowledge or ability; a pretender, impostor, or quack'
p3000
ssS'patois'
p3001
(dp3002
g9
(lp3003
S'28/07/2015'
p3004
aF8.155746936798096
asg3
g12
sg5
S'jargon; a regional dialect'
p3005
ssS'celestial'
p3006
(dp3007
g9
(lp3008
S'28/07/2015'
p3009
aF25.03367280960083
asg3
g12
sg5
S'concerned with sky or heavens; sublime'
p3010
ssS'gratuitous'
p3011
(dp3012
g3
g4
sg5
S'unnecessary'
p3013
ssS'conundrum'
p3014
(dp3015
g9
(lp3016
S'28/07/2015'
p3017
aF6.457870006561279
asg3
g12
sg5
S'riddle; puzzle with no solution'
p3018
ssS'awry'
p3019
(dp3020
g3
g4
sg5
S'not in the correct position'
p3021
ssS'exigent'
p3022
(dp3023
g3
g4
sg5
S'urgent, pressing; requiring immediate action or attention'
p3024
ssS'saturnine'
p3025
(dp3026
g9
(lp3027
S'28/07/2015'
p3028
aF11.71077013015747
asg3
g12
sg5
S'gloomy'
p3029
ssS'Invective'
p3030
(dp3031
g3
g4
sg5
S'Abuse; stream of harsh words'
p3032
ssS'plangent'
p3033
(dp3034
g3
g4
sg5
S'(of a sound) loud, reverberating, and often melancholy.'
p3035
ssS'Proffer'
p3036
(dp3037
g3
g4
sg5
S'Offer; put before a person for acceptance'
p3038
ssS'deterrent'
p3039
(dp3040
g234
(lp3041
S'28/07/2015'
p3042
aI15
asg3
g12
sg5
S'something that discourages or hinders'
p3043
ssS'flock'
p3044
(dp3045
g3
g4
sg5
S'a groups of birds or sheep; A group of people folks'
p3046
ssS'onerous'
p3047
(dp3048
g9
(lp3049
S'28/07/2015'
p3050
aI15
asg3
g12
sg5
S'burdensome'
p3051
ssS'pensive'
p3052
(dp3053
g3
g4
sg5
S'engaged in, involving, or reflecting deep or serious thought'
p3054
ssS'sanguine'
p3055
(dp3056
g3
g4
sg5
S'hoping for the best'
p3057
ssS'stalwart'
p3058
(dp3059
g3
g4
sg5
S'adj. loyal, reliable'
p3060
ssS'Relish'
p3061
(dp3062
g3
g4
sg5
S'Savor; enjoy'
p3063
ssS'proliferate'
p3064
(dp3065
g3
g12
sg5
S'to increase rapidly'
p3066
ssS'Bellwether'
p3067
(dp3068
g3
g4
sg5
S'male sheep that leads the flock to the slaughterhouse, ringleader'
p3069
ssS'subsume'
p3070
(dp3071
g9
(lp3072
S'28/07/2015'
p3073
aI15
asg3
g12
sg5
S'to include, incorporate'
p3074
ssS'Sere'
p3075
(dp3076
g3
g4
sg5
S'withered, dry'
p3077
ssS'delineate'
p3078
(dp3079
g234
(lp3080
S'28/07/2015'
p3081
aI15
asg3
g12
sg5
S'to represent or depict'
p3082
ssS'Immanent'
p3083
(dp3084
g3
g4
sg5
S'1.  Existing or remaining within; inherent: believed in a God immanent in humans.  2.  Restricted entirely to the mind; subjective.'
p3085
ssS'Debilitate'
p3086
(dp3087
g3
g4
sg5
S'Make weak'
p3088
ssS'apathy'
p3089
(dp3090
g9
(lp3091
S'28/07/2015'
p3092
aI15
asg3
g12
sg5
S'indifference'
p3093
ssS'variegated'
p3094
(dp3095
g9
(lp3096
S'28/07/2015'
p3097
aF1.9896769523620605
asg3
g12
sg5
S'varied, marked with different colors'
p3098
ssS'mimic'
p3099
(dp3100
g3
g4
sg5
S'v. imitate(not mimetic)'
p3101
ssS'forswear'
p3102
(dp3103
g9
(lp3104
S'28/07/2015'
p3105
aF7.403310060501099
asg3
g12
sg5
S'renounce; repudiate'
p3106
ssS'resolution'
p3107
(dp3108
g3
g12
sg5
S'determination, resolve'
p3109
ssS'caste'
p3110
(dp3111
g9
(lp3112
S'28/07/2015'
p3113
aI15
asg3
g12
sg5
S'any of the hereditary social classes in Hindu society; social stratification'
p3114
ssS'founder'
p3115
(dp3116
g9
(lp3117
S'28/07/2015'
p3118
aF1.572662115097046
asg3
g12
sg5
S'to sink; fail; colapse'
p3119
ssS'expatiate'
p3120
(dp3121
g9
(lp3122
S'28/07/2015'
p3123
aI15
asg3
g12
sg5
S'to speak or write at length'
p3124
ssS'importune'
p3125
(dp3126
g3
g4
sg5
S'v. beg'
p3127
ssS'pique'
p3128
(dp3129
g9
(lp3130
S'28/07/2015'
p3131
aI15
asg3
g12
sg5
S"a feeling of irritation or resentment resulting from a slight, esp. to one's pride"
p3132
ssS'debris'
p3133
(dp3134
g3
g4
sg5
S'(n.) The scattered remains of something broken or destroyed; rubble or wreckage'
p3135
ssS'renege'
p3136
(dp3137
g3
g12
sg5
S"to go back on one's word"
p3138
ssS'Credulous'
p3139
(dp3140
g3
g4
sg5
S'Gullible'
p3141
ssS'homage'
p3142
(dp3143
g3
g4
sg5
S'respect; honor tribute'
p3144
ssS'assuage'
p3145
(dp3146
g9
(lp3147
S'28/07/2015'
p3148
aI15
asg3
g12
sg5
S'to make less severe'
p3149
ssS'extraneous'
p3150
(dp3151
g234
(lp3152
S'28/07/2015'
p3153
aI15
asg3
g12
sg5
S'not essencial'
p3154
ssS'diffuse'
p3155
(dp3156
g9
(lp3157
S'28/07/2015'
p3158
aF2.8859989643096924
asg3
g12
sg5
S'to spread out'
p3159
ssS'foster'
p3160
(dp3161
g3
g4
sg5
S'v. allow to grow'
p3162
ssS'fervor'
p3163
(dp3164
g9
(lp3165
S'28/07/2015'
p3166
aF6.762326955795288
asg3
g12
sg5
S'warmth and intensity of emotion'
p3167
ssS'immutable'
p3168
(dp3169
g9
(lp3170
S'28/07/2015'
p3171
aF3.263871908187866
asg3
g12
sg5
S'inchangeable'
p3172
ssS'iconoclastic'
p3173
(dp3174
g9
(lp3175
S'28/07/2015'
p3176
aI15
asg3
g12
sg5
S'attacking cherished traditions'
p3177
ssS'Revolt'
p3178
(dp3179
g3
g4
sg5
S'The action of protesting against authority.\xe5\x8f\x8d\xe6\x8a\x97\xe3\x80\x82\xe8\xb5\xb7\xe7\xbe\xa9\xe3\x80\x82\xe5\x8f\x9b\xe4\xba\x82\xe3\x80\x82'
p3180
ssS'malinger'
p3181
(dp3182
g3
g12
sg5
S'to feign illness to escape duty'
p3183
ssS'dapper'
p3184
(dp3185
g3
g4
sg5
S'strikingly neat and trim in style and appearance, natty,sharp,snappy, stilig, prydlig'
p3186
ssS'gainsay'
p3187
(dp3188
g9
(lp3189
S'28/07/2015'
p3190
aF3.3350749015808105
asg3
g12
sg5
S'to deny; dispute; oppose'
p3191
ssS'elated'
p3192
(dp3193
g3
g4
sg5
S'very happy'
p3194
ssS'eulogy'
p3195
(dp3196
g9
(lp3197
S'28/07/2015'
p3198
aF29.84348487854004
asg3
g12
sg5
S'a tribute to someone who has just died'
p3199
ssS'effluvium'
p3200
(dp3201
g3
g4
sg5
S'n. unpleasant odor, stench'
p3202
ssS'condone'
p3203
(dp3204
g234
(lp3205
S'28/07/2015'
p3206
aI15
asg3
g12
sg5
S'to overlook voluntarily; forgive'
p3207
ssS'guileless'
p3208
(dp3209
g9
(lp3210
S'28/07/2015'
p3211
aI15
asg3
g12
sg5
S'free of cunning or deceit; artless'
p3212
ssS'laud'
p3213
(dp3214
g3
g12
sg5
S'praise'
p3215
ssS'harry'
p3216
(dp3217
g3
g4
sg5
S'(v.) To disturb or distress by repeated attacks; harass'
p3218
ssS'vanquish'
p3219
(dp3220
g3
g4
sg5
S'(v.) To defeat in a battle; To overcome an enemy or opponent'
p3221
ssS'abridge'
p3222
(dp3223
g3
g4
sg5
S'v. make shorter'
p3224
ssS'preposterous'
p3225
(dp3226
g3
g4
sg5
S'adj. ridiculous, silly'
p3227
ssS'synergy'
p3228
(dp3229
g3
g4
sg5
S'1+1 bigger than 2'
p3230
ssS'burnish'
p3231
(dp3232
g234
(lp3233
S'28/07/2015'
p3234
aI15
asg3
g12
sg5
S'to polish'
p3235
ssS'vivacious'
p3236
(dp3237
g3
g4
sg5
S'lively'
p3238
ssS'discordant'
p3239
(dp3240
g9
(lp3241
S'28/07/2015'
p3242
aF9.70627212524414
asg3
g12
sg5
S'not in tune'
p3243
ssS'canvass'
p3244
(dp3245
g3
g4
sg5
S'(v.) To solicit votes, subscriptions, opinions, or the like from; To examine carefully or discuss thoroughly'
p3246
ssS'exodus'
p3247
(dp3248
g3
g4
sg5
S'(n.) a large scale departure or flight'
p3249
ssS'affable'
p3250
(dp3251
g3
g4
sg5
S'easy to approach, friendly'
p3252
ssS'skeptic'
p3253
(dp3254
g3
g12
sg5
S'one who doubts'
p3255
ssS'forestall'
p3256
(dp3257
g9
(lp3258
S'28/07/2015'
p3259
aI15
asg3
g12
sg5
S'to prevent; delay'
p3260
ssS'eminent'
p3261
(dp3262
g3
g4
sg5
S'distinguished'
p3263
ssS'succinct'
p3264
(dp3265
g3
g4
sg5
S'adj. short and precise;concise;laconic; pithy'
p3266
ssS'tribute'
p3267
(dp3268
g3
g4
sg5
S'homage'
p3269
ssS'turmoil'
p3270
(dp3271
g3
g4
sg5
S'n. a turbulent scenario'
p3272
ssS'sentient'
p3273
(dp3274
g9
(lp3275
S'28/07/2015'
p3276
aF5.069499969482422
asg3
g12
sg5
S'aware, concious, able to perceive'
p3277
ssS'mendacious'
p3278
(dp3279
g9
(lp3280
S'28/07/2015'
p3281
aI15
asg3
g12
sg5
S'dishonest'
p3282
ssS'Disengage'
p3283
(dp3284
g3
g4
sg5
S'Separate'
p3285
ssS'Squelch'
p3286
(dp3287
g3
g4
sg5
S'squash'
p3288
ssS'epitome'
p3289
(dp3290
g3
g4
sg5
S'a summary, condensed account; an instance that represents a larger reality'
p3291
ssS'paucity'
p3292
(dp3293
g9
(lp3294
S'28/07/2015'
p3295
aI15
asg3
g12
sg5
S'scarcity'
p3296
ssS'Seclude'
p3297
(dp3298
g3
g4
sg5
S'Withdraw into solitude'
p3299
ssS'piquant'
p3300
(dp3301
g9
(lp3302
S'28/07/2015'
p3303
aF11.246522188186646
asg3
g12
sg5
S'pleasantly pungent; attractive'
p3304
ssS'scurry'
p3305
(dp3306
g3
g4
sg5
S'(v.) To move about or proceed hurriedly, scamper, to run quickly, dash or scramble'
p3307
ssS'riposte'
p3308
(dp3309
g3
g12
sg5
S'a quick clever reply to an insult or criticism'
p3310
ssS'cessation'
p3311
(dp3312
g3
g4
sg5
S'n. end, halt'
p3313
ssS'raze'
p3314
(dp3315
g3
g4
sg5
S'v. to tear down;obliterate'
p3316
ssS'pathological'
p3317
(dp3318
g3
g12
sg5
S'departing from normal condition'
p3319
ssS'vaporizer'
p3320
(dp3321
g3
g4
sg5
S'n. device for creating vapor'
p3322
ssS'whimsical'
p3323
(dp3324
g3
g12
sg5
S'fanciful, unpredictable'
p3325
ssS'abeyance'
p3326
(dp3327
g9
(lp3328
S'28/07/2015'
p3329
aI15
asg3
g12
sg5
S'temporary suppression or suspension'
p3330
ssS'fatuous'
p3331
(dp3332
g9
(lp3333
S'28/07/2015'
p3334
aF5.239099979400635
asg3
g12
sg5
S'foolishly self-satisfied'
p3335
ssS'snub'
p3336
(dp3337
g3
g4
sg5
S'treat coldly, scornfully, or with contempt; cold treatment'
p3338
ssS'sanction'
p3339
(dp3340
g3
g12
sg5
S'to approve, ratify, permit'
p3341
ssS'aberrant'
p3342
(dp3343
g9
(lp3344
S'28/07/2015'
p3345
aI15
asg3
g12
sg5
S'deviating from what is normal'
p3346
ssS'libertine'
p3347
(dp3348
g3
g12
sg5
S'one without moral restraint'
p3349
ssS'palliate'
p3350
(dp3351
g3
g4
sg5
S'v. soothe, reduce the impact of'
p3352
ssS'composure'
p3353
(dp3354
g3
g4
sg5
S'extreme calm and confidence'
p3355
ssS'codify'
p3356
(dp3357
g9
(lp3358
S'28/07/2015'
p3359
aF2.6239190101623535
asg3
g12
sg5
S'to systematize'
p3360
ssS'anathema'
p3361
(dp3362
g3
g4
sg5
S'something despised or under a curse'
p3363
ssS'rustic'
p3364
(dp3365
g3
g4
sg5
S'(n.) An unsophisticated country person; (adj.) Characteristic of dwelling in the country'
p3366
ssS'ballad'
p3367
(dp3368
g3
g4
sg5
S'n. song with a number of verses'
p3369
ssS'exigency'
p3370
(dp3371
g9
(lp3372
S'28/07/2015'
p3373
aI15
asg3
g12
sg5
S'crisis; urgent requirements'
p3374
ssS'brisk'
p3375
(dp3376
g3
g4
sg5
S'active, fast, and energetic.(kinetic,frisky'
p3377
ssS'flag'
p3378
(dp3379
g9
(lp3380
S'28/07/2015'
p3381
aF3.076936960220337
asg3
g12
sg5
S'to droop; grow weak'
p3382
ssS'grisly'
p3383
(dp3384
g3
g4
sg5
S'gory'
p3385
ssS'discrepancy'
p3386
(dp3387
g9
(lp3388
S'28/07/2015'
p3389
aF44.63469195365906
asg3
g12
sg5
S'difference between'
p3390
ssS'Raffish/rakish'
p3391
(dp3392
g3
g4
sg5
S'Cheaply or showily vulgar in appearance or nature; tawdry. (ostentatious)'
p3393
ssS'mundane'
p3394
(dp3395
g9
(lp3396
S'28/07/2015'
p3397
aF4.346063852310181
asg3
g12
sg5
S'worldy as opposed to spiritual; concerned with the ordinary'
p3398
ssS'cunning'
p3399
(dp3400
g3
g4
sg5
S'to be wily, having street smarts'
p3401
ssS'gauche'
p3402
(dp3403
g9
(lp3404
S'28/07/2015'
p3405
aF2.7785019874572754
asg3
g12
sg5
S'coarse and uncouth; clumsy'
p3406
ssS'centrifugal'
p3407
(dp3408
g9
(lp3409
S'28/07/2015'
p3410
aI15
asg3
g12
sg5
S'moving away from a center'
p3411
ssS'forbearance'
p3412
(dp3413
g9
(lp3414
S'28/07/2015'
p3415
aF10.631757974624634
asg3
g12
sg5
S'patience'
p3416
ssS'caveat'
p3417
(dp3418
g3
g4
sg5
S'a warning or caution'
p3419
ssS'aspirant'
p3420
(dp3421
g3
g4
sg5
S'adj. having specific ambitions'
p3422
ssS'excursion'
p3423
(dp3424
g3
g4
sg5
S'n. trip'
p3425
ssS'atrocious'
p3426
(dp3427
g3
g4
sg5
S'adj. extremely bad'
p3428
ssS'visage'
p3429
(dp3430
g9
(lp3431
S'28/07/2015'
p3432
aF4.173082113265991
asg3
g12
sg5
S'appearance, aspect'
p3433
ssS'buttress'
p3434
(dp3435
g9
(lp3436
S'28/07/2015'
p3437
aI15
asg3
g12
sg5
S'to reinforce; support'
p3438
ssS'shard'
p3439
(dp3440
g9
(lp3441
S'28/07/2015'
p3442
aF2.3128600120544434
asg3
g12
sg5
S'a piece of broken glass or pottery'
p3443
ssS'coerce'
p3444
(dp3445
g3
g4
sg5
S'to force someone by threatening or physically empowering him'
p3446
ssS'metamorphosis'
p3447
(dp3448
g3
g12
sg5
S'change; transformation'
p3449
ssS'terrestrial'
p3450
(dp3451
g3
g12
sg5
S'earthly, commonplace'
p3452
ssS'goad'
p3453
(dp3454
g9
(lp3455
S'28/07/2015'
p3456
aF1.7209060192108154
asg3
g12
sg5
S'to prod; urge on'
p3457
ssS'rapport'
p3458
(dp3459
g3
g4
sg5
S'n. relationship with good communication'
p3460
ssS'redoubtable'
p3461
(dp3462
g3
g12
sg5
S'formidable, arousing fear'
p3463
ssS'emollient'
p3464
(dp3465
g9
(lp3466
S'28/07/2015'
p3467
aF7.6676061153411865
asg3
g12
sg5
S'soothing; mollifying'
p3468
ssS'bawdy'
p3469
(dp3470
g9
(lp3471
S'28/07/2015'
p3472
aI15
asg3
g12
sg5
S'obscene'
p3473
ssS'Knack'
p3474
(dp3475
g3
g4
sg5
S'Ability or talent'
p3476
ssS'ensemble'
p3477
(dp3478
g3
g4
sg5
S'a group of performers'
p3479
ssS'abdicate'
p3480
(dp3481
g9
(lp3482
S'28/07/2015'
p3483
aI15
asg3
g12
sg5
S'to give up a position, right, or power'
p3484
ssS'emulate'
p3485
(dp3486
g9
(lp3487
S'28/07/2015'
p3488
aI15
asg3
g12
sg5
S'to imitate; copy'
p3489
ssS'replete'
p3490
(dp3491
g3
g4
sg5
S'full; satiate; sated; stuffed; surfeited'
p3492
ssS'obstreperous'
p3493
(dp3494
g3
g4
sg5
S'unruly; defiant; boisterous'
p3495
ssS'deluge'
p3496
(dp3497
g3
g4
sg5
S'n. downpour; flood of something'
p3498
ssS'meticulous'
p3499
(dp3500
g9
(lp3501
S'28/07/2015'
p3502
aI15
asg3
g12
sg5
S'very careful; picky; fastidious'
p3503
ssS'denude'
p3504
(dp3505
g3
g4
sg5
S'v. make bare'
p3506
ssS'blunder'
p3507
(dp3508
g3
g4
sg5
S'misstag, groda'
p3509
ssS'extrapolation'
p3510
(dp3511
g234
(lp3512
S'28/07/2015'
p3513
aI15
asg3
g12
sg5
S'the act of estimation by projecting known information'
p3514
ssS'curmudgeon'
p3515
(dp3516
g3
g4
sg5
S'a person who is mean or miserly; a person who is grumpy, irritable or cantankerous'
p3517
ssS'retaliate'
p3518
(dp3519
g3
g4
sg5
S'v. repay evil with a similar evil, to pay back in kind'
p3520
ssS'anachronism'
p3521
(dp3522
g9
(lp3523
S'28/07/2015'
p3524
aI15
asg3
g12
sg5
S'something out of the proper time'
p3525
ssS'magnanimity'
p3526
(dp3527
g9
(lp3528
S'28/07/2015'
p3529
aI15
asg3
g12
sg5
S'generosity; nobility'
p3530
ssS'taxonomy'
p3531
(dp3532
g3
g12
sg5
S'science of classification'
p3533
ssS'oblique'
p3534
(dp3535
g3
g4
sg5
S'neither parallel nor at a right angle to a specified or implied line; slanting.'
p3536
ssS'Anecdote'
p3537
(dp3538
g3
g4
sg5
S'Short account of an amusing or interesting event'
p3539
ssS'preempt'
p3540
(dp3541
g9
(lp3542
S'28/07/2015'
p3543
aF7.339781999588013
asg3
g12
sg5
S'to supersede; appropiate for oneself'
p3544
ssS'dawdle'
p3545
(dp3546
g3
g4
sg5
S'to waste time, to loiter'
p3547
ssS'prevaricate'
p3548
(dp3549
g234
(lp3550
S'28/07/2015'
p3551
aI15
asg3
g12
sg5
S'to quibble; evade the truth'
p3552
ssS'fissure'
p3553
(dp3554
g9
(lp3555
S'28/07/2015'
p3556
aF8.570250034332275
asg3
g12
sg5
S'crevice'
p3557
ssS'susceptible'
p3558
(dp3559
g3
g4
sg5
S'adj. likely to be harmed'
p3560
ssS'stricture'
p3561
(dp3562
g3
g12
sg5
S'something that restrains, negative criticism'
p3563
ssS'purport'
p3564
(dp3565
g3
g12
sg5
S'to profess, suppose, claim'
p3566
ssS'dross'
p3567
(dp3568
g9
(lp3569
S'28/07/2015'
p3570
aF4.33400821685791
asg3
g12
sg5
S'waste; worthless matter'
p3571
ssS'censorious'
p3572
(dp3573
g3
g4
sg5
S'severely critical'
p3574
ssS'clamor'
p3575
(dp3576
g9
(lp3577
S'28/07/2015'
p3578
aF9.352443933486938
asg3
g12
sg5
S'noisy outcry'
p3579
ssS'tempestuous'
p3580
(dp3581
g3
g4
sg5
S'adj. stormy'
p3582
ssS'motley'
p3583
(dp3584
g234
(lp3585
S'28/07/2015'
p3586
aI15
asg3
g12
sg5
S'many colored; made up of many parts'
p3587
ssS'libido'
p3588
(dp3589
g3
g12
sg5
S'sexual desire'
p3590
ssS'din'
p3591
(dp3592
g3
g4
sg5
S'n. ongoing loud sound; noise'
p3593
ssS'neophyte'
p3594
(dp3595
g9
(lp3596
S'28/07/2015'
p3597
aI15
asg3
g12
sg5
S'novice; beginner'
p3598
ssS'misogynist'
p3599
(dp3600
g9
(lp3601
S'28/07/2015'
p3602
aF2.9336698055267334
asg3
g12
sg5
S'one who hates women'
p3603
ssS'inception'
p3604
(dp3605
g3
g4
sg5
S'beginning, birth (i...)'
p3606
ssS'reticent'
p3607
(dp3608
g3
g12
sg5
S'nor speaking freely, reserved, reluctant'
p3609
ssS'Polemic'
p3610
(dp3611
g3
g4
sg5
S'Controversial argument against a controversial issue; iconoclastic'
p3612
ssS'debacle'
p3613
(dp3614
g3
g4
sg5
S'sudden downfall; complete disaster'
p3615
ssS'grandeur'
p3616
(dp3617
g3
g4
sg5
S'impressiveness; stateliness; majesty'
p3618
ssS'inherent'
p3619
(dp3620
g3
g12
sg5
S'firmly established by nature or habit'
p3621
ssS'dichotomy'
p3622
(dp3623
g234
(lp3624
S'28/07/2015'
p3625
aI15
asg3
g12
sg5
S'division into two usually contradictory parts'
p3626
ssS'sartorial'
p3627
(dp3628
g9
(lp3629
S'28/07/2015'
p3630
aI15
asg3
g12
sg5
S'pertaining to tailors'
p3631
ssS'contiguous'
p3632
(dp3633
g9
(lp3634
S'28/07/2015'
p3635
aF3.153409004211426
asg3
g12
sg5
S'touching; neighboring; connecting without a break'
p3636
ssS'beneficent'
p3637
(dp3638
g9
(lp3639
S'28/07/2015'
p3640
aI15
asg3
g12
sg5
S'kindly; doing good'
p3641
ssS'exorbitant'
p3642
(dp3643
g3
g4
sg5
S'exceeding all bounds'
p3644
ssS'deride'
p3645
(dp3646
g9
(lp3647
S'28/07/2015'
p3648
aI15
asg3
g12
sg5
S'to mock'
p3649
ssS'talisman'
p3650
(dp3651
g3
g12
sg5
S'charm to bring good luck and avert misfortune'
p3652
ssS'anarchy'
p3653
(dp3654
g9
(lp3655
S'28/07/2015'
p3656
aI15
asg3
g12
sg5
S'absence of government; state of disorder'
p3657
ssS'reverent'
p3658
(dp3659
g3
g12
sg5
S'expressing deep respect, worshipful'
p3660
ssS'vertigo'
p3661
(dp3662
g9
(lp3663
S'28/07/2015'
p3664
aI15
asg3
g12
sg5
S'dizziness'
p3665
ssS'effete'
p3666
(dp3667
g9
(lp3668
S'28/07/2015'
p3669
aF11.07542896270752
asg3
g12
sg5
S'depleted of vitality; overrefined; decadent'
p3670
ssS'presumptuous'
p3671
(dp3672
g3
g12
sg5
S'rude; improperly bold'
p3673
ssS'vitiate'
p3674
(dp3675
g3
g12
sg5
S'to impair the quality of, corrupt morally'
p3676
ssS'congenial'
p3677
(dp3678
g9
(lp3679
S'28/07/2015'
p3680
aI15
asg3
g12
sg5
S'similar in tastes and habits; friendly; suited to'
p3681
ssS'proscribe'
p3682
(dp3683
g3
g12
sg5
S'to condemn, forbid, outlaw'
p3684
ssS'Clasp'
p3685
(dp3686
g3
g4
sg5
S'Fastening device; firm grip'
p3687
ssS'Serpentine'
p3688
(dp3689
g3
g4
sg5
S'Winding; twisting'
p3690
ssS'meteoric'
p3691
(dp3692
g3
g4
sg5
S'(adj.) Very fast and bright; Fleeting and spectacular'
p3693
ssS'solvent'
p3694
(dp3695
g9
(lp3696
S'28/07/2015'
p3697
aI15
asg3
g12
sg5
S'able to meet financial obligations'
p3698
ssS'inert'
p3699
(dp3700
g3
g12
sg5
S'unable to move; sluggish'
p3701
ssS'Contagion'
p3702
(dp3703
g3
g4
sg5
S'Infection'
p3704
ssS'platitude'
p3705
(dp3706
g9
(lp3707
S'28/07/2015'
p3708
aF19.394174098968506
asg3
g12
sg5
S'stale; overused expression'
p3709
ssS'ponderous'
p3710
(dp3711
g3
g4
sg5
S'adj. unusually weighty or forcible, massive, unwieldy'
p3712
ssS'foible'
p3713
(dp3714
g3
g4
sg5
S'(n.) physically or mentally weak(feeble)'
p3715
ssS'Caprice'
p3716
(dp3717
g3
g4
sg5
S'Sudden, unexpected fancy; whim'
p3718
ssS'dire'
p3719
(dp3720
g3
g4
sg5
S'very bad'
p3721
ssS'clique'
p3722
(dp3723
g9
(lp3724
S'28/07/2015'
p3725
aF5.4481120109558105
asg3
g12
sg5
S'a small, exclusive group'
p3726
ssS'desiccate'
p3727
(dp3728
g9
(lp3729
S'28/07/2015'
p3730
aF29.312034130096436
asg3
g12
sg5
S'to dry completely'
p3731
ssS'reproach'
p3732
(dp3733
g3
g12
sg5
S'to find fault with, blame'
p3734
ssS'fiat'
p3735
(dp3736
g9
(lp3737
S'28/07/2015'
p3738
aF7.994419097900391
asg3
g12
sg5
S'an arbitrary order, a formal authorization or proposition'
p3739
ssS'indulgent'
p3740
(dp3741
g3
g4
sg5
S'adj. yielding to the wishes or demands of others'
p3742
ssS'existential'
p3743
(dp3744
g9
(lp3745
S'28/07/2015'
p3746
aI15
asg3
g12
sg5
S'having to do with existence'
p3747
ssS'euphemism'
p3748
(dp3749
g9
(lp3750
S'28/07/2015'
p3751
aI15
asg3
g12
sg5
S'use of agreeable or inoffensive language in place of offensive language'
p3752
ssS'perturb'
p3753
(dp3754
g9
(lp3755
S'28/07/2015'
p3756
aF5.045853137969971
asg3
g12
sg5
S'to disturb greatly; make uneasy or anxious'
p3757
ssS'unfeigned'
p3758
(dp3759
g9
(lp3760
S'28/07/2015'
p3761
aF13.510313987731934
asg3
g12
sg5
S'not false, genuine'
p3762
ssS'mimetic'
p3763
(dp3764
g3
g4
sg5
S'adj. pertaining to imitation or mimicry(not mimic): A person who mimic'
p3765
ssS'ethereal'
p3766
(dp3767
g3
g4
sg5
S'(adj.) light, airy, delicate; highly refined; suggesting what is heavenly'
p3768
ssS'bland'
p3769
(dp3770
g3
g4
sg5
S'not stimulating; dull'
p3771
ssS'scathing'
p3772
(dp3773
g3
g4
sg5
S'adj. very critical ; witheringly scornful; severely critical'
p3774
ssS'ostracize'
p3775
(dp3776
g3
g4
sg5
S'v. exclude from society'
p3777
ssS'probity'
p3778
(dp3779
g3
g12
sg5
S'honesty; high-mindedness'
p3780
ssS'litany'
p3781
(dp3782
g9
(lp3783
S'28/07/2015'
p3784
aI15
asg3
g12
sg5
S'lengthy recitation; repetitive chant'
p3785
ssS'hallowed'
p3786
(dp3787
g9
(lp3788
S'28/07/2015'
p3789
aF26.023401975631714
asg3
g12
sg5
S'holy; sacred'
p3790
ssS'zealot'
p3791
(dp3792
g3
g12
sg5
S'one who is fanatically devoted to a cause'
p3793
ssS'aver'
p3794
(dp3795
g9
(lp3796
S'28/07/2015'
p3797
aI15
asg3
g12
sg5
S'to affirm; declare to be true'
p3798
ssS'travail'
p3799
(dp3800
g3
g12
sg5
S'work, especially arduous work'
p3801
ssS'dissemble'
p3802
(dp3803
g9
(lp3804
S'28/07/2015'
p3805
aI15
asg3
g12
sg5
S"to pretend; disguise one's motives"
p3806
ssS'megalomania'
p3807
(dp3808
g3
g12
sg5
S'delusions of power or importance'
p3809
ssS'stifle'
p3810
(dp3811
g3
g4
sg5
S'make (someone) unable to breathe properly; suffocate'
p3812
ssS'oscillate'
p3813
(dp3814
g9
(lp3815
S'28/07/2015'
p3816
aI15
asg3
g12
sg5
S'to move back and forth'
p3817
ssS'testy'
p3818
(dp3819
g3
g4
sg5
S'easily irritated; characterized by impatience and exasperation'
p3820
ssS'obfuscate'
p3821
(dp3822
g3
g4
sg5
S'v. confuse'
p3823
ssS'dank'
p3824
(dp3825
g3
g4
sg5
S'damp'
p3826
ssS'uncanny'
p3827
(dp3828
g3
g12
sg5
S'myterious, strange'
p3829
ssS'sedate'
p3830
(dp3831
g3
g4
sg5
S'adj. calm;serene'
p3832
ssS'Recidivism'
p3833
(dp3834
g3
g4
sg5
S'Habitual return to crime'
p3835
ssS'Languor'
p3836
(dp3837
g3
g4
sg5
S'Lassitude; depression'
p3838
ssS'garble'
p3839
(dp3840
g3
g4
sg5
S'(v.) to distort in such a way as to make something unintelligible'
p3841
ssS'swerve'
p3842
(dp3843
g3
g4
sg5
S'(n.) A sudden turn; (v.) To turn sharply, to change direction suddenly'
p3844
ssS'desuetude'
p3845
(dp3846
g234
(lp3847
S'28/07/2015'
p3848
aI15
asg3
g12
sg5
S'state of disuse'
p3849
ssS'shrewd'
p3850
(dp3851
g3
g4
sg5
S'clever, astute or sharp in practical manners'
p3852
ssS'cognizant'
p3853
(dp3854
g9
(lp3855
S'28/07/2015'
p3856
aI15
asg3
g12
sg5
S'informed; conscious; aware'
p3857
ssS'gall'
p3858
(dp3859
g3
g4
sg5
S'audacity'
p3860
ssS'mawkish'
p3861
(dp3862
g3
g4
sg5
S'nauseatingly sentimental'
p3863
ssS'sensual'
p3864
(dp3865
g9
(lp3866
S'28/07/2015'
p3867
aF3.3617970943450928
asg3
g12
sg5
S'relating to the senses, gratifying the physical (sexual) senses'
p3868
ssS'boorish'
p3869
(dp3870
g9
(lp3871
S'28/07/2015'
p3872
aI15
asg3
g12
sg5
S'rude; insensitive'
p3873
ssS'evasion'
p3874
(dp3875
g3
g4
sg5
S'n. the act of avoiding someone. slippery, fugitive'
p3876
ssS'refute'
p3877
(dp3878
g9
(lp3879
S'28/07/2015'
p3880
aI15
asg3
g12
sg5
S'to contradict, disprove'
p3881
ssS'tarnish'
p3882
(dp3883
g3
g4
sg5
S'stain'
p3884
ssS'jeopardize'
p3885
(dp3886
g3
g4
sg5
S'v. put in danger'
p3887
ssS'commotion'
p3888
(dp3889
g3
g4
sg5
S'n. state of confused disturbance'
p3890
ssS'Sequester'
p3891
(dp3892
g3
g4
sg5
S'Isolate; retire from public life; seclude'
p3893
ssS'recondite'
p3894
(dp3895
g3
g12
sg5
S'abstruse, profound'
p3896
ssS'Eleemosynary'
p3897
(dp3898
g3
g4
sg5
S'charitable, philanthropic, beneficent'
p3899
ssS'serene'
p3900
(dp3901
g3
g4
sg5
S'adj. calm;sedate'
p3902
ssS'bravura'
p3903
(dp3904
g3
g4
sg5
S'great technical skill and brilliance shown in a performance or activity.(masterful, adroit, dexterous)'
p3905
ssS'fresco'
p3906
(dp3907
g9
(lp3908
S'28/07/2015'
p3909
aF3.0865797996520996
asg3
g12
sg5
S'a painting done on plaster'
p3910
ssS'tryst'
p3911
(dp3912
g3
g12
sg5
S'agreement between lovest to meet, rendez-vous'
p3913
ssS'confluence'
p3914
(dp3915
g3
g4
sg5
S'the flowing together of several things or ideas'
p3916
ssS'bridle'
p3917
(dp3918
g3
g4
sg5
S'to restrain'
p3919
ssS'gregarious'
p3920
(dp3921
g9
(lp3922
S'28/07/2015'
p3923
aF9.433290958404541
asg3
g12
sg5
S'outgoing; sociable'
p3924
ssS'apposite'
p3925
(dp3926
g234
(lp3927
S'28/07/2015'
p3928
aI15
asg9
(lp3929
S'28/07/2015'
p3930
aI15
asg3
g12
sg5
S'strikingly appropriate and relevant'
p3931
ssS'saturate'
p3932
(dp3933
g3
g12
sg5
S'imbue througout, soak thoroughly'
p3934
ssS'panegyric'
p3935
(dp3936
g9
(lp3937
S'28/07/2015'
p3938
aI15
asg3
g12
sg5
S'elaborate praise; formal hymn of praise'
p3939
ssS'Clout'
p3940
(dp3941
g3
g4
sg5
S'Great influence'
p3942
ssS'succor'
p3943
(dp3944
g9
(lp3945
S'28/07/2015'
p3946
aF7.704370021820068
asg3
g12
sg5
S'relief, help in time of distress or want'
p3947
ssS'barren'
p3948
(dp3949
g3
g4
sg5
S'(adj.) Vast emptiness without life'
p3950
ssS'Tenable'
p3951
(dp3952
g3
g4
sg5
S'Capable of being held or used; capable of being defended against an attack or objection.'
p3953
ssS'parsimonious'
p3954
(dp3955
g3
g4
sg5
S'adj. unwilling to spend money'
p3956
ssS'despise'
p3957
(dp3958
g3
g4
sg5
S'abhor,abominate, detest,execrate,loathe, disregard,flout,regard with loathing or contempt'
p3959
ssS'ennoble'
p3960
(dp3961
g3
g4
sg5
S'v. make into a lord'
p3962
ssS'acerbic'
p3963
(dp3964
g3
g4
sg5
S'having a sour or bitter taste or characteristic; sharp; biting(Pungent)'
p3965
ssS'converge'
p3966
(dp3967
g9
(lp3968
S'28/07/2015'
p3969
aI15
asg3
g12
sg5
S'to approach; come together; tend to meet'
p3970
ssS'vituperative'
p3971
(dp3972
g3
g12
sg5
S'using or containing harsh, abusive censure'
p3973
ssS'friable'
p3974
(dp3975
g3
g4
sg5
S'Easily crumbled: "the soil was friable between her fingers".'
p3976
ssS'aggravate'
p3977
(dp3978
g3
g4
sg5
S'v. make angry'
p3979
ssS'grotesque'
p3980
(dp3981
g3
g4
sg5
S'adj. deliberately ugly'
p3982
ssS'herbivorous'
p3983
(dp3984
g9
(lp3985
S'28/07/2015'
p3986
aF2.4489638805389404
asg3
g12
sg5
S'an animal that feeds mainly on plants'
p3987
ssS'nonchalance'
p3988
(dp3989
g3
g4
sg5
S'n. carefree outlook'
p3990
ssS'grandiloquent'
p3991
(dp3992
g234
(lp3993
S'28/07/2015'
p3994
aI15
asg3
g12
sg5
S'pompous; bombastic'
p3995
ssS'convoluted'
p3996
(dp3997
g9
(lp3998
S'28/07/2015'
p3999
aF1.9231250286102295
asg3
g12
sg5
S'twisted; complicated'
p4000
ssS'intractable'
p4001
(dp4002
g3
g12
sg5
S'not easily managed'
p4003
ssS'cantankerous'
p4004
(dp4005
g9
(lp4006
S'28/07/2015'
p4007
aF2.1509010791778564
asg3
g12
sg5
S'irritable; ill-humored'
p4008
ssS'spurious'
p4009
(dp4010
g3
g4
sg5
S'false; counterfeit'
p4011
ssS'Turpitude'
p4012
(dp4013
g3
g4
sg5
S'Depravity'
p4014
ssS'strut'
p4015
(dp4016
g3
g12
sg5
S'to swagger, display to impress others'
p4017
ssS'pristine'
p4018
(dp4019
g9
(lp4020
S'28/07/2015'
p4021
aF11.75987195968628
asg3
g12
sg5
S'untouched; uncorrupted'
p4022
ssS'avarice'
p4023
(dp4024
g234
(lp4025
S'28/07/2015'
p4026
aI15
asg3
g12
sg5
S'greed'
p4027
ssS'interminable'
p4028
(dp4029
g3
g4
sg5
S'having no end'
p4030
ssS'resolve'
p4031
(dp4032
g3
g12
sg5
S'determination, firmness of purpose'
p4033
ssS'chasten'
p4034
(dp4035
g9
(lp4036
S'28/07/2015'
p4037
aI15
asg3
g12
sg5
S'to correct by punishment or reproof; to restrain or subdue'
p4038
ssS'baroque'
p4039
(dp4040
g3
g4
sg5
S'extravagantly ornate, florid, and convoluted in character or style'
p4041
ssS'doctrinaire'
p4042
(dp4043
g9
(lp4044
S'28/07/2015'
p4045
aF1.8284051418304443
asg3
g12
sg5
S'dogmatic; unyielding'
p4046
ssS'relentless'
p4047
(dp4048
g3
g4
sg5
S'(adj.) unyielding, harsh, without pity'
p4049
ssS'insensible'
p4050
(dp4051
g3
g12
sg5
S'unconscious; unresponsive'
p4052
ssS'cynical'
p4053
(dp4054
g3
g4
sg5
S'adj. exhibiting moral skepticism and contempt'
p4055
ssS'largesse'
p4056
(dp4057
g3
g4
sg5
S'generosity in giving; lavish or bountiful contributions'
p4058
ssS'intemperate'
p4059
(dp4060
g3
g4
sg5
S'immoderate in indulgence of appetite or passion.'
p4061
ssS'venerate'
p4062
(dp4063
g3
g12
sg5
S'to adore, honor, respect'
p4064
ssS'bard'
p4065
(dp4066
g9
(lp4067
S'28/07/2015'
p4068
aI15
asg3
g12
sg5
S'poet'
p4069
ssS'bifurcate'
p4070
(dp4071
g9
(lp4072
S'28/07/2015'
p4073
aI15
asg3
g12
sg5
S'to divide into two parts'
p4074
ssS'plasticity'
p4075
(dp4076
g9
(lp4077
S'28/07/2015'
p4078
aF10.71139407157898
asg3
g12
sg5
S'pliability; condition of being able to be shaped or formed'
p4079
ssS'lachrymose'
p4080
(dp4081
g3
g4
sg5
S'adj. tearful'
p4082
ssS'equivocate'
p4083
(dp4084
g9
(lp4085
S'28/07/2015'
p4086
aF8.632503032684326
asg3
g12
sg5
S'intentionally use vague language'
p4087
ssS'avuncular'
p4088
(dp4089
g9
(lp4090
S'28/07/2015'
p4091
aI15
asg3
g12
sg5
S'like an uncle, benevolent and tolerant'
p4092
ssS'Quell'
p4093
(dp4094
g3
g4
sg5
S'suppress;quash'
p4095
ssS'premeditate'
p4096
(dp4097
g3
g4
sg5
S'plan in advance'
p4098
ssS'jaundiced'
p4099
(dp4100
g3
g12
sg5
S'having a yellowish discoloration of the skin; affected by envy'
p4101
ssS'abrade'
p4102
(dp4103
g3
g4
sg5
S'v. wear down by grinding'
p4104
ssS'beatify'
p4105
(dp4106
g234
(lp4107
S'28/07/2015'
p4108
aI15
asg3
g12
sg5
S'to sanctify; to bless; to ascribe a virtue to'
p4109
ssS'frugality'
p4110
(dp4111
g9
(lp4112
S'28/07/2015'
p4113
aI15
asg3
g12
sg5
S'thrift'
p4114
ssS'candor'
p4115
(dp4116
g3
g4
sg5
S'truthfulness; honesty'
p4117
ssS'complement'
p4118
(dp4119
g9
(lp4120
S'28/07/2015'
p4121
aF8.646483898162842
asg3
g12
sg5
S'something that completes or makes up a whole'
p4122
ssS'baleful'
p4123
(dp4124
g3
g4
sg5
S'exerts evil influence of foreshadows evil. (not harmful in itself)'
p4125
ssS'striated'
p4126
(dp4127
g3
g12
sg5
S'marked with thin, narrow grooves or channels'
p4128
ssS'dally'
p4129
(dp4130
g3
g4
sg5
S'to waste time'
p4131
ssS'geniality'
p4132
(dp4133
g9
(lp4134
S'28/07/2015'
p4135
aI15
asg3
g12
sg5
S'cheerfulness; kindliness; sociability'
p4136
ssS'defunct'
p4137
(dp4138
g234
(lp4139
S'28/07/2015'
p4140
aI15
asg3
g12
sg5
S'no longer existing'
p4141
ssS'ignominy'
p4142
(dp4143
g3
g4
sg5
S'humiliation'
p4144
ssS'secrete'
p4145
(dp4146
g3
g12
sg5
S'produce and release substance into organism'
p4147
ssS'fractious'
p4148
(dp4149
g9
(lp4150
S'28/07/2015'
p4151
aI15
asg3
g12
sg5
S'quarrelsome; unruly; rebellious'
p4152
ssS'dwindle'
p4153
(dp4154
g3
g4
sg5
S'v. diminish gradually'
p4155
ssS'Maladroit'
p4156
(dp4157
g3
g4
sg5
S'Not good at dealing with people or problem'
p4158
ssS'incandescent'
p4159
(dp4160
g3
g4
sg5
S'intensely bright'
p4161
ssS'rave'
p4162
(dp4163
g3
g4
sg5
S'overwhelmingly favorable review'
p4164
ssS'supple'
p4165
(dp4166
g3
g4
sg5
S'adj. bendy;bending and moving easily and gracefully; flexible'
p4167
ssS'bolster'
p4168
(dp4169
g9
(lp4170
S'28/07/2015'
p4171
aI15
asg3
g12
sg5
S'to give a boost to; prop up; support'
p4172
ssS'Evanescent'
p4173
(dp4174
g3
g4
sg5
S'Fleeting; vanishing,ephemeral'
p4175
ssS'appall'
p4176
(dp4177
g3
g4
sg5
S'to shock and disgust'
p4178
ssS'implicit'
p4179
(dp4180
g3
g12
sg5
S'implied; understood but not stated'
p4181
ssS'omniscient'
p4182
(dp4183
g3
g4
sg5
S'adj. knowing everything'
p4184
ssS'veneer'
p4185
(dp4186
g3
g4
sg5
S'n. thin surface layer'
p4187
ssS'exculpate'
p4188
(dp4189
g9
(lp4190
S'28/07/2015'
p4191
aF4.371840953826904
asg3
g12
sg5
S'to clear of blame; vindicate'
p4192
ssS'champion'
p4193
(dp4194
g9
(lp4195
S'28/07/2015'
p4196
aF5.62750506401062
asg3
g12
sg5
S'to defend or support'
p4197
ssS'buck'
p4198
(dp4199
g3
g4
sg5
S'to oppose something in a direct way'
p4200
ssS'fretful'
p4201
(dp4202
g3
g4
sg5
S'adj. feeling distress'
p4203
ssS'rupture'
p4204
(dp4205
g3
g4
sg5
S'v. break, especially a body part'
p4206
ssS'amble'
p4207
(dp4208
g3
g4
sg5
S'(n.) A slow walk or gentle pace; (v.) To walk slowly or leisurely( stroll, friendly, sociable)'
p4209
ssS'puissant'
p4210
(dp4211
g3
g12
sg5
S'powerful'
p4212
ssS'empirical'
p4213
(dp4214
g9
(lp4215
S'28/07/2015'
p4216
aF50.87359309196472
asg3
g12
sg5
S'derived from observation or experiment'
p4217
ssS'Repose'
p4218
(dp4219
g3
g4
sg5
S'Rest; tranquility; relaxation'
p4220
ssS'Inopportune'
p4221
(dp4222
g3
g4
sg5
S'Untimely; poorly chosen'
p4223
ssS'barricade'
p4224
(dp4225
g3
g4
sg5
S'n an obstruction or rampart thrown up across a way or passage(fence, hedge, wall, barrier, obstacle, blcokade, obstruction)'
p4226
ssS'bedizen'
p4227
(dp4228
g9
(lp4229
S'28/07/2015'
p4230
aI15
asg3
g12
sg5
S'to dress in a vulgar, showy manner'
p4231
ssS'mordant'
p4232
(dp4233
g3
g4
sg5
S'adj. sarcastic'
p4234
ssS'credence'
p4235
(dp4236
g9
(lp4237
S'28/07/2015'
p4238
aF10.10685920715332
asg3
g12
sg5
S'acceptance of something as true'
p4239
ssS'Clandestine'
p4240
(dp4241
g3
g4
sg5
S'Secret'
p4242
ssS'hoax'
p4243
(dp4244
g3
g4
sg5
S'(n.) Something intended to deceive or trick; (v.) To deceive or trick'
p4245
ssS'Ancillary'
p4246
(dp4247
g3
g4
sg5
S'subordinate or supplementary, auxiliary, accessory(subsidiary,subordinate)'
p4248
ssS'simian'
p4249
(dp4250
g3
g12
sg5
S'apelike, relating to apes'
p4251
ssS'minutia'
p4252
(dp4253
g234
(lp4254
S'28/07/2015'
p4255
aI15
asg3
g12
sg5
S'petty details'
p4256
ssS'hyperbole'
p4257
(dp4258
g9
(lp4259
S'28/07/2015'
p4260
aI15
asg3
g12
sg5
S'purposeful exaggeration for effect'
p4261
ssS'dingy'
p4262
(dp4263
g3
g4
sg5
S'dirty or faded'
p4264
ssS'seduce'
p4265
(dp4266
g3
g4
sg5
S'attract (someone) to a belief or into a course of action that is inadvisable or foolhardy'
p4267
ssS'subliminal'
p4268
(dp4269
g3
g4
sg5
S"adj. affecting someone's mind without being aware of it; subconscious"
p4270
ssS'benign'
p4271
(dp4272
g3
g4
sg5
S'gentle; kind'
p4273
ssS'discredit'
p4274
(dp4275
g9
(lp4276
S'28/07/2015'
p4277
aF14.752434015274048
asg3
g12
sg5
S'to dishonor; disgrace'
p4278
ssS'bristle'
p4279
(dp4280
g3
g4
sg5
S'v. show angry distaste'
p4281
ssS'premonition'
p4282
(dp4283
g9
(lp4284
S'28/07/2015'
p4285
aF18.77591109275818
asg3
g12
sg5
S'forewarning; presentiment'
p4286
ssS'lenient'
p4287
(dp4288
g3
g4
sg5
S'adj. not strict'
p4289
ssS'Prudent'
p4290
(dp4291
g3
g4
sg5
S"Careful or discreet in managing one's conduct; circumspect."
p4292
ssS'contravene'
p4293
(dp4294
g3
g4
sg5
S'infringe, come into conflict with'
p4295
ssS'covetous'
p4296
(dp4297
g234
(lp4298
S'28/07/2015'
p4299
aI15
asg3
g12
sg5
S'desiring something owned by another'
p4300
ssS'waddled'
p4301
(dp4302
g3
g4
sg5
S'vaggade;walk with short steps and a clumsy swaying motion'
p4303
ssS'banter'
p4304
(dp4305
g9
(lp4306
S'28/07/2015'
p4307
aI15
asg3
g12
sg5
S'playful conversation'
p4308
ssS'epithet'
p4309
(dp4310
g3
g4
sg5
S'n. descriptive phrase,\xe5\xa4\x96\xe5\x8f\xb7'
p4311
ssS'monolithic'
p4312
(dp4313
g9
(lp4314
S'28/07/2015'
p4315
aF11.212861061096191
asg3
g12
sg5
S'solid and uniform; constituing a single, unified whole'
p4316
ssS'impede'
p4317
(dp4318
g9
(lp4319
S'28/07/2015'
p4320
aF2.9235360622406006
asg3
g12
sg5
S'to hinder; block'
p4321
ssS'rabid'
p4322
(dp4323
g3
g4
sg5
S'(adj.) furious, violently intense, unreasonably extreme.'
p4324
ssS'aggregate'
p4325
(dp4326
g9
(lp4327
S'28/07/2015'
p4328
aI15
asg3
g12
sg5
S'amounting to a whole; total'
p4329
ssS'robust'
p4330
(dp4331
g3
g4
sg5
S'sturdy ; (of a person or their body) strongly and solidly built'
p4332
ssS'perspicacious'
p4333
(dp4334
g3
g4
sg5
S'adj. having good judgment;acumen'
p4335
ssS'finesse'
p4336
(dp4337
g9
(lp4338
S'28/07/2015'
p4339
aF8.421474933624268
asg3
g12
sg5
S'to handle with a deceptive or evasive strategy; refined in performance'
p4340
ssS'sidereal'
p4341
(dp4342
g3
g12
sg5
S'relating to the stars'
p4343
ssS'craven'
p4344
(dp4345
g9
(lp4346
S'28/07/2015'
p4347
aF3.4811959266662598
asg3
g12
sg5
S'cowardly'
p4348
ssS'Waft'
p4349
(dp4350
g3
g4
sg5
S'Moved gently by wind or waves'
p4351
ssS'savvy'
p4352
(dp4353
g3
g4
sg5
S'smart and informed'
p4354
ssS'recant'
p4355
(dp4356
g3
g12
sg5
S'retract a statement of opinion'
p4357
ssS'abstain'
p4358
(dp4359
g3
g4
sg5
S'refrain'
p4360
ssS'vindictive'
p4361
(dp4362
g3
g12
sg5
S'vengeful, unforgiving'
p4363
ssS'Dilatory'
p4364
(dp4365
g3
g4
sg5
S'Delaying'
p4366
ssS'incongruity'
p4367
(dp4368
g3
g12
sg5
S'state of not fitting'
p4369
ssS'salve'
p4370
(dp4371
g3
g4
sg5
S"soothe (wounded pride or one's conscience)"
p4372
ssS'belabor'
p4373
(dp4374
g3
g4
sg5
S'v. explain or worry excessively'
p4375
ssS'vigilant'
p4376
(dp4377
g3
g4
sg5
S'alert'
p4378
ssS'abstemious'
p4379
(dp4380
g9
(lp4381
S'28/07/2015'
p4382
aI15
asg3
g12
sg5
S'moderate in appetite'
p4383
ssS'disseminate'
p4384
(dp4385
g9
(lp4386
S'28/07/2015'
p4387
aF3.737823009490967
asg3
g12
sg5
S'to spread; scatter; disperse'
p4388
ssS'interregnum'
p4389
(dp4390
g3
g12
sg5
S'interval between reigns; gap in continuity'
p4391
ssS'Malaise'
p4392
(dp4393
g3
g4
sg5
S'Uneasiness; vague feeling of ill health'
p4394
ssS'prudish'
p4395
(dp4396
g3
g4
sg5
S'overly concerned with being modest or proper'
p4397
ssS'erudite'
p4398
(dp4399
g9
(lp4400
S'28/07/2015'
p4401
aI15
asg3
g12
sg5
S'learned; scholarly'
p4402
ssS'soliloquy'
p4403
(dp4404
g3
g12
sg5
S'literary or dramatic speech by one character, not adressed to others'
p4405
ssS'vendor'
p4406
(dp4407
g3
g4
sg5
S'(n.) a person who sells something'
p4408
ssS'astringent'
p4409
(dp4410
g234
(lp4411
S'28/07/2015'
p4412
aI15
asg3
g12
sg5
S'harsh; severe'
p4413
ssS'conscript'
p4414
(dp4415
g9
(lp4416
S'28/07/2015'
p4417
aI15
asg3
g12
sg5
S'a person compulsorily enrolled for military service'
p4418
ssS'cataclysm'
p4419
(dp4420
g9
(lp4421
S'28/07/2015'
p4422
aI15
asg3
g12
sg5
S'a violent upheaval that causes great destruction and change'
p4423
ssS'apt'
p4424
(dp4425
g3
g4
sg5
S'(adj.) suitable, fitting, likely; quick to learn'
p4426
ssS'opprobrium'
p4427
(dp4428
g234
(lp4429
S'28/07/2015'
p4430
aI15
asg3
g12
sg5
S'public disgrace; contempt'
p4431
ssS'translucent'
p4432
(dp4433
g3
g12
sg5
S'partially transparent'
p4434
ssS'pithy'
p4435
(dp4436
g3
g4
sg5
S'(adj.) short but full of meaning and point'
p4437
ssS'pertinent'
p4438
(dp4439
g3
g4
sg5
S'relevant to the matter being discussed'
p4440
ssS'Tantalize'
p4441
(dp4442
g3
g4
sg5
S'Tease by arousing expectations'
p4443
ssS'abash'
p4444
(dp4445
g3
g4
sg5
S'embarrass; perplex; baffle(abase)'
p4446
ssS'flux'
p4447
(dp4448
g9
(lp4449
S'28/07/2015'
p4450
aF2.7587761878967285
asg3
g12
sg5
S'flowing; a continuous moving'
p4451
ssS'deleterious'
p4452
(dp4453
g3
g4
sg5
S'harmful'
p4454
ssS'Nomad'
p4455
(dp4456
g3
g4
sg5
S'One who travels with no fixed home'
p4457
ssS'sprightly'
p4458
(dp4459
g3
g4
sg5
S'adj. lively'
p4460
ssS'amicable'
p4461
(dp4462
g3
g4
sg5
S'friendly( affable,genial)'
p4463
ssS'lucre'
p4464
(dp4465
g9
(lp4466
S'28/07/2015'
p4467
aI15
asg3
g12
sg5
S'money or profits'
p4468
ssS'dilapidated'
p4469
(dp4470
g3
g4
sg5
S'in disrepair; decaying'
p4471
ssS'expository'
p4472
(dp4473
g9
(lp4474
S'28/07/2015'
p4475
aF19.088326930999756
asg3
g12
sg5
S'explanatory'
p4476
ssS'Disposition'
p4477
(dp4478
g3
g4
sg5
S"One's usual qualities of mind or character."
p4479
ssS'rectitude'
p4480
(dp4481
g3
g4
sg5
S'(n.) uprightness, righteousness; correctness'
p4482
ssS'inimical'
p4483
(dp4484
g3
g4
sg5
S'adj. harmful, dangerous'
p4485
ssS'dolorous'
p4486
(dp4487
g3
g4
sg5
S'adj. full of sorrow'
p4488
ssS'meretricious'
p4489
(dp4490
g3
g12
sg5
S'gaudy; specious; falsely attractive'
p4491
ssS'mettlesome'
p4492
(dp4493
g9
(lp4494
S'28/07/2015'
p4495
aF1.6333119869232178
asg3
g12
sg5
S'full of courage and fortitude'
p4496
ssS'conversant'
p4497
(dp4498
g3
g4
sg5
S'adj. familiar with'
p4499
ssS'respite'
p4500
(dp4501
g3
g4
sg5
S'a short period of rest or relief from something difficult or unpleasant'
p4502
ssS'elixir'
p4503
(dp4504
g9
(lp4505
S'28/07/2015'
p4506
aI15
asg3
g12
sg5
S'a sustance believed to have the power to cure ills'
p4507
ssS'dormant'
p4508
(dp4509
g9
(lp4510
S'28/07/2015'
p4511
aF9.73767900466919
asg3
g12
sg5
S'in a state of rest or inactivity'
p4512
ssS'rarefied'
p4513
(dp4514
g3
g12
sg5
S'belonging to, or appealing to an exclusive group; esoteric'
p4515
ssS'disjointed'
p4516
(dp4517
g9
(lp4518
S'28/07/2015'
p4519
aF6.242076873779297
asg3
g12
sg5
S'lacking order or coherence; dislocated'
p4520
ssS'tortuous'
p4521
(dp4522
g3
g12
sg5
S'having many twists and turns, highly complex'
p4523
ssS'impermeable'
p4524
(dp4525
g9
(lp4526
S'28/07/2015'
p4527
aI15
asg3
g12
sg5
S'impossible to permeate'
p4528
ssS'paroxysm'
p4529
(dp4530
g3
g4
sg5
S'n. sudden attack of a physical condition'
p4531
ssS'therapeutic'
p4532
(dp4533
g3
g4
sg5
S'having or exhibiting healing powers'
p4534
ssS'maelstrom'
p4535
(dp4536
g3
g12
sg5
S'whirlpool; turmoil'
p4537
ssS'plethora'
p4538
(dp4539
g9
(lp4540
S'28/07/2015'
p4541
aF8.61630892753601
asg3
g12
sg5
S'excess; overabundance'
p4542
ssS'appropriate'
p4543
(dp4544
g234
(lp4545
S'28/07/2015'
p4546
aI15
asg3
g12
sg5
S"to take possession of for one's own use; confiscate"
p4547
ssS'convulsion'
p4548
(dp4549
g3
g4
sg5
S'sudden occurrence of an uncontrollable condition'
p4550
ssS'unctuous'
p4551
(dp4552
g3
g4
sg5
S'adj. unpleasantly and excessively suave'
p4553
ssS'gouge'
p4554
(dp4555
g9
(lp4556
S'28/07/2015'
p4557
aF30.538084983825684
asg3
g12
sg5
S'to tear out; scoop out; overcharge'
p4558
ssS'acquiesce'
p4559
(dp4560
g3
g4
sg5
S'comply, agree, give in'
p4561
ssS'coalesce'
p4562
(dp4563
g9
(lp4564
S'28/07/2015'
p4565
aF14.037990808486938
asg3
g12
sg5
S'to cause to become one'
p4566
ssS'pallid'
p4567
(dp4568
g9
(lp4569
S'28/07/2015'
p4570
aI15
asg3
g12
sg5
S'lacking color or liveliness'
p4571
ssS'lithe'
p4572
(dp4573
g3
g4
sg5
S'adj. slim, athletic(not limber,lissome0'
p4574
ssS'calumny'
p4575
(dp4576
g9
(lp4577
S'28/07/2015'
p4578
aF12.411494970321655
asg3
g12
sg5
S'false and malicious accusation; slander'
p4579
ssS'errant'
p4580
(dp4581
g9
(lp4582
S'28/07/2015'
p4583
aF4.437278985977173
asg3
g12
sg5
S'mistaken; straying from the proper course'
p4584
ssS'extemporaneous'
p4585
(dp4586
g234
(lp4587
S'28/07/2015'
p4588
aI15
asg3
g12
sg5
S'unrehearsed'
p4589
ssS'plunge'
p4590
(dp4591
g3
g4
sg5
S'] jump or dive quickly and energetically'
p4592
ssS'impudent'
p4593
(dp4594
g3
g4
sg5
S'rude;impertinent'
p4595
ssS'byzantine'
p4596
(dp4597
g3
g4
sg5
S'highly complicated or intricate; characterized by devious plotting'
p4598
ssS'Perpetual'
p4599
(dp4600
g3
g4
sg5
S'never ending or changing; permanent'
p4601
ssS'archaic'
p4602
(dp4603
g3
g4
sg5
S'outdated; associated with an earlier, perhaps more primitive, time'
p4604
ssS'quiescent'
p4605
(dp4606
g3
g12
sg5
S'inactive, still'
p4607
ssS'carping'
p4608
(dp4609
g9
(lp4610
S'28/07/2015'
p4611
aI15
asg3
g12
sg5
S'to find fault; complain'
p4612
ssS'usurp'
p4613
(dp4614
g3
g4
sg5
S"steal someone's power"
p4615
ssS'harangue'
p4616
(dp4617
g9
(lp4618
S'28/07/2015'
p4619
aI15
asg3
g12
sg5
S'long, pompous speech; tirade'
p4620
ssS'usury'
p4621
(dp4622
g9
(lp4623
S'28/07/2015'
p4624
aI15
asg3
g12
sg5
S'a practice of lending money at exorbitant rates'
p4625
ssS'discomfit'
p4626
(dp4627
g9
(lp4628
S'28/07/2015'
p4629
aF4.614070892333984
asg3
g12
sg5
S'to make uneasy; disconcert'
p4630
ssS'nonplussed'
p4631
(dp4632
g9
(lp4633
S'28/07/2015'
p4634
aI15
asg3
g12
sg5
S'bewildered'
p4635
ssS'limpid'
p4636
(dp4637
g3
g12
sg5
S'clear; transparent'
p4638
ssS'aversion'
p4639
(dp4640
g3
g4
sg5
S'n. dislike'
p4641
ssS'autonomous'
p4642
(dp4643
g9
(lp4644
S'28/07/2015'
p4645
aI15
asg3
g12
sg5
S'self-governing; independent'
p4646
ssS'curt'
p4647
(dp4648
g3
g4
sg5
S'rude and short in tone or behavior'
p4649
ssS'tautology'
p4650
(dp4651
g3
g12
sg5
S'unnecessary repetition'
p4652
ssS'Steadfast'
p4653
(dp4654
g3
g4
sg5
S'Firm and unchanging'
p4655
ssS'precept'
p4656
(dp4657
g9
(lp4658
S'28/07/2015'
p4659
aF3.2802510261535645
asg3
g12
sg5
S'principle; law'
p4660
ssS'prescience'
p4661
(dp4662
g3
g4
sg5
S'foreknowledge of events; knowing of events prior to their occurring'
p4663
ssS'apropos'
p4664
(dp4665
g9
(lp4666
S'28/07/2015'
p4667
aI15
asg3
g12
sg5
S'relevant'
p4668
ssS'evocative'
p4669
(dp4670
g9
(lp4671
S'28/07/2015'
p4672
aF9.88802695274353
asg3
g12
sg5
S'tending to call to mind or produce a reaction'
p4673
ssS'effervescence'
p4674
(dp4675
g9
(lp4676
S'28/07/2015'
p4677
aF2.4930498600006104
asg3
g12
sg5
S'state of high spirits or liveliness; process of bubling as gas escapes'
p4678
ssS'intrepid'
p4679
(dp4680
g3
g4
sg5
S'resolutely fearless, daunting, bold, courageous, and brave'
p4681
ssS'abscission'
p4682
(dp4683
g9
(lp4684
S'28/07/2015'
p4685
aI15
asg3
g12
sg5
S'the act of cutting; the natural separation of a leaf or other part of a plant'
p4686
ssS'gustatory'
p4687
(dp4688
g9
(lp4689
S'28/07/2015'
p4690
aF4.337669134140015
asg3
g12
sg5
S'affecting the sense of taste'
p4691
ssS'lucid'
p4692
(dp4693
g3
g12
sg5
S'bright; clear; intelligible'
p4694
ssS'bravado'
p4695
(dp4696
g3
g4
sg5
S'n. intimidating boldness'
p4697
ssS'effrontery'
p4698
(dp4699
g9
(lp4700
S'28/07/2015'
p4701
aF2.860186815261841
asg3
g12
sg5
S'shameless; boldness; presumptuousness'
p4702
ssS'antecedent'
p4703
(dp4704
g9
(lp4705
S'28/07/2015'
p4706
aI15
asg3
g12
sg5
S'something that comes before'
p4707
ssS'dispassionate'
p4708
(dp4709
g3
g4
sg5
S'adj. emotionless'
p4710
ssS'Genteel'
p4711
(dp4712
g3
g4
sg5
S'Refined; polished'
p4713
ssS'conjugal'
p4714
(dp4715
g9
(lp4716
S'28/07/2015'
p4717
aF2.860576868057251
asg3
g12
sg5
S'pertaining to marriage agreement'
p4718
ssS'essay'
p4719
(dp4720
g9
(lp4721
S'28/07/2015'
p4722
aI15
asg3
g12
sg5
S'to make an attempt; subject to a test'
p4723
ssS'dogged'
p4724
(dp4725
g3
g4
sg5
S'determined'
p4726
ssS'coda'
p4727
(dp4728
g9
(lp4729
S'28/07/2015'
p4730
aF24.93089199066162
asg3
g12
sg5
S'concluding part of a literary or musical composition; something that summarizes or concludes'
p4731
ssS'wrangle'
p4732
(dp4733
g3
g4
sg5
S'(v.) to quarrel or argue in a noisy, angry way; to obtain by argument; to herd; (n.) a noisy quarrel'
p4734
ssS'fecund'
p4735
(dp4736
g3
g4
sg5
S'1. fertile 2. highly imaginative'
p4737
ssS'Distraught'
p4738
(dp4739
g3
g4
sg5
S'Upset; distracted by anxiety'
p4740
ssS'ruminate'
p4741
(dp4742
g3
g4
sg5
S'v. to meditate, think about at length, chew on;pensive'
p4743
ssS'barter'
p4744
(dp4745
g3
g4
sg5
S'(n.) an exchange in trade; (v.) to exchange goods'
p4746
ssS'Vindicate'
p4747
(dp4748
g3
g4
sg5
S'to free from blame'
p4749
ssS'vacuous'
p4750
(dp4751
g3
g12
sg5
S'empty, void, lacking intelligence'
p4752
ssS'welter'
p4753
(dp4754
g9
(lp4755
S'28/07/2015'
p4756
aF1.9610011577606201
asg3
g12
sg5
S'wallow or roll, toss about, be in turmoil'
p4757
ssS'obstinate'
p4758
(dp4759
g3
g4
sg5
S'adj. stubborn; inflexible'
p4760
ssS'breach'
p4761
(dp4762
g3
g4
sg5
S'n. gap where barriers are broken through'
p4763
ssS'moribund'
p4764
(dp4765
g3
g4
sg5
S'(adj.) dying, on the way out'
p4766
ssS'implausible'
p4767
(dp4768
g3
g12
sg5
S'unlikely; unbelievable'
p4769
ssS'subservient'
p4770
(dp4771
g3
g4
sg5
S'adj. obedient'
p4772
ssS'tenet'
p4773
(dp4774
g9
(lp4775
S'28/07/2015'
p4776
aI15
asg3
g12
sg5
S'belief, doctrine'
p4777
ssS'clement'
p4778
(dp4779
g3
g4
sg5
S'adj. mild and gentle'
p4780
ssS'bedeck'
p4781
(dp4782
g3
g4
sg5
S'v. adorn(make more attractive by adding something that is beautiful adorn, decorate)'
p4783
ssS'physiognomy'
p4784
(dp4785
g3
g12
sg5
S'facial features'
p4786
ssS'stodgy'
p4787
(dp4788
g3
g4
sg5
S'(adj.) Dull, unimaginative, and commonplace'
p4789
ssS'stiff'
p4790
(dp4791
g3
g4
sg5
S'not easily bent or changed in shape; rigid'
p4792
ssS'iniquity'
p4793
(dp4794
g3
g4
sg5
S'n. sin, wickedness'
p4795
ssS'insuperable'
p4796
(dp4797
g3
g12
sg5
S'insurmountable; unconquerable'
p4798
ssS'supine'
p4799
(dp4800
g3
g12
sg5
S'lying in the back, marked by lethargy'
p4801
ssS'trite'
p4802
(dp4803
g3
g4
sg5
S'adj. uninteresting, overused'
p4804
ssS'cloister'
p4805
(dp4806
g9
(lp4807
S'28/07/2015'
p4808
aF7.97511100769043
asg3
g12
sg5
S'to confine; seclude'
p4809
ssS'sedentary'
p4810
(dp4811
g3
g4
sg5
S'sitting down, accustomed to sitting or taking little exercise'
p4812
ssS'thespian'
p4813
(dp4814
g9
(lp4815
S'28/07/2015'
p4816
aF2.248507022857666
asg3
g12
sg5
S'an actor or actress'
p4817
ssS'dilute'
p4818
(dp4819
g3
g4
sg5
S'lessen strength'
p4820
ssS'exuberant'
p4821
(dp4822
g3
g4
sg5
S'adj. overflowing with vitality and good spirits'
p4823
ssS'inveterate'
p4824
(dp4825
g3
g12
sg5
S'confirmed; long standing'
p4826
ssS'aboveboard'
p4827
(dp4828
g3
g4
sg5
S'adj. legal'
p4829
ssS'ribald'
p4830
(dp4831
g3
g4
sg5
S'adj. vulgar, coarse'
p4832
ssS'exacerbate'
p4833
(dp4834
g9
(lp4835
S'28/07/2015'
p4836
aF7.710998058319092
asg3
g12
sg5
S'to aggravate; make worse'
p4837
ssS'volatile'
p4838
(dp4839
g3
g12
sg5
S'tending to vary frequently, fickle'
p4840
ssS'oration'
p4841
(dp4842
g3
g4
sg5
S'a formal speech, especially one given on a ceremonial occasion.'
p4843
ssS'infuse'
p4844
(dp4845
g3
g4
sg5
S'v. spread through'
p4846
ssS'stanch'
p4847
(dp4848
g9
(lp4849
S'28/07/2015'
p4850
aI15
asg3
g12
sg5
S'to stop or check the flow of'
p4851
ssS'peripatetic'
p4852
(dp4853
g3
g4
sg5
S'adj. moving or walking about'
p4854
ssS'puckish'
p4855
(dp4856
g3
g4
sg5
S'playful, especially in a mischievous ways'
p4857
ssS'gloat'
p4858
(dp4859
g3
g4
sg5
S'Express evil satisfaction; view malevolently'
p4860
ssS'abnegate'
p4861
(dp4862
g3
g4
sg5
S'v. deny oneself'
p4863
ssS'preamble'
p4864
(dp4865
g9
(lp4866
S'28/07/2015'
p4867
aF22.559391975402832
asg3
g12
sg5
S'preliminary statement'
p4868
ssS'adulterate'
p4869
(dp4870
g9
(lp4871
S'28/07/2015'
p4872
aI15
asg3
g12
sg5
S'to corrupt or make impure'
p4873
ssS'gullible'
p4874
(dp4875
g9
(lp4876
S'28/07/2015'
p4877
aF10.063497066497803
asg3
g12
sg5
S'easily deceived'
p4878
ssS'requite'
p4879
(dp4880
g3
g4
sg5
S'(v.) to make suitable repayment, as for a kindness, service, or favor; to make retaliation, as for an injury or wrong; to reciprocate'
p4881
ssS'abominate'
p4882
(dp4883
g3
g4
sg5
S'to have an intense dislike or hatred for'
p4884
ssS'dissolute'
p4885
(dp4886
g3
g4
sg5
S'lacking restraint'
p4887
ssS'miscreant'
p4888
(dp4889
g9
(lp4890
S'28/07/2015'
p4891
aF11.90194582939148
asg3
g12
sg5
S'villain; criminal'
p4892
ssS'plutocracy'
p4893
(dp4894
g3
g12
sg5
S'society ruled by the wealthy'
p4895
ssS'extricate'
p4896
(dp4897
g3
g4
sg5
S'to release with difficulty'
p4898
ssS'limn'
p4899
(dp4900
g3
g12
sg5
S'to draw, describe'
p4901
ssS'extirpate'
p4902
(dp4903
g9
(lp4904
S'28/07/2015'
p4905
aF7.115254878997803
asg3
g12
sg5
S'to root up; to destroy'
p4906
ssS'causal'
p4907
(dp4908
g9
(lp4909
S'28/07/2015'
p4910
aF4.053532123565674
asg3
g12
sg5
S'involving a cause'
p4911
ssS'dissonance'
p4912
(dp4913
g9
(lp4914
S'28/07/2015'
p4915
aF3.0994369983673096
asg3
g12
sg5
S'discord; lack of harmony'
p4916
ssS'pusillanimous'
p4917
(dp4918
g3
g12
sg5
S'cowardly; showing a lack of courage or determination; timid'
p4919
ssS'procrastinate'
p4920
(dp4921
g3
g4
sg5
S'v. put off till tomorrow or till a future time'
p4922
ssS'modicum'
p4923
(dp4924
g9
(lp4925
S'28/07/2015'
p4926
aF3.971389055252075
asg3
g12
sg5
S'limited quantity'
p4927
ssS'Drivel'
p4928
(dp4929
g3
g4
sg5
S'Nonsense; foolishness'
p4930
ssS'circuitous'
p4931
(dp4932
g9
(lp4933
S'28/07/2015'
p4934
aI15
asg3
g12
sg5
S'roundabout'
p4935
ssS'harrowing'
p4936
(dp4937
g9
(lp4938
S'28/07/2015'
p4939
aF4.959078073501587
asg3
g12
sg5
S'extremely distressing; terrifying'
p4940
ssS'depreciate'
p4941
(dp4942
g3
g4
sg5
S'to lower in value, disparage, belittle, to decline in price'
p4943
ssS'engender'
p4944
(dp4945
g9
(lp4946
S'28/07/2015'
p4947
aF7.0441601276397705
asg3
g12
sg5
S'to cause; produce'
p4948
ssS'lacerate'
p4949
(dp4950
g3
g4
sg5
S'to rip, maul, tear, mutilate, mangle'
p4951
ssS'Wither'
p4952
(dp4953
g3
g4
sg5
S'Shrivel; decay'
p4954
ssS'entangle'
p4955
(dp4956
g3
g4
sg5
S'v. catch in'
p4957
ssS'disingenuous'
p4958
(dp4959
g9
(lp4960
S'28/07/2015'
p4961
aF43.089564085006714
asg3
g12
sg5
S'not candid, crafty'
p4962
ssS'lapse'
p4963
(dp4964
g3
g4
sg5
S'n. temporary decline'
p4965
ssS'cornucopia'
p4966
(dp4967
g9
(lp4968
S'28/07/2015'
p4969
aI15
asg3
g12
sg5
S'horn overflowing with fruit and grain; state of abundance'
p4970
ssS'inculpate'
p4971
(dp4972
g3
g4
sg5
S'v. accuse'
p4973
ssS'cherubic'
p4974
(dp4975
g3
g4
sg5
S'(adj.) angelic'
p4976
ssS'Abstruse'
p4977
(dp4978
g3
g4
sg5
S'Hard to understand'
p4979
ssS'internecine'
p4980
(dp4981
g3
g12
sg5
S'deadly to both sides'
p4982
ssS'poseur'
p4983
(dp4984
g3
g12
sg5
S'person who affects an attitude to impress others'
p4985
ssS'vaunt'
p4986
(dp4987
g3
g12
sg5
S'to boast, drag'
p4988
ssS'beleaguer'
p4989
(dp4990
g3
g4
sg5
S'to surround; to harass'
p4991
ssS'rapt'
p4992
(dp4993
g3
g4
sg5
S'adj. having attention completely taken up'
p4994
ssS'atone'
p4995
(dp4996
g3
g4
sg5
S'v. make amends'
p4997
ssS'vivisection'
p4998
(dp4999
g3
g12
sg5
S'dissection, surgery, or painful experiments performed on a living animal for the purpose of scientific research'
p5000
ssS'counterfeit'
p5001
(dp5002
g3
g4
sg5
S'adj. imitation of something valuable'
p5003
ssS'ambivalence'
p5004
(dp5005
g9
(lp5006
S'28/07/2015'
p5007
aI15
asg3
g12
sg5
S'the state of having conflicting emotional attitudes'
p5008
ssS'tamper'
p5009
(dp5010
g3
g4
sg5
S'(v.) To interfere with; To meddle'
p5011
ssS'patronize'
p5012
(dp5013
g3
g4
sg5
S'treat with an apparent kindness that betrays a feeling of superiority'
p5014
ssS'elliptical'
p5015
(dp5016
g3
g4
sg5
S'extremely concise in speech or writing'
p5017
ssS'occlude'
p5018
(dp5019
g9
(lp5020
S'28/07/2015'
p5021
aI15
asg3
g12
sg5
S'to shut; block'
p5022
ssS'Solemnity'
p5023
(dp5024
g3
g4
sg5
S'Seriousness'
p5025
ssS'impenitent'
p5026
(dp5027
g3
g4
sg5
S'not repentent, shameless, unashamed, unrepentant'
p5028
ssS'Subterfuge'
p5029
(dp5030
g3
g4
sg5
S'Use of tricks especially to hide, avoid, or get something'
p5031
ssS'prolix'
p5032
(dp5033
g3
g4
sg5
S'adj. excessively wordy'
p5034
ssS'impecunious'
p5035
(dp5036
g234
(lp5037
S'28/07/2015'
p5038
aI15
asg3
g12
sg5
S'poor; having no money'
p5039
ssS'foment'
p5040
(dp5041
g9
(lp5042
S'28/07/2015'
p5043
aF7.854988098144531
asg3
g12
sg5
S'to incite; arouse'
p5044
ssS'ambiguous'
p5045
(dp5046
g9
(lp5047
S'28/07/2015'
p5048
aI15
asg3
g12
sg5
S'unclear or doubtful in meaning'
p5049
ssS'xenophobia'
p5050
(dp5051
g3
g4
sg5
S'intense fear of people from other countries'
p5052
ssS'arduous'
p5053
(dp5054
g9
(lp5055
S'28/07/2015'
p5056
aI15
asg3
g12
sg5
S'extremely difficult; laborious'
p5057
ssS'tendentious'
p5058
(dp5059
g3
g4
sg5
S'biased; showing marked tendencies'
p5060
ssS'alloy'
p5061
(dp5062
g234
(lp5063
S'28/07/2015'
p5064
aI15
asg9
(lp5065
S'28/07/2015'
p5066
aI15
asg3
g12
sg5
S'a combination; a mixture of two or more metals'
p5067
ssS'Decant'
p5068
(dp5069
g3
g4
sg5
S'Gradually pour (liquid, typically wine or a solution) from one container into another, esp. without disturbing the sediment. 2. Empty out; move as if by pouring.'
p5070
ssS'sedulous'
p5071
(dp5072
g9
(lp5073
S'28/07/2015'
p5074
aF3.39314603805542
asg3
g12
sg5
S'diligent, assiduous'
p5075
ssS'Incorrigible'
p5076
(dp5077
g3
g4
sg5
S'Unable to be changed, corrected, or reformed.'
p5078
ssS'alacrity'
p5079
(dp5080
g9
(lp5081
S'28/07/2015'
p5082
aI15
asg3
g12
sg5
S'cheerful willingness; eagerness; speed'
p5083
ssS'embezzle'
p5084
(dp5085
g3
g4
sg5
S'misuse entrusted money or property'
p5086
ssS'vilify'
p5087
(dp5088
g3
g4
sg5
S"adj to slander or defame someone's name or reputation"
p5089
ssS'badger'
p5090
(dp5091
g3
g4
sg5
S'to annoy;'
p5092
ssS'subversive'
p5093
(dp5094
g3
g12
sg5
S'intended to undermine or underthrow, especially an established government'
p5095
ssS'industrious'
p5096
(dp5097
g3
g4
sg5
S'working hard'
p5098
ssS'equanimity'
p5099
(dp5100
g9
(lp5101
S'28/07/2015'
p5102
aI15
asg3
g12
sg5
S'composure; calmness'
p5103
ssS'decorum'
p5104
(dp5105
g9
(lp5106
S'28/07/2015'
p5107
aF2.6867339611053467
asg3
g12
sg5
S'proper behavior'
p5108
ssS'brook'
p5109
(dp5110
g3
g4
sg5
S'v. to bear, suffer, or tolerate.'
p5111
ssS'nostalgia'
p5112
(dp5113
g9
(lp5114
S'28/07/2015'
p5115
aF2.495469093322754
asg3
g12
sg5
S'sentimental longing for a past time'
p5116
ssS'sinecure'
p5117
(dp5118
g3
g12
sg5
S'well-paying job that requieres little or no work'
p5119
ssS'primordial'
p5120
(dp5121
g3
g12
sg5
S'original; existing from the beginning'
p5122
ssS'choleric'
p5123
(dp5124
g3
g4
sg5
S'hot-tempered'
p5125
ssS'derelict'
p5126
(dp5127
g3
g4
sg5
S'adj. abandoned; discarded'
p5128
ssS'machinations'
p5129
(dp5130
g3
g12
sg5
S'plots or schemes'
p5131
ssS'impervious'
p5132
(dp5133
g3
g12
sg5
S'incapable of being affected; impossible to penetrate'
p5134
ssS'trenchant'
p5135
(dp5136
g3
g4
sg5
S'adj. energetic, vigorous'
p5137
ssS'denigrate'
p5138
(dp5139
g9
(lp5140
S'28/07/2015'
p5141
aF13.710526943206787
asg3
g12
sg5
S"to slur someone's reputation"
p5142
ssS'flout'
p5143
(dp5144
g9
(lp5145
S'28/07/2015'
p5146
aI15
asg3
g12
sg5
S'to treat scornfully'
p5147
ssS'negligent'
p5148
(dp5149
g3
g4
sg5
S'adj. failing to take proper care in doing something. careless'
p5150
ssS'placid'
p5151
(dp5152
g3
g12
sg5
S'calm'
p5153
ssS'crass'
p5154
(dp5155
g3
g4
sg5
S'adj. unrefined, coarse or thick in nature'
p5156
ssS'profound'
p5157
(dp5158
g3
g12
sg5
S'deep, not superficial'
p5159
ssS'laconic'
p5160
(dp5161
g9
(lp5162
S'28/07/2015'
p5163
aF1.5229928493499756
asg3
g12
sg5
S'using few words'
p5164
ssS'concave'
p5165
(dp5166
g9
(lp5167
S'28/07/2015'
p5168
aF15.559887886047363
asg3
g12
sg5
S'curving inward'
p5169
ssS'virulent'
p5170
(dp5171
g3
g4
sg5
S'extremely harmful or poisonous; bitterly hostile or antagonistic'
p5172
ssS'predilection'
p5173
(dp5174
g3
g4
sg5
S'a disposition in favor of something; preference'
p5175
ssS'veracious'
p5176
(dp5177
g3
g12
sg5
S'truthful, accurate'
p5178
ssS'Decadence'
p5179
(dp5180
g3
g4
sg5
S'decline, decay, or deterioration; a condition or period of decline or decay; excessive self-indulgence'
p5181
ssS'homogeneous'
p5182
(dp5183
g9
(lp5184
S'28/07/2015'
p5185
aF3.490854024887085
asg3
g12
sg5
S'composed of identical parts; uniform in composition'
p5186
ssS'intangible'
p5187
(dp5188
g3
g12
sg5
S'not material'
p5189
ssS'banal'
p5190
(dp5191
g9
(lp5192
S'28/07/2015'
p5193
aI15
asg3
g12
sg5
S'commonplace; trite'
p5194
ssS'Hauteur'
p5195
(dp5196
g3
g4
sg5
S'haughty,Haughtiness in bearing and attitude; arrogance. haughty'
p5197
ssS'gallant'
p5198
(dp5199
g3
g4
sg5
S'(of a person or their behaviour) brave; heroic'
p5200
ssS'Conjecture'
p5201
(dp5202
g3
g4
sg5
S'Surmise; guess'
p5203
ssS'loquacious'
p5204
(dp5205
g9
(lp5206
S'28/07/2015'
p5207
aF2.7485201358795166
asg3
g12
sg5
S'talkative'
p5208
ssS'gossamer'
p5209
(dp5210
g9
(lp5211
S'28/07/2015'
p5212
aF24.50884509086609
asg3
g12
sg5
S'sheer; light and delicate; like cobwebs'
p5213
ssS'fathom'
p5214
(dp5215
g3
g4
sg5
S'to comprehend'
p5216
ssS'remiss'
p5217
(dp5218
g3
g4
sg5
S'negligent'
p5219
ssS'invective'
p5220
(dp5221
g9
(lp5222
S'28/07/2015'
p5223
aF18.253509998321533
asg3
g12
sg5
S'verbal abuse'
p5224
ssS'upbraid'
p5225
(dp5226
g3
g4
sg5
S'v. to scold bitterly'
p5227
ssS'implode'
p5228
(dp5229
g3
g12
sg5
S'collapse inward violently'
p5230
ssS'craving'
p5231
(dp5232
g3
g4
sg5
S'n. strong physical desire'
p5233
ssS'substantiate'
p5234
(dp5235
g3
g12
sg5
S'to support with proof or evidence'
p5236
ssS'overweening'
p5237
(dp5238
g9
(lp5239
S'28/07/2015'
p5240
aF19.139010906219482
asg3
g12
sg5
S'presumptuous; arrogant'
p5241
ssS'Conscientious'
p5242
(dp5243
g3
g4
sg5
S'Scrupulous; careful'
p5244
ssS'Protrude'
p5245
(dp5246
g3
g4
sg5
S'Stick out'
p5247
ssS'facilitate'
p5248
(dp5249
g9
(lp5250
S'28/07/2015'
p5251
aI15
asg3
g12
sg5
S'to make less difficult'
p5252
ssS'incarnate'
p5253
(dp5254
g3
g12
sg5
S'having bodily form'
p5255
ssS'platonic'
p5256
(dp5257
g234
(lp5258
S'28/07/2015'
p5259
aI15
asg3
g12
sg5
S'spiritual; theoretical'
p5260
ssS'felicitous'
p5261
(dp5262
g9
(lp5263
S'28/07/2015'
p5264
aF4.590430021286011
asg3
g12
sg5
S'well chosen or suited to the circumstances'
p5265
ssS'introspective'
p5266
(dp5267
g3
g12
sg5
S"contemplating one's own thoughts and feelings"
p5268
ssS'Wizened'
p5269
(dp5270
g3
g4
sg5
S'(adj.) dry, shrunken, and wrinkled (often as the result of aging)'
p5271
ssS'endemic'
p5272
(dp5273
g9
(lp5274
S'28/07/2015'
p5275
aF8.820788145065308
asg3
g12
sg5
S'inherent; belonging to an area'
p5276
ssS'opportune'
p5277
(dp5278
g3
g4
sg5
S'(of a time) well-chosen or particularly favorable or appropriate.'
p5279
ssS'salient'
p5280
(dp5281
g3
g4
sg5
S'adj. prominent or conspicuous.'
p5282
ssS'singular'
p5283
(dp5284
g9
(lp5285
S'28/07/2015'
p5286
aF5.714637041091919
asg3
g12
sg5
S'unique, extraordinary, odd'
p5287
ssS'extrinsic'
p5288
(dp5289
g234
(lp5290
S'28/07/2015'
p5291
aI15
asg3
g12
sg5
S'not inherent or essential'
p5292
ssS'accretion'
p5293
(dp5294
g9
(lp5295
S'28/07/2015'
p5296
aI15
asg3
g12
sg5
S'growth in size or increase in amount'
p5297
ssS'natty'
p5298
(dp5299
g3
g4
sg5
S'accurate, trim, tidy, careful'
p5300
ssS'pervasive'
p5301
(dp5302
g9
(lp5303
S'28/07/2015'
p5304
aF7.266945838928223
asg3
g12
sg5
S'spread throughout every part'
p5305
ssS'Dabble'
p5306
(dp5307
g3
g4
sg5
S'Take part in an activity that is not serious'
p5308
ssS'chagrin'
p5309
(dp5310
g3
g4
sg5
S'embarrassment; shame'
p5311
ssS'argot'
p5312
(dp5313
g9
(lp5314
S'28/07/2015'
p5315
aI15
asg3
g12
sg5
S'a specialized vocabulary used by a group'
p5316
ssS'dreary'
p5317
(dp5318
g3
g4
sg5
S'dismal, bleak, sad, boring or dull'
p5319
ssS'burlesque'
p5320
(dp5321
g3
g4
sg5
S'ludicrous, mocking, or exaggerated imitation'
p5322
ssS'mollify'
p5323
(dp5324
g9
(lp5325
S'28/07/2015'
p5326
aF2.9350380897521973
asg3
g12
sg5
S'to soothe'
p5327
ssS'Subjugate'
p5328
(dp5329
g3
g4
sg5
S'Conquer'
p5330
ssS'neologism'
p5331
(dp5332
g9
(lp5333
S'28/07/2015'
p5334
aF25.10907793045044
asg3
g12
sg5
S'new word or expression'
p5335
ssS'spurn'
p5336
(dp5337
g3
g4
sg5
S'reject; scorn'
p5338
ssS'treatise'
p5339
(dp5340
g3
g12
sg5
S'article treating a subject systematically and thoroughly'
p5341
ssS'churlish'
p5342
(dp5343
g9
(lp5344
S'28/07/2015'
p5345
aI15
asg3
g12
sg5
S'rude; boorish'
p5346
ssS'frugal'
p5347
(dp5348
g3
g4
sg5
S'sparing or economical as regards money or food.'
p5349
ssS'halcyon'
p5350
(dp5351
g9
(lp5352
S'28/07/2015'
p5353
aI15
asg3
g12
sg5
S'calm and peaceful; happy; golden; prosperous'
p5354
ssS'coronation'
p5355
(dp5356
g3
g4
sg5
S'n. crowning of a monarch'
p5357
ssS'torrent'
p5358
(dp5359
g3
g4
sg5
S'large amount of something that is released suddenly'
p5360
ssS'gambol'
p5361
(dp5362
g9
(lp5363
S'28/07/2015'
p5364
aF5.669157981872559
asg3
g12
sg5
S'to frolic; leap playfully'
p5365
ssS'stipple'
p5366
(dp5367
g3
g4
sg5
S'v. draw using dots'
p5368
ssS'sardonic'
p5369
(dp5370
g3
g12
sg5
S'cynical, scornfully mocking'
p5371
ssS'metaphysics'
p5372
(dp5373
g3
g12
sg5
S'a branch of philosophy tha tinvestigates the ultimate nature of reality'
p5374
ssS'catholic'
p5375
(dp5376
g3
g4
sg5
S'adj. all-embracing'
p5377
ssS'verbatim'
p5378
(dp5379
g3
g4
sg5
S'adj. word for word; exactly as written or spoken'
p5380
ssS'florid'
p5381
(dp5382
g9
(lp5383
S'28/07/2015'
p5384
aF8.236131191253662
asg3
g12
sg5
S'ruddy; reddish; flowery'
p5385
ssS'ephemeral'
p5386
(dp5387
g9
(lp5388
S'28/07/2015'
p5389
aI15
asg3
g12
sg5
S'short-lived; fleeting'
p5390
ssS'apprise'
p5391
(dp5392
g9
(lp5393
S'28/07/2015'
p5394
aI15
asg3
g12
sg5
S'to inform'
p5395
ssS'precipice'
p5396
(dp5397
g3
g4
sg5
S'n. cliff'
p5398
ssS'adjunct'
p5399
(dp5400
g9
(lp5401
S'28/07/2015'
p5402
aI15
asg3
g12
sg5
S'something added, attached, or joined'
p5403
ssS'singe'
p5404
(dp5405
g3
g4
sg5
S'v. burn lightly'
p5406
ssS'divert'
p5407
(dp5408
g3
g4
sg5
S'to draw attention from something'
p5409
ssS'cozen'
p5410
(dp5411
g9
(lp5412
S'28/07/2015'
p5413
aI15
asg3
g12
sg5
S'to mislead by trick or fraud; decieve'
p5414
ssS'mongrel'
p5415
(dp5416
g3
g4
sg5
S'n. of mixed breeds'
p5417
ssS'axiomatic'
p5418
(dp5419
g9
(lp5420
S'28/07/2015'
p5421
aI15
asg3
g12
sg5
S'taken for granted; self-evident truth'
p5422
ssS'Manifest'
p5423
(dp5424
g3
g4
sg5
S'Show clearly'
p5425
ssS'cipher'
p5426
(dp5427
g3
g4
sg5
S'n. secret code'
p5428
ssS'satire'
p5429
(dp5430
g3
g4
sg5
S'n. mode of writing that aims at ridiculing a target'
p5431
ssS'delve'
p5432
(dp5433
g3
g4
sg5
S'(v.) to dig; to search deeply and thoroughly into'
p5434
ssS'munificent'
p5435
(dp5436
g3
g4
sg5
S'adj. very generous'
p5437
ssS'pulchritude'
p5438
(dp5439
g3
g4
sg5
S'n. beauty'
p5440
ssS'inexorable'
p5441
(dp5442
g3
g4
sg5
S'unstoppable'
p5443
ssS'congruity'
p5444
(dp5445
g3
g4
sg5
S'n. state of belonging or making sense together'
p5446
ssS'dent'
p5447
(dp5448
g3
g4
sg5
S'L. tooth (indent)'
p5449
ssS'penitent'
p5450
(dp5451
g3
g4
sg5
S'feeling or showing sorrow and regret for having done wrong; repentant: a penitent expression.'
p5452
ssS'discursive'
p5453
(dp5454
g3
g4
sg5
S'desultory,digressional,excursive, rambling, lengthy with digressions'
p5455
ssS'absurd'
p5456
(dp5457
g3
g4
sg5
S'adj. meaninglessly illogical'
p5458
ssS'rubric'
p5459
(dp5460
g3
g12
sg5
S'protocol, title or heading'
p5461
ssS'utter'
p5462
(dp5463
g3
g4
sg5
S'complete; absolute.'
p5464
ssS'asylum'
p5465
(dp5466
g9
(lp5467
S'28/07/2015'
p5468
aI15
asg3
g12
sg5
S'place of refuge or shelter'
p5469
ssS'litigation'
p5470
(dp5471
g3
g12
sg5
S'legal proceedings'
p5472
ssS'cavort'
p5473
(dp5474
g3
g4
sg5
S'to romp or prance around exuberantly; to make merry'
p5475
ssS'scurrilous'
p5476
(dp5477
g3
g4
sg5
S'remarks, articles etc contain damaging and untrue statements about someone'
p5478
ssS'myriad'
p5479
(dp5480
g3
g4
sg5
S'many, a lot'
p5481
ssS'flinch'
p5482
(dp5483
g3
g4
sg5
S'Hesitate; shrink'
p5484
ssS'Embroider'
p5485
(dp5486
g3
g4
sg5
S'Decorate with needlework; ornament with fancy or fictitious details'
p5487
ssS'dodge'
p5488
(dp5489
g3
g4
sg5
S'v. to avoid being hit by something by moving quickly to one side.'
p5490
ssS'gratify'
p5491
(dp5492
g3
g4
sg5
S'v. to please or indulge'
p5493
ssS'aphorism'
p5494
(dp5495
g3
g4
sg5
S'n. short statement expressing wisdom or wit'
p5496
ssS'perigee'
p5497
(dp5498
g9
(lp5499
S'28/07/2015'
p5500
aI15
asg3
g12
sg5
S'point in an orbit that is closest to the earth'
p5501
ssS'skimp'
p5502
(dp5503
g3
g4
sg5
S'(v.) To provide scantily; To live very economically'
p5504
ssS'accrue'
p5505
(dp5506
g9
(lp5507
S'28/07/2015'
p5508
aI15
asg3
g12
sg5
S'to accumulate; grow by additions'
p5509
ssS'syllogism'
p5510
(dp5511
g3
g12
sg5
S'a form of deductive reasoning with a major premise, a minor premise, and a conclusion'
p5512
ssS'defame'
p5513
(dp5514
g9
(lp5515
S'28/07/2015'
p5516
aF5.154717922210693
asg3
g12
sg5
S"to malign; harm someone's reputation"
p5517
ssS'canard'
p5518
(dp5519
g9
(lp5520
S'28/07/2015'
p5521
aF2.738905906677246
asg3
g12
sg5
S'false; deliberately misleading story'
p5522
ssS'Vicarious'
p5523
(dp5524
g3
g4
sg5
S'Acting as a substitute'
p5525
ssS'cachet'
p5526
(dp5527
g3
g4
sg5
S'n. a sign or expression of approval, especially from a person who has a great deal of prestige.'
p5528
ssS'Buoyancy'
p5529
(dp5530
g3
g4
sg5
S'Ability to float'
p5531
ssS'credo'
p5532
(dp5533
g9
(lp5534
S'28/07/2015'
p5535
aF4.83103084564209
asg3
g12
sg5
S'statement of belief or principle; creed'
p5536
ssS'theocracy'
p5537
(dp5538
g3
g12
sg5
S'government by priests representing a god'
p5539
ssS'gerrymander'
p5540
(dp5541
g9
(lp5542
S'28/07/2015'
p5543
aF4.277437925338745
asg3
g12
sg5
S'to divide an area into voting districts in a way that favors a political party'
p5544
ssS'luminous'
p5545
(dp5546
g9
(lp5547
S'28/07/2015'
p5548
aI15
asg3
g12
sg5
S'bright; brilliant; glowing'
p5549
ssS'literati'
p5550
(dp5551
g3
g12
sg5
S'scholarly or learned persons'
p5552
ssS'partisan'
p5553
(dp5554
g9
(lp5555
S'28/07/2015'
p5556
aF4.935662031173706
asg3
g12
sg5
S'one-sided; committed to a party, group or cause'
p5557
ssS'imprecation'
p5558
(dp5559
g3
g12
sg5
S'curse; damnation'
p5560
ssS'broach'
p5561
(dp5562
g9
(lp5563
S'28/07/2015'
p5564
aI15
asg3
g12
sg5
S'to mention for the first time'
p5565
ssS'irresolute'
p5566
(dp5567
g234
(lp5568
S'28/07/2015'
p5569
aI15
asg3
g12
sg5
S'unsure of how to act; weak'
p5570
ssS'sabotage'
p5571
(dp5572
g3
g4
sg5
S'to secretely damage or destroy equipment, vehicles etc.'
p5573
ssS'Minute'
p5574
(dp5575
g3
g4
sg5
S'Very small'
p5576
ssS'antics'
p5577
(dp5578
g3
g4
sg5
S'(n. pl.) ridiculous and unpredictable behavior or actions'
p5579
ssS'interpolate'
p5580
(dp5581
g9
(lp5582
S'28/07/2015'
p5583
aF6.872771978378296
asg3
g12
sg5
S'to insert; change by adding new words or material'
p5584
ssS'specious'
p5585
(dp5586
g3
g12
sg5
S'seeming to be logical and sound, but not really so'
p5587
ssS'solace'
p5588
(dp5589
g3
g4
sg5
S'n. comfort from pain or grief; consolation'
p5590
ssS'tantrum'
p5591
(dp5592
g3
g4
sg5
S'an uncontrolled outburst of anger and frustration, typically in a young child; caprice'
p5593
ssS'inundate'
p5594
(dp5595
g3
g12
sg5
S'to cover with water, overwhelm'
p5596
ssS'asunder'
p5597
(dp5598
g3
g4
sg5
S'adv. into separate parts or pieces'
p5599
ssS'perfidious'
p5600
(dp5601
g234
(lp5602
S'28/07/2015'
p5603
aI15
asg3
g12
sg5
S'faithless; disloyal; untrustworthy'
p5604
ssS'fester'
p5605
(dp5606
g3
g4
sg5
S'to rot'
p5607
ssS'commend'
p5608
(dp5609
g3
g4
sg5
S'to praise; to extol'
p5610
ssS'Vicissitude'
p5611
(dp5612
g3
g4
sg5
S'a change of circumstances or fortune, typically one that is unwelcome or unpleasant'
p5613
ssS'blatant'
p5614
(dp5615
g3
g4
sg5
S'noisy; glaring'
p5616
ssS'Deracinate'
p5617
(dp5618
g3
g4
sg5
S'to uproot, eradicate, extirpate, expunge'
p5619
ssS'stentorian'
p5620
(dp5621
g3
g12
sg5
S'extremely loud'
p5622
ssS'Intermittent'
p5623
(dp5624
g3
g4
sg5
S'Recurring. Stopping and starting; sporadic'
p5625
ssS'Politic'
p5626
(dp5627
g3
g4
sg5
S'seeming sensible and judicious under the circumstances ; Expedient; prudent; well advised'
p5628
ssS'shiftless'
p5629
(dp5630
g3
g4
sg5
S'(adj.) lazy, lacking in ambition and energy; inefficient'
p5631
ssS'derivative'
p5632
(dp5633
g9
(lp5634
S'28/07/2015'
p5635
aF4.947758913040161
asg3
g12
sg5
S'something derived; unoriginal'
p5636
ssS'altruism'
p5637
(dp5638
g3
g4
sg5
S'n. doing good for others(opp: egoism)'
p5639
ssS'cacophonous'
p5640
(dp5641
g9
(lp5642
S'28/07/2015'
p5643
aF5.126969814300537
asg3
g12
sg5
S'unpleasant or harsh-sounding'
p5644
ssS'vapid'
p5645
(dp5646
g3
g12
sg5
S'tasteless, dull'
p5647
ssS'asexual'
p5648
(dp5649
g3
g4
sg5
S'adj. having no interest in sex'
p5650
ssS'pandemonium'
p5651
(dp5652
g3
g4
sg5
S'n. chaotic confusion'
p5653
ssS'Plausible'
p5654
(dp5655
g3
g4
sg5
S'Seemingly credible or worthy of acceptance.'
p5656
ssS'Bracing'
p5657
(dp5658
g3
g4
sg5
S'Invigorating; energizing; stimulating'
p5659
ssS'fallacious'
p5660
(dp5661
g9
(lp5662
S'28/07/2015'
p5663
aI15
asg3
g12
sg5
S'based on a false idea or fact; misleading'
p5664
ssS'venomous'
p5665
(dp5666
g3
g4
sg5
S'(adj.) Malicious, spiteful, and mean'
p5667
ssS'lassitude'
p5668
(dp5669
g3
g12
sg5
S'lethargy; sluggishness'
p5670
ssS'Martinet'
p5671
(dp5672
g3
g4
sg5
S'Strict disciplinarian'
p5673
ssS'amenity'
p5674
(dp5675
g9
(lp5676
S'28/07/2015'
p5677
aI15
asg3
g12
sg5
S'something that increases comfort'
p5678
ssS'concerted'
p5679
(dp5680
g3
g4
sg5
S'(adj.)  planned or preformed in cooperation with others'
p5681
ssS'garrulous'
p5682
(dp5683
g9
(lp5684
S'28/07/2015'
p5685
aI15
asg3
g12
sg5
S'very talkative; wordy'
p5686
ssS'tonic'
p5687
(dp5688
g3
g4
sg5
S'refreshing'
p5689
ssS'lascivious'
p5690
(dp5691
g3
g12
sg5
S'lustful'
p5692
ssS'Motility'
p5693
(dp5694
g3
g4
sg5
S'_ is a biological term which refers to the ability to move spontaneously and actively, consuming energy in the process (sperm, egg).'
p5695
ssS'ostentatious'
p5696
(dp5697
g234
(lp5698
S'28/07/2015'
p5699
aI15
asg3
g12
sg5
S'showy; pretentious'
p5700
ssS'dilate'
p5701
(dp5702
g3
g4
sg5
S'v. make wider'
p5703
ssS'untoward'
p5704
(dp5705
g3
g12
sg5
S'not favorable, troublesome, unruly'
p5706
ssS'eulogize'
p5707
(dp5708
g3
g4
sg5
S'v. to praise, to say good things about (as in eulogy)'
p5709
ssS'propensity'
p5710
(dp5711
g3
g12
sg5
S'inclination, tendency'
p5712
ssS'Enfranchise'
p5713
(dp5714
g3
g4
sg5
S'Admit citizenship'
p5715
ssS'schematic'
p5716
(dp5717
g9
(lp5718
S'28/07/2015'
p5719
aF2.801805019378662
asg3
g12
sg5
S'relating to or in the form of an outline or diagram'
p5720
ssS'blight'
p5721
(dp5722
g3
g4
sg5
S'n. disease affecting crops'
p5723
ssS'frivolous'
p5724
(dp5725
g3
g4
sg5
S'not important'
p5726
ssS'garish'
p5727
(dp5728
g3
g4
sg5
S'dressed too brightly'
p5729
ssS'balk'
p5730
(dp5731
g3
g4
sg5
S'(n.) An barrier, obstacle or hindrance causing defeat; (v.) To stop short and refuse to go on'
p5732
ssS'bale'
p5733
(dp5734
g3
g4
sg5
S'n. suffering as a result of evil'
p5735
ssS'spleenful'
p5736
(dp5737
g3
g4
sg5
S'full of or displaying spleen; ill humored; irritable or peevish; spiteful; splenetic'
p5738
ssS'impeccable'
p5739
(dp5740
g3
g4
sg5
S'(adj.) faultless, beyond criticism or blame'
p5741
ssS'compendium'
p5742
(dp5743
g234
(lp5744
S'28/07/2015'
p5745
aI15
asg3
g12
sg5
S'brief, comprehensive summary'
p5746
ssS'retard'
p5747
(dp5748
g3
g4
sg5
S'delay or hold back in terms of progress, development, or accomplishment'
p5749
ssS'warranted'
p5750
(dp5751
g3
g12
sg5
S'justified'
p5752
ssS'timbre'
p5753
(dp5754
g3
g12
sg5
S'voice tone color'
p5755
ssS'castigation'
p5756
(dp5757
g9
(lp5758
S'28/07/2015'
p5759
aF2.135329008102417
asg3
g12
sg5
S'punishment; chastisement; criticism'
p5760
ssS'contumacious'
p5761
(dp5762
g9
(lp5763
S'28/07/2015'
p5764
aF3.930424928665161
asg3
g12
sg5
S'disobedient; rebellious'
p5765
ssS'draconian'
p5766
(dp5767
g3
g4
sg5
S'extremely harsh or severe'
p5768
ssS'intransigence'
p5769
(dp5770
g3
g12
sg5
S'stubbornness; refusal to compromise'
p5771
ssS'ratify'
p5772
(dp5773
g3
g4
sg5
S'approve'
p5774
ssS'glut'
p5775
(dp5776
g3
g4
sg5
S'(v.) to provide more than is needed or wanted; to feed or fill to the point of overstuffing; (n.) an oversupply'
p5777
ssS'inveigle'
p5778
(dp5779
g3
g12
sg5
S'to win over by flattering or coaxing'
p5780
ssS'evince'
p5781
(dp5782
g234
(lp5783
S'28/07/2015'
p5784
aI15
asg3
g12
sg5
S'to show plainly; be an indication of'
p5785
ssS'interim'
p5786
(dp5787
g3
g4
sg5
S'(n.) the time between; (adj.) temporary, coming between two points in time'
p5788
ssS'apostasy'
p5789
(dp5790
g3
g4
sg5
S'n. renunciation of religious belief'
p5791
ssS'dais'
p5792
(dp5793
g3
g4
sg5
S'a platform in a room that you stand on to make a speech'
p5794
ssS'distend'
p5795
(dp5796
g9
(lp5797
S'28/07/2015'
p5798
aF3.9895761013031006
asg3
g12
sg5
S'to expand; swell out'
p5799
ssS'temerity'
p5800
(dp5801
g3
g4
sg5
S'boldness'
p5802
ssS'penchant'
p5803
(dp5804
g9
(lp5805
S'28/07/2015'
p5806
aF2.314913034439087
asg3
g12
sg5
S'inclination'
p5807
ssS'demographic'
p5808
(dp5809
g9
(lp5810
S'28/07/2015'
p5811
aI15
asg3
g12
sg5
S'related to population balance'
p5812
ssS'undulating'
p5813
(dp5814
g3
g12
sg5
S'moving in waves'
p5815
ssS'arrest'
p5816
(dp5817
g9
(lp5818
S'28/07/2015'
p5819
aI15
asg3
g12
sg5
S'to stop; to seize'
p5820
ssS'enact'
p5821
(dp5822
g3
g4
sg5
S'to make proposed legislation into law'
p5823
ssS'tumid'
p5824
(dp5825
g9
(lp5826
S'28/07/2015'
p5827
aI15
asg3
g12
sg5
S'swollen, distended'
p5828
ssS'frieze'
p5829
(dp5830
g9
(lp5831
S'28/07/2015'
p5832
aI15
asg3
g12
sg5
S'ornamental band on a wall'
p5833
ssS'masquerade'
p5834
(dp5835
g3
g4
sg5
S'n. the wearing of a disguise'
p5836
ssS'crux'
p5837
(dp5838
g3
g4
sg5
S'main point; central issue; heart of the matter'
p5839
ssS'feral'
p5840
(dp5841
g9
(lp5842
S'28/07/2015'
p5843
aF6.0643310546875
asg3
g12
sg5
S'existing in a wild or untamed state'
p5844
ssS'truculence'
p5845
(dp5846
g3
g12
sg5
S'aggressiveness, ferocity'
p5847
ssS'porous'
p5848
(dp5849
g3
g12
sg5
S'full of holes; permeable to liquids'
p5850
ssS'incendiary'
p5851
(dp5852
g3
g4
sg5
S'deliberatelky setting or causing fires; designed to start fires; tending to stir up strife or rebellion; (n) one who deliberately sets fires, arsonist; one who cause strife'
p5853
ssS'vortex'
p5854
(dp5855
g3
g12
sg5
S'whirpool, center of turbulence'
p5856
ssS'divest'
p5857
(dp5858
g9
(lp5859
S'28/07/2015'
p5860
aF2.4830880165100098
asg3
g12
sg5
S'to strip; deprive; rid'
p5861
ssS'Profligate'
p5862
(dp5863
g3
g4
sg5
S'Dissipated; wasteful; wildly immoral'
p5864
ssS'parity'
p5865
(dp5866
g3
g4
sg5
S'n. equality of treatment'
p5867
ssS'audacious'
p5868
(dp5869
g9
(lp5870
S'28/07/2015'
p5871
aI15
asg3
g12
sg5
S'bold; daring'
p5872
ssS'Purvey'
p5873
(dp5874
g3
g4
sg5
S'Seller, supplier'
p5875
ssS'corroborate'
p5876
(dp5877
g3
g4
sg5
S'confirm as true'
p5878
ssS'Painstaking'
p5879
(dp5880
g3
g4
sg5
S'Showing diligent effort or care; careful.'
p5881
ssS'convex'
p5882
(dp5883
g9
(lp5884
S'28/07/2015'
p5885
aI15
asg3
g12
sg5
S'curved outward'
p5886
ssS'elephantine'
p5887
(dp5888
g3
g4
sg5
S'1. slow and heavy 2. enormous 3. similar to an elephant'
p5889
ssS'leery'
p5890
(dp5891
g3
g4
sg5
S'suspicious'
p5892
ssS'Ductile'
p5893
(dp5894
g3
g4
sg5
S'Malleable; flexible; pliable'
p5895
ssS'staccato'
p5896
(dp5897
g3
g12
sg5
S'marked by abrupt, clear-cut sounds'
p5898
ssS'discretion'
p5899
(dp5900
g9
(lp5901
S'28/07/2015'
p5902
aF5.112486124038696
asg3
g12
sg5
S'quality of showing self-restraint in speech or actions'
p5903
ssS'mutation'
p5904
(dp5905
g3
g4
sg5
S'n. change in genes'
p5906
ssS'pilfer'
p5907
(dp5908
g3
g4
sg5
S'v. steal'
p5909
ssS'voluptuous'
p5910
(dp5911
g3
g4
sg5
S'adj. of or relating to luxury'
p5912
ssS'slur'
p5913
(dp5914
g3
g4
sg5
S'smear; insinuation of an insult'
p5915
ssS'ornithologist'
p5916
(dp5917
g9
(lp5918
S'28/07/2015'
p5919
aF4.910995960235596
asg3
g12
sg5
S'scientist who studies birds'
p5920
ssS'obsequy'
p5921
(dp5922
g9
(lp5923
S'28/07/2015'
p5924
aI15
asg3
g12
sg5
S'funeral ceremony'
p5925
ssS'fetid'
p5926
(dp5927
g9
(lp5928
S'28/07/2015'
p5929
aF3.5103890895843506
asg3
g12
sg5
S'having a bad smell'
p5930
ssS'abstinence'
p5931
(dp5932
g9
(lp5933
S'28/07/2015'
p5934
aI15
asg3
g12
sg5
S'the giving up of certain pleasures'
p5935
ssS'complaisance'
p5936
(dp5937
g3
g4
sg5
S'the willingness to comply with the wishes of others'
p5938
ssS'scorch'
p5939
(dp5940
g3
g4
sg5
S'to burn slightly, dry up or criticize sharply'
p5941
ssS'diabolical'
p5942
(dp5943
g3
g4
sg5
S'adj. like the devil'
p5944
ssS'tome'
p5945
(dp5946
g3
g12
sg5
S'book, usually large and academic'
p5947
ssS'dulcet'
p5948
(dp5949
g3
g4
sg5
S'adj. sweet and mild'
p5950
ssS'stultify'
p5951
(dp5952
g9
(lp5953
S'28/07/2015'
p5954
aF2.2779769897460938
asg3
g12
sg5
S'to impair or reduce to uselessness'
p5955
ssS'subside'
p5956
(dp5957
g3
g12
sg5
S'to settle down, grow quiet'
p5958
ssS'vulgarity'
p5959
(dp5960
g3
g4
sg5
S'n. coarseness'
p5961
ssS'articulate'
p5962
(dp5963
g3
g4
sg5
S'adj. having the ability to speak coherently'
p5964
ssS'chronic'
p5965
(dp5966
g3
g4
sg5
S'constant; lasting a long time'
p5967
ssS'esteem'
p5968
(dp5969
g3
g4
sg5
S'n. respect'
p5970
ssS'negate'
p5971
(dp5972
g9
(lp5973
S'28/07/2015'
p5974
aF7.320521831512451
asg3
g12
sg5
S'to cancel out; nullify'
p5975
ssS'fawning'
p5976
(dp5977
g9
(lp5978
S'28/07/2015'
p5979
aF7.353832006454468
asg3
g12
sg5
S'give a servile display of exaggerated flattery or affection, typically in order to gain favor'
p5980
ssS'noxious'
p5981
(dp5982
g3
g4
sg5
S'harmful, injurious'
p5983
ssS'luminary'
p5984
(dp5985
g3
g4
sg5
S'n. famous or distinguished person'
p5986
ssS'stamina'
p5987
(dp5988
g3
g4
sg5
S'the ability to sustain prolonged physical or mental effort'
p5989
ssS'scintillating'
p5990
(dp5991
g3
g4
sg5
S'adj. sparkling'
p5992
ssS'rococo'
p5993
(dp5994
g3
g12
sg5
S'excessively ornate'
p5995
ssS'glib'
p5996
(dp5997
g9
(lp5998
S'28/07/2015'
p5999
aI15
asg3
g12
sg5
S'fluent in an insincere way; offhand'
p6000
ssS'Stupor'
p6001
(dp6002
g3
g4
sg5
S'State of apathy; daze; lack of awareness'
p6003
ssS'Philanthropic'
p6004
(dp6005
g3
g4
sg5
S'Showing love of mankind through charitable gifts and deeds'
p6006
ssS'complacency'
p6007
(dp6008
g3
g4
sg5
S'n.  self-satisfied ignorance of danger'
p6009
ssS'amity'
p6010
(dp6011
g3
g4
sg5
S'harmony, friendship'
p6012
ssS'elicit'
p6013
(dp6014
g9
(lp6015
S'28/07/2015'
p6016
aI15
asg3
g12
sg5
S'to provoke; draw out'
p6017
ssS'admonish'
p6018
(dp6019
g9
(lp6020
S'28/07/2015'
p6021
aI15
asg3
g12
sg5
S'to caution or reprimand'
p6022
ssS'wince'
p6023
(dp6024
g3
g4
sg5
S'(n.) A shrinking or startled movement or gesture; (v.) To draw back or tense the body, to flinch'
p6025
ssS'strident'
p6026
(dp6027
g3
g12
sg5
S'loud, harsh, unpleasantly noisy'
p6028
ssS'paean'
p6029
(dp6030
g3
g12
sg5
S'song of joy or triumph; a fervent expression of joy'
p6031
ssS'behemoth'
p6032
(dp6033
g9
(lp6034
S'28/07/2015'
p6035
aI15
asg3
g12
sg5
S'huge creature; anything very large and powerful'
p6036
ssS'oligarchy'
p6037
(dp6038
g9
(lp6039
S'28/07/2015'
p6040
aF10.107774019241333
asg3
g12
sg5
S'form of government in which power belongs to only a few leaders'
p6041
ssS'dearth'
p6042
(dp6043
g9
(lp6044
S'28/07/2015'
p6045
aF3.728095054626465
asg3
g12
sg5
S'scarcity'
p6046
ssS'wheedle'
p6047
(dp6048
g3
g4
sg5
S'to use coaxing or flattery to gain some desired end'
p6049
ssS'pastiche'
p6050
(dp6051
g3
g4
sg5
S'n. humorous imitation; parody; travesty'
p6052
ssS'sobriety'
p6053
(dp6054
g3
g12
sg5
S'seriousness'
p6055
ssS'unimpeachable'
p6056
(dp6057
g3
g4
sg5
S'not able to be doubted, questioned, or criticized; entirely ; Unassailable'
p6058
ssS'Babble'
p6059
(dp6060
g3
g4
sg5
S'Chatter idly'
p6061
ssS'boon'
p6062
(dp6063
g3
g4
sg5
S'n. something to be grateful for'
p6064
ssS'fledgling'
p6065
(dp6066
g9
(lp6067
S'28/07/2015'
p6068
aI15
asg3
g12
sg5
S'beginner; novice'
p6069
ssS'ecstatic'
p6070
(dp6071
g3
g4
sg5
S'delighted'
p6072
ssS'dismantle'
p6073
(dp6074
g3
g4
sg5
S'destroy in an orderly way'
p6075
ssS'vignette'
p6076
(dp6077
g3
g4
sg5
S'n. a brief descriptive passage in writing'
p6078
ssS'Regress'
p6079
(dp6080
g3
g4
sg5
S'Return to an earlier and usually worse condition or state'
p6081
ssS'seismic'
p6082
(dp6083
g3
g12
sg5
S'relating to earthquakes'
p6084
ssS'extort'
p6085
(dp6086
g3
g4
sg5
S'v. obtain by force'
p6087
ssS'ramble'
p6088
(dp6089
g3
g4
sg5
S'v. to talk on and on pointlessly'
p6090
ssS'insipid'
p6091
(dp6092
g3
g12
sg5
S'lacking in flavor; dull'
p6093
ssS'coquette'
p6094
(dp6095
g9
(lp6096
S'28/07/2015'
p6097
aI15
asg3
g12
sg5
S'woman who flirts'
p6098
ssS'mercenary'
p6099
(dp6100
g3
g4
sg5
S'motivated by money'
p6101
ssS'abhor'
p6102
(dp6103
g3
g4
sg5
S'hate'
p6104
ss.