(dp0
S'voluble'
p1
S'fluent, verbal, having easy use of spoken language'
p2
sS'gossamer'
p3
S'sheer; light and delicate; like cobwebs'
p4
sS'dissolution'
p5
S'disintegration;debauchery'
p6
sS'pejorative'
p7
S'adj. insulting'
p8
sS'elegy'
p9
S'poem or song expressing lamentation'
p10
sS'tenuous'
p11
S'weak, insubstantial'
p12
sS'mirage'
p13
S'something illusionary'
p14
sS'minuscule'
p15
S'very small'
p16
sS'excoriate'
p17
S'v. criticize angrily'
p18
sS'etymology'
p19
S'origin and history of a word'
p20
sS'sinew'
p21
S'vigorous strength, muscular power or the source thereof'
p22
sS'rankle'
p23
S'(v.) to cause anger, irritation, or bitterness (with the suggestion that the pain grows worse with time)'
p24
sS'portentous'
p25
S'adj. acting as a sign for the future'
p26
sS'plaintive'
p27
S'melancholy; mournful'
p28
sS'conjecture'
p29
S'Surmise; guess'
p30
sS'vociferous'
p31
S'adj: loud; boisterous'
p32
sS'intercessor'
p33
S"n. someone who steps in on another's behalf"
p34
sS'stipulate'
p35
S'to specify as an essential condition'
p36
sS'eugenics'
p37
S'study of factors that influence the hereditary qualities of the human race and ways to improve those qualities'
p38
sS'anemic'
p39
S'lacking force, vitality, or spirit(sapless, feeble, decrepit, wan, pale, pallid, effete, lethargic)'
p40
sS'embroider'
p41
S'Decorate with needlework; ornament with fancy or fictitious details'
p42
sS'protean'
p43
S'adj. constantly changing'
p44
sS'grueling'
p45
S'very tiring and exhausting'
p46
sS'turpitude'
p47
S'Depravity'
p48
sS'vitriolic'
p49
S'adj. highly corrosive, bitterly scathing, caustic, virulent'
p50
sS'enhance'
p51
S'to increase; improve'
p52
sS'nondescript'
p53
S'Ordinary'
p54
sS'veritable'
p55
S'true'
p56
sS'pragmatic'
p57
S'practical'
p58
sS'concise'
p59
S'adj. to the point; expressing a lot in a few words(brevity)'
p60
sS'reprehension'
p61
S'n. telling off'
p62
sS'scrutinize'
p63
S'v. examine closely'
p64
sS'tangential'
p65
S'peripheral, irrelevant, digressing'
p66
sS'valiant'
p67
S'Bold; courageous; stouthearted; heroic'
p68
sS'tether'
p69
S'(n.) a rope or chain used to fasten something to a fixed object; the outer limit of strength or resources; (v.) to fasten with a rope or chain'
p70
sS'sterile'
p71
S'uncontaminated; pure; infertile'
p72
sS'decadence'
p73
S'decline, decay, or deterioration; a condition or period of decline or decay; excessive self-indulgence'
p74
sS'jocular'
p75
S'adj. in a jokey spirit(not jocund)'
p76
sS'malleable'
p77
S'able to be hammered or pressed permanently out of shape without breaking or cracking'
p78
sS'insinuate'
p79
S'to suggest; say indirectly; imply'
p80
sS'maverick'
p81
S'dissenter'
p82
sS'halcyon'
p83
S'calm and peaceful; happy; golden; prosperous'
p84
sS'prate'
p85
S'to talk idly; chatter'
p86
sS'evanescent'
p87
S'Fleeting; vanishing,ephemeral'
p88
sS'recessive'
p89
S'adj. not dominant'
p90
sS'connoisseur'
p91
S'expert in matters of taste; expert knowledge or training'
p92
sS'etiology'
p93
S'causes or origins'
p94
sS'harass'
p95
S'v. bother'
p96
sS'leaven'
p97
S'v. add yeast to'
p98
sS'upbraid'
p99
S'v. to scold bitterly'
p100
sS'anarchist'
p101
S'n. one who believes in lawless society(chaos,disarray)'
p102
sS'intrigue'
p103
S'(n.) crafty dealings, underhanded plotting; (v.) to form and carry out plots; to puzzle or excite the curiosity'
p104
sS'astute'
p105
S'shrewd; keen in judgment'
p106
sS'punctilious'
p107
S'careful in observing rules fo behavior'
p108
sS'stray'
p109
S'move away aimlessly from a group or from the right course or place; desultory, haphzard'
p110
sS'nauseate'
p111
S'Cause to become sick; fill with disgust'
p112
sS'circumvent'
p113
S'find a way around (an obstacle).'
p114
sS'exhort'
p115
S'to urge by strong appeals'
p116
sS'inchoate'
p117
S'imperfectely formed or formulated'
p118
sS'barbarous'
p119
S'savage and uncivilised'
p120
sS'wary'
p121
S'careful, cautious'
p122
sS'mesmerize'
p123
S'to hypnotize'
p124
sS'dogma'
p125
S'n. credo, doctrine,gospel, belief people must accept'
p126
sS'qualm'
p127
S'sudden feeling of faintness or nausea'
p128
sS'adamant'
p129
S'uncompromising; unyielding'
p130
sS'hoax'
p131
S'(n.) Something intended to deceive or trick; (v.) To deceive or trick'
p132
sS'flora'
p133
S'plants of a region or era'
p134
sS'philanthropic'
p135
S'Showing love of mankind through charitable gifts and deeds'
p136
sS'somber'
p137
S'gloomy;stygian'
p138
sS'grovel'
p139
S'(v.) To show submission or fear; To humble oneself'
p140
sS'guise'
p141
S'outward appearance; false appearance'
p142
sS'spendthrift'
p143
S'person who spends money recklessly'
p144
sS'aggrandize'
p145
S'to make larger or greater'
p146
sS'ascetic'
p147
S'one who practices self-denial'
p148
sS'mnemonic'
p149
S'realated to memory; assisting memory'
p150
sS'defer'
p151
S'postpone'
p152
sS'wane'
p153
S'Decrease in size or strength; draw gradually to an end'
p154
sS'refulgent'
p155
S'brightly shining, resplendent'
p156
sS'impair'
p157
S'to damage; injure'
p158
sS'malign'
p159
S'to speak evil of'
p160
sS'simian'
p161
S'apelike, relating to apes'
p162
sS'minutia'
p163
S'petty details'
p164
sS'gargantuan'
p165
S'huge'
p166
sS'obloquy'
p167
S'strong public criticism or verbal abuse. exasperate'
p168
sS'provincial'
p169
S'(adj.) pertaining to an outlying area; local; narrow in mind or outlook, countrified in the sense of being limited and backward; of a simple, plain design that originated in the countryside; (n.) a pe'
p170
sS'impassive'
p171
S'showing no emotion'
p172
sS'farce'
p173
S'an absurd situation'
p174
sS'copious'
p175
S'abundant; plentiful'
p176
sS'debauchery'
p177
S'corruption'
p178
sS'morbid'
p179
S'Moody; given to unwholesome thought'
p180
sS'vicious'
p181
S'(adj.) Hurtful; Intending to harm'
p182
sS'adumbrate'
p183
S'produce an outline or preliminary image; foreshadow'
p184
sS'fracas'
p185
S'a loud quarrel; brawl'
p186
sS'complacent'
p187
S'self-satisfied'
p188
sS'execrable'
p189
S'extremely bad or unpleasant'
p190
sS'austere'
p191
S'stern; unadorned; simple'
p192
sS'retort'
p193
S'v. sharp response;riposte; repartee'
p194
sS'hypnotic'
p195
S'adj. causing trances'
p196
sS'nascent'
p197
S'coming into being; in early developmental stages'
p198
sS'remonstrate'
p199
S'to object or protest'
p200
sS'archaeology'
p201
S'the study of material evidence of past human life'
p202
sS'fetter'
p203
S'to bind; confine'
p204
sS'decant'
p205
S'Gradually pour (liquid, typically wine or a solution) from one container into another, esp. without disturbing the sediment. 2. Empty out; move as if by pouring.'
p206
sS'fortify'
p207
S'v. make stronger'
p208
sS'fable'
p209
S'a story that teaches a lesson'
p210
sS'toady'
p211
S'flatterer, yes-man'
p212
sS'carnal'
p213
S'of the flesh or body; related to physical appetites'
p214
sS'fidelity'
p215
S'loyalty; exact correspondence'
p216
sS'estrange'
p217
S'to cause to stop being friendly, alienate, disaffect, sour, disgruntle'
p218
sS'somnolence'
p219
S'n. the state of being about to fall asleep'
p220
sS'apothegm'
p221
S'a terse, witty saying'
p222
sS'supplicant'
p223
S'one who asks humbly and earnestly'
p224
sS'hirsute'
p225
S'covered with hair'
p226
sS'precipitate'
p227
S'rash; hasty; sudden; done without deliberation'
p228
sS'apogee'
p229
S'the point in an orbit most distant from the body being orbited; the highest point'
p230
sS'imperturbable'
p231
S'not easily disturbed'
p232
sS'affected'
p233
S'pretentious; phony'
p234
sS'entomology'
p235
S'the scientific study of insects'
p236
sS'bane'
p237
S'poison, cause of harm'
p238
sS'lenient'
p239
S'adj. not strict'
p240
sS'ebullient'
p241
S'exhilarated; overly enthusiastic'
p242
sS'acme'
p243
S'(n.) the highest point'
p244
sS'debut'
p245
S'first public appearance'
p246
sS'absolve'
p247
S'v. declare free from responsibility'
p248
sS'herald'
p249
S'a sign that something is about to happen'
p250
sS'capricious'
p251
S'fickle'
p252
sS'lofty'
p253
S'(adj.) Having or displaying great dignity or nobility; grand and elevated'
p254
sS'obdurate'
p255
S'stubborn'
p256
sS'improvise'
p257
S'to deal with things as they come, without planning'
p258
sS'dour'
p259
S'adj. sullen, gloomy'
p260
sS'cartography'
p261
S'science of making maps'
p262
sS'heterodox'
p263
S'not widely accepted'
p264
sS'caustic'
p265
S'burning; stinging; causing corrosion'
p266
sS'ameliorate'
p267
S'to improve'
p268
sS'allay'
p269
S'to lessen; ease; soothe'
p270
sS'contend'
p271
S'to assert'
p272
sS'fraught'
p273
S'adj. filled with anxiety'
p274
sS'urbane'
p275
S'adj. refined in behaviour'
p276
sS'remorse'
p277
S'n. deep regret'
p278
sS'endemic'
p279
S'inherent; belonging to an area'
p280
sS'disinterested'
p281
S'unprejudiced; objective'
p282
sS'eternal'
p283
S'perpetual, ageless, everlasting, immportal, imperishable, perennial, perpetual, undying'
p284
sS'salient'
p285
S'adj. prominent or conspicuous.'
p286
sS'censure'
p287
S'to criticize severely; to officially rebuke'
p288
sS'abate'
p289
S'to decrease; reduce'
p290
sS'jubilant'
p291
S'adj. full of joy'
p292
sS'connive'
p293
S'to cooperate secretly, collude, conspire;'
p294
sS'caprice'
p295
S'Sudden, unexpected fancy; whim'
p296
sS'prodigal'
p297
S'wasteful; extravagant; lavish'
p298
sS'explicate'
p299
S'to explain;interpret;clarify'
p300
sS'unflappable'
p301
S'composed'
p302
sS'penury'
p303
S'extreme poverty'
p304
sS'officious'
p305
S'assertive of authority in an annoyingly domineering way, esp. with regard to petty or trivial matters'
p306
sS'rant'
p307
S'(n.) A loud, violent, or extravagant speech or writing; (v.) To speak or write in a angry or violent manner'
p308
sS'adventitious'
p309
S'resulting from chance rather than from an inherent cause or character; accidental, not essential; (medicine) acquired, not congenital( external, extraneous)'
p310
sS'sarcasm'
p311
S'biting and often ironic and caustic remarks or attitude'
p312
sS'indeterminate'
p313
S'uncertain; indefinite'
p314
sS'euphoria'
p315
S'feeling of extreme happiness'
p316
sS'centripetal'
p317
S'moving or directed toward a center'
p318
sS'motility'
p319
S'_ is a biological term which refers to the ability to move spontaneously and actively, consuming energy in the process (sperm, egg).'
p320
sS'flippant'
p321
S'Lacking seriousness'
p322
sS'analgesic'
p323
S'medication that reduces or eliminates pain'
p324
sS'postulate'
p325
S'essential premise; underlying assumption'
p326
sS'filibuster'
p327
S'use of obstructive tactics in a legislature to block passage of a law'
p328
sS'reparation'
p329
S'amends, compensation'
p330
sS'compunction'
p331
S'uneasiness caused by guilt'
p332
sS'reprobate'
p333
S'morally unprincipled person'
p334
sS'paltry'
p335
S'trifling, insignificant; mean, despicable'
p336
sS'esoteric'
p337
S'hard to understand; known only to a few'
p338
sS'embellish'
p339
S'to adorn; enhance'
p340
sS'stoic'
p341
S'unemotional, resigned to the motions of fate'
p342
sS'requisite'
p343
S'adj. necessary'
p344
sS'rebuff'
p345
S'(v.)reject (someone or something) in an abrupt or ungracious manner  to snub; to repel, drive away; (n.) a curt rejection, a check'
p346
sS'sidereal'
p347
S'relating to the stars'
p348
sS'guile'
p349
S'(n) deceit, treachery, insidious cunning, slyness, a trick'
p350
sS'coronation'
p351
S'n. crowning of a monarch'
p352
sS'medley'
p353
S'n. mixture'
p354
sS'stratified'
p355
S'arranged in layers'
p356
sS'espouse'
p357
S'Adopt; support'
p358
sS'exorcise'
p359
S'to expel evil spirits; free from bad influences'
p360
sS'threadbare'
p361
S'(adj.) Overused to the point of being worn out; shabby'
p362
sS'seminal'
p363
S'influential, at the beginning of a trend or movement'
p364
sS'temporize'
p365
S'to stall or act evasively in order to gain time, avoid a confrontations, or postpone a decision; to compromise'
p366
sS'torque'
p367
S'a turning or twisting force'
p368
sS'spectrum'
p369
S'band of color, broad range of related ideas or objects'
p370
sS'lull'
p371
S'to soothe or calm; to deceive into trustfulness'
p372
sS'cadge'
p373
S'to beg; sponge'
p374
sS'spect'
p375
S'see, look'
p376
sS'reprieve'
p377
S'a respite; postponement of a sentence'
p378
sS'relapse'
p379
S'v. fall into a previously rejected behaviour'
p380
sS'prehensile'
p381
S'capable of grasping'
p382
sS'uncouth'
p383
S'(adj.) Crude or unrefined; Lacking refinement'
p384
sS'divulge'
p385
S'to make known something that is secret'
p386
sS'insularity'
p387
S'narrow-mindedness; isolation'
p388
sS'propitious'
p389
S'giving or indicating a good chance of success; favorable'
p390
sS'imprudent'
p391
S'adj. not caring about the consequences of an action'
p392
sS'inured'
p393
S'hardened; accustomed; used to'
p394
sS'salubrious'
p395
S'healthful'
p396
sS'lucre'
p397
S'money or profits'
p398
sS'timidity'
p399
S'Lack of self-confidence or courage'
p400
sS'germane'
p401
S'relevant; appropriate'
p402
sS'prohibitive'
p403
S'so high as to prevent the purchase or use of, forbidding'
p404
sS'encomium'
p405
S'a formal expression of praise'
p406
sS'venial'
p407
S'adj. not serious'
p408
sS'exonerate'
p409
S'to free somebody from blame or guilt'
p410
sS'peevish'
p411
S'adj. easily angered'
p412
sS'mitigate'
p413
S'alleviate; to become less severe'
p414
sS'predilection'
p415
S'a disposition in favor of something; preference'
p416
sS'impostor'
p417
S'(n.) Someone who assumes a false identity'
p418
sS'nettle'
p419
S'annoy; vex;exasperate'
p420
sS'consummate'
p421
S'having or revealing supreme mastery or skill'
p422
sS'scotch'
p423
S'Suppress, thwart, to put an end to'
p424
sS'marvel'
p425
S'n. amazing thing'
p426
sS'incorporate'
p427
S'introduce something into another thing already in existence'
p428
sS'bait'
p429
S'vt. to persecute or exasperate with unjust, malicious, or persistent attacks,( badger, annoy, badger,heckle, harass)'
p430
sS'sage'
p431
S'wise'
p432
sS'precarious'
p433
S'uncertain'
p434
sS'lurch'
p435
S'to lean or pitch suddenly to one side, to stagger or sway'
p436
sS'dupe'
p437
S'to deceive; trick'
p438
sS'appease'
p439
S'to calm, pacify, placate'
p440
sS'capitulate'
p441
S'to surrender'
p442
sS'latent'
p443
S'dormant; potential not apparent'
p444
sS'hoary'
p445
S'gray white from age; old'
p446
sS'itinerant'
p447
S'wandering from place to place; unsettled'
p448
sS'abjure'
p449
S'to reject; abandon formally'
p450
sS'bliss'
p451
S'Extreme happiness or joy'
p452
sS'wizened'
p453
S'(adj.) dry, shrunken, and wrinkled (often as the result of aging)'
p454
sS'hoard'
p455
S'(n.) A secret store of valuables or money; (v.) To accumulate by saving'
p456
sS'ardor'
p457
S'great emotion or passion'
p458
sS'raiment'
p459
S'clothing'
p460
sS'spurn'
p461
S'reject; scorn'
p462
sS'smug'
p463
S'(adj.) Highly self-satisfied; So pleased with yourself that you annoy other people'
p464
sS'relish'
p465
S'Savor; enjoy'
p466
sS'treatise'
p467
S'article treating a subject systematically and thoroughly'
p468
sS'overbearing'
p469
S'unpleasantly or arrogantly domineering.'
p470
sS'igneous'
p471
S'produced by fire; volcanic'
p472
sS'suffrage'
p473
S'the right to vote'
p474
sS'collusion'
p475
S'secret agreement or cooperation'
p476
sS'egoism'
p477
S'the tendency to see things in relation to oneself; self-centeredness'
p478
sS'labile'
p479
S'likely to change'
p480
sS'unwitting'
p481
S'unintentional'
p482
sS'peripheral'
p483
S'of, relating to, or situated on the edge or periphery of something'
p484
sS'rivulet'
p485
S'n. very small stream'
p486
sS'allure'
p487
S'the power to entice by charm'
p488
sS'sporadic'
p489
S'irregular'
p490
sS'nocturnal'
p491
S'adj. active at night'
p492
sS'diffidence'
p493
S'shyness; lack of confidence'
p494
sS'accede'
p495
S'approve, consent to'
p496
sS'exponent'
p497
S'n. believer in, advocator, booster, espouser,'
p498
sS'jocose'
p499
S'fond of joking; jocular'
p500
sS'extol'
p501
S'praise in the highest terms'
p502
sS'abeyance'
p503
S'temporary suppression or suspension'
p504
sS'bracing'
p505
S'Invigorating; energizing; stimulating'
p506
sS'lethargic'
p507
S'inactive; sluggish; dull'
p508
sS'credo'
p509
S'statement of belief or principle; creed'
p510
sS'aesthetic'
p511
S'relating to beauty or the arts'
p512
sS'contort'
p513
S'twist; bend,distort'
p514
sS'posit'
p515
S'assume as a fact; put forward as a basis of argument'
p516
sS'devout'
p517
S'adj. serious in the practicing of religion'
p518
sS'veer'
p519
S'Change in direction'
p520
sS'disdain'
p521
S'Strong dislike'
p522
sS'amble'
p523
S'(n.) A slow walk or gentle pace; (v.) To walk slowly or leisurely( stroll, friendly, sociable)'
p524
sS'estimable'
p525
S'admirable; possible to estimate'
p526
sS'incense'
p527
S'Enrage; infuriate, aggravate, enrage, inflame, infuriate, madden, outrage, rile, roil, rankle,exasperate'
p528
sS'disengage'
p529
S'Separate'
p530
sS'didactic'
p531
S'instructive, having an educational purpose'
p532
sS'insouciant'
p533
S'indifferent; lacking concern or care'
p534
sS'pertinacious'
p535
S'stubborn; persistent'
p536
sS'stygian'
p537
S'dark and gloomy, hellish'
p538
sS'tinge'
p539
S'color slightly'
p540
sS'incessant'
p541
S'unceasing'
p542
sS'inquisitive'
p543
S'adj. curious, questioning'
p544
sS'maudlin'
p545
S'adj. tearfully or weakly emotional; foolishly sentimental'
p546
sS'infirm'
p547
S'adj. frail due to poor health'
p548
sS'oblivious'
p549
S'not aware of or not concerned about what is happening around one.'
p550
sS'aspersion'
p551
S'slander; false rumor'
p552
sS'subside'
p553
S'to settle down, grow quiet'
p554
sS'sumptuous'
p555
S'costly, rich, magnificent'
p556
sS'wheedle'
p557
S'to use coaxing or flattery to gain some desired end'
p558
sS'efficacy'
p559
S'effectiveness; efficiency'
p560
sS'dismiss'
p561
S'put away from consideration; reject'
p562
sS'disgruntle'
p563
S'to make discontented'
p564
sS'decrepit'
p565
S'poor health'
p566
sS'kudos'
p567
S'fame; glory; honor'
p568
sS'demotic'
p569
S'pertaining to people'
p570
sS'imbroglio'
p571
S'complicated situation; an entanglement'
p572
sS'surreptitious'
p573
S'adj. secretive'
p574
sS'clairvoyant'
p575
S'one who can predict the future; psychic'
p576
sS'chicanery'
p577
S'trickery; fraud'
p578
sS'vendetta'
p579
S'prolonged feud marked by bitter hostility'
p580
sS'apprehension'
p581
S'state of unease about the near future'
p582
sS'dissect'
p583
S'v. cut up to study internal parts'
p584
sS'pungent'
p585
S'penetrating, caustic, to the point'
p586
sS'apocryphal'
p587
S'adj. probably untrue'
p588
sS'itinerary'
p589
S"route of a traveler's journey"
p590
sS'convalesce'
p591
S'v. get better after a disease or injury'
p592
sS'subjugate'
p593
S'Conquer'
p594
sS'prostrate'
p595
S'adj. lying face down'
p596
sS'mangle'
p597
S'(v.) To injure severely, disfigure, or mutilate by cutting, slashing, or crushing'
p598
sS'concomitant'
p599
S'existing concurrently'
p600
sS'recuperate'
p601
S'recover from illness or exertion'
p602
sS'cant'
p603
S'insincere talk; language of a particular group'
p604
sS'lugubrious'
p605
S'looking or sounding sad and dismal.'
p606
sS'euthanasia'
p607
S'mercy killing'
p608
sS'stint'
p609
S'to be sparing'
p610
sS'rapprochement'
p611
S'reconciliation, resumption of friendly relations'
p612
sS'grandiose'
p613
S'pretentious and pompous'
p614
sS'cogent'
p615
S'Convincing'
p616
sS'indigence'
p617
S'poverty'
p618
sS'haphazard'
p619
S'adj. done in a not very systematic way'
p620
sS'vicissitude'
p621
S'a change of circumstances or fortune, typically one that is unwelcome or unpleasant'
p622
sS'contaminate'
p623
S'v. make something impure,adulterate'
p624
sS'sodden'
p625
S'thoroughly soaked, saturated'
p626
sS'jocund'
p627
S'merry; jolly(not jocular)'
p628
sS'inadvertently'
p629
S'carelessly; unintentionally'
p630
sS'rail'
p631
S'to scold with bitter or abusive language'
p632
sS'dexterous'
p633
S'(adj.) skillful in the use of hands or body; clever'
p634
sS'palpable'
p635
S'tangible'
p636
sS'overt'
p637
S'done or shown openly; plainly or readily apparent, not secret or hidden'
p638
sS'peremptory'
p639
S'imperative; leaving no choice'
p640
sS'taint'
p641
S'Contaminate; cause to lose purity'
p642
sS'berate'
p643
S'v. scold angrily'
p644
sS'ragged'
p645
S'old and torn.'
p646
sS'approbation'
p647
S'praise, approval'
p648
sS'subpoena'
p649
S'notice ordering someone to appear in court'
p650
sS'impertinent'
p651
S'Insolent; rude;impudent'
p652
sS'cataclysm'
p653
S'a violent upheaval that causes great destruction and change'
p654
sS'bonhomie'
p655
S'n. cheerfulness(affability, geniality, amiability)'
p656
sS'mingle'
p657
S'v mix or cause to mix together.'
p658
sS'olfactory'
p659
S'concerning the sense of smell'
p660
sS'repose'
p661
S'Rest; tranquility; relaxation'
p662
sS'plight'
p663
S'bad situation'
p664
sS'propitiate'
p665
S'to win over, appease'
p666
sS'convivial'
p667
S'sociable'
p668
sS'exalt'
p669
S'v. to praise or glorify'
p670
sS'alchemy'
p671
S'medieval chemical philosophy based on changing metal into gold; a seemingly magical power or process of transmutation'
p672
sS'affinity'
p673
S'fondness; liking; similarity'
p674
sS'falter'
p675
S'(v.) to hesitate, stumble, lose courage; to speak hesitatingly; to lose drive, weaken, decline'
p676
sS'salacious'
p677
S'lascivious, lustful'
p678
sS'paleontology'
p679
S'study of past geological eras through fossil remains'
p680
sS'mollycoddle'
p681
S'treat (someone) very indulgently or protectively. Pamper; spoil'
p682
sS'perfunctory'
p683
S'superficial; performed really as a duty'
p684
sS'effulgent'
p685
S'adj. shining brightly, splendid'
p686
sS'fusion'
p687
S'union; synthesis'
p688
sS'pithy'
p689
S'(adj.) short but full of meaning and point'
p690
sS'bucolic'
p691
S'characteristic of the countryside; rustic; pastoral'
p692
sS'diaphanous'
p693
S'transparent; vague; insubstancial'
p694
sS'squander'
p695
S'to waste by spending or using irresponsibly'
p696
sS'detraction'
p697
S'the act of taking away'
p698
sS'macabre'
p699
S'adj. grisly, shocking'
p700
sS'accost'
p701
S'v. approach with a request or insult(Applause)'
p702
sS'archetype'
p703
S'n. very typical example'
p704
sS'cede'
p705
S'v. give up control of'
p706
sS'matriculate'
p707
S'Enroll (in college)'
p708
sS'preeminence'
p709
S'Superiority.'
p710
sS'flounder'
p711
S'(v.) To move or act clumsily and in confusion; To have great difficulty with something'
p712
sS'periphery'
p713
S'the outer limits or edge of an area or object'
p714
sS'discerning'
p715
S'perceptive; exhibiting keen insight and good judgement'
p716
sS'jejune'
p717
S'without interest or significance'
p718
sS'elucidate'
p719
S'to explain something'
p720
sS'enunciate'
p721
S'to pronounce clearly'
p722
sS'anomalous'
p723
S'irregular; deviating from the norm'
p724
sS'blithe'
p725
S'n. joyous, carefree, merry'
p726
sS'inveigh'
p727
S'to disapprove; protest vehemently'
p728
sS'rebus'
p729
S'puzzle in which pictures or symbols represent words'
p730
sS'abet'
p731
S'help, assist'
p732
sS'raconteur'
p733
S'witty, skillful storyteller'
p734
sS'swelter'
p735
S'Oppressed by heat'
p736
sS'formidable'
p737
S'menacing; threatening'
p738
sS'munificent'
p739
S'adj. very generous'
p740
sS'slipshod'
p741
S'untidy, slovenly;(typically of a person or method of work) characterized by a lack of care, thought, or organization'
p742
sS'valedictory'
p743
S'pertaining to a farewell'
p744
sS'mettle'
p745
S'courage; endurance'
p746
sS'repudiate'
p747
S'to reject as having no authority'
p748
sS'unpretentious'
p749
S'not showing the quality of people who want to be regarded as more important'
p750
sS'abysmal'
p751
S'very bad'
p752
sS'sundry'
p753
S'various'
p754
sS'heinous'
p755
S'grossly wicked; vile; odious'
p756
sS'catalyst'
p757
S'something that causes change'
p758
sS'squalid'
p759
S'adj. dirty, unpleasant'
p760
sS'restive'
p761
S'adj. restless, antsy'
p762
sS'vagary'
p763
S'An erratic, unpredictable action; idea; whim; wild notion'
p764
sS'invincible'
p765
S'adj. too powerful to be overcome'
p766
sS'bellwether'
p767
S'male sheep that leads the flock to the slaughterhouse, ringleader'
p768
sS'encumber'
p769
S'hold back; restrain'
p770
sS'ballad'
p771
S'n. song with a number of verses'
p772
sS'pontificate'
p773
S'to speak pompously and at length'
p774
sS'digression'
p775
S'act of straying from the main point'
p776
sS'liberal'
p777
S'tolerant; broad-minded'
p778
sS'covert'
p779
S'hidden; secret'
p780
sS'pedagogue'
p781
S'a teacher, especially a strict or pedantic one.'
p782
sS'mediocre'
p783
S'adj. average quality'
p784
sS'incursion'
p785
S'sudden invasion'
p786
sS'levity'
p787
S'light manner or attitude'
p788
sS'redolent'
p789
S'fragment, smelling strongly; tending to arouse memories or create an aura'
p790
sS'junta'
p791
S'group of people united in political intrigue'
p792
sS'bumptious'
p793
S'adj. arrogantly noisy'
p794
sS'desecrate'
p795
S'treat (a sacred place or thing) with violent disrespect.'
p796
sS'congeal'
p797
S'to change from liquid to solid, thicken; to make inflexible or rigid(coagulate'
p798
sS'tardy'
p799
S'slow, slate'
p800
sS'nuance'
p801
S'something subtle, a fine shade of meaning'
p802
sS'raffish/rakish'
p803
S'Cheaply or showily vulgar in appearance or nature; tawdry. (ostentatious)'
p804
sS'truncate'
p805
S'v. make shorter'
p806
sS'sprawl'
p807
S'To spread out in an irregular manner.'
p808
sS'palmy'
p809
S'(especially of a previous period of time) flourishing or successful'
p810
sS'infatuate'
p811
S'to inspire with a foolish passion; to make foolish'
p812
sS'sensuous'
p813
S'relating to the senses'
p814
sS'trepidation'
p815
S'fear and anxiety'
p816
sS'hieroglyphics'
p817
S'a system of writing in which pictorial symbols represent meanings or sounds; wirting or symbols that are difficult to decipher'
p818
sS'microcosm'
p819
S'a small system having analogies to a larger system'
p820
sS'exigent'
p821
S'urgent, pressing; requiring immediate action or attention'
p822
sS'accolade'
p823
S'n. words of praise'
p824
sS'ramification'
p825
S'implication, consequence'
p826
sS'grisly'
p827
S'gory'
p828
sS'meander'
p829
S'v. wind and turn while proceeding in a course'
p830
sS'necromancy'
p831
S'black magic'
p832
sS'obviate'
p833
S'to make unnecessary; to anticipate and prevent'
p834
sS'recidivism'
p835
S'Habitual return to crime'
p836
sS'idolatry'
p837
S'idol worship; blind or excessive devotion'
p838
sS'recluse'
p839
S'person who lives in seclusion and often in solitude'
p840
sS'tenable'
p841
S'Capable of being held or used; capable of being defended against an attack or objection.'
p842
sS'turbid'
p843
S'muddy, opaque, in a state of great confusion'
p844
sS'indolent'
p845
S'habitually lazy; idle'
p846
sS'doggerel'
p847
S'poor verse'
p848
sS'deject'
p849
S'v. make to feel bad'
p850
sS'quash'
p851
S'reject or void, especially by legal procedure; to crush; quell'
p852
sS'analogous'
p853
S'comparable'
p854
sS'tenacious'
p855
S'tending to keep a firm hold of something; clinging or adhering closely'
p856
sS'antediluvian'
p857
S'prehistoric'
p858
sS'blase'
p859
S'bored because of frequent indulgence; unconcerned'
p860
sS'votary'
p861
S'n. person who has vows of dedication to a religious service'
p862
sS'convoke'
p863
S'call together'
p864
sS'untenable'
p865
S'indefensible'
p866
sS'waylay'
p867
S'(v.) To lie in wait for and attack; To ambush'
p868
sS'exact'
p869
S'to force the payment of; demand and obtain by authority'
p870
sS'feeble'
p871
S'physically or mentally weak(foible)'
p872
sS'minute'
p873
S'Very small'
p874
sS'din'
p875
S'n. ongoing loud sound; noise'
p876
sS'camaraderie'
p877
S'n. trust among friends'
p878
sS'levee'
p879
S'en embankment that prevents a river from overflowing'
p880
sS'discrete'
p881
S'constituing a separate thing; distinct'
p882
sS'invidious'
p883
S'likely to provoke ill will'
p884
sS'turgid'
p885
S'swollen, pompous'
p886
sS'burgeon'
p887
S'to grow and flourish'
p888
sS'anesthetic'
p889
S'n. chemical that causes numbing'
p890
sS'plummet'
p891
S'to fall; plunge'
p892
sS'collage'
p893
S'artistic composition of materials pasted over a surface; an assemblage of diverse elements'
p894
sS'inconsequential'
p895
S'insignificant; unimportant'
p896
sS'adulation'
p897
S'a show of excessive admiration or devotion'
p898
sS'slake'
p899
S"(v.) To satisfy or quench; To relieve or bring to an end'"
p900
sS'stupefy'
p901
S'to dull the senses of, stun, astonish'
p902
sS'sordid'
p903
S'filthy, contemptible and corrupt'
p904
sS'acrimonious'
p905
S'Bitter in words or manner( Embittered, Resentful)'
p906
sS'calumniate'
p907
S'to slander; to accuse falsely and maliciously'
p908
sS'continence'
p909
S'self-control; abstention from sexual activity'
p910
sS'havoc'
p911
S'disorder of chaos'
p912
sS'commensurate'
p913
S'proportional'
p914
sS'subterfuge'
p915
S'Use of tricks especially to hide, avoid, or get something'
p916
sS'abscond'
p917
S'to depart secretly'
p918
sS'hermetic'
p919
S'tighly sealed; magical'
p920
sS'mellifluous'
p921
S'adj. flowing like honey'
p922
sS'ingenuous'
p923
S'naive and trusting; lacking sophistication'
p924
sS'fractious'
p925
S'quarrelsome; unruly; rebellious'
p926
sS'splice'
p927
S'unite'
p928
sS'decipher'
p929
S'v. figure out'
p930
sS'rue'
p931
S'regret'
p932
sS'buck'
p933
S'to oppose something in a direct way'
p934
sS'precursor'
p935
S'forerunner; predecessor'
p936
sS'disavow'
p937
S'deny'
p938
sS'somatic'
p939
S'relating to or affecting the body, corporeal'
p940
sS'machiavellian'
p941
S'crafty; double-dealing'
p942
sS'equable'
p943
S'steady; unvarying; serene'
p944
sS'tutelary'
p945
S'serving as a guardian or protector'
p946
sS'insolent'
p947
S'adj. willing to talk back to authority; rude'
p948
sS'defile'
p949
S'(v., trans.) to make unclean or dirty, destroy the purity of; (v., intrans.) to march in a single line or in columns; (n.) a narrow passage; gorge, canyon'
p950
sS'erudite'
p951
S'learned; scholarly'
p952
sS'paragon'
p953
S'model of perfection or excellence'
p954
sS'abash'
p955
S'embarrass; perplex; baffle(abase)'
p956
sS'stingy'
p957
S'adj. not generous;parsimonious'
p958
sS'abase'
p959
S'lower; humiliate(abash)'
p960
sS'dolorous'
p961
S'adj. full of sorrow'
p962
sS'concoct'
p963
S'to invent'
p964
sS'subvert'
p965
S'to overthrow'
p966
sS'captivate'
p967
S'v. hold the attention of'
p968
sS'complaisant'
p969
S'overly polite; willingness to comply with the wishes of others'
p970
sS'coalesce'
p971
S'to cause to become one'
p972
sS'contrite'
p973
S'very sorrowful for a wrong; seeking forgiveness'
p974
sS'noisome'
p975
S'having an extremely offensive smell.'
p976
sS'dismay'
p977
S'discourage somebody'
p978
sS'bombastic'
p979
S'pompous; using inflated language'
p980
sS'muffle'
p981
S'v. make quiet'
p982
sS'reprise'
p983
S'repetition, especially of a piece of music'
p984
sS'conspire'
p985
S'Conspiracy; plan illegally, connive'
p986
sS'preponderance'
p987
S'n. the state of being more in number'
p988
sS'hubris'
p989
S'n. the state of someone getting their comeuppance'
p990
sS'stature'
p991
S'hieght'
p992
sS'fauna'
p993
S'animals of a period o region'
p994
sS'eclectic'
p995
S'selecting from various sources'
p996
sS'nexus'
p997
S'a means of connection; a center'
p998
sS'phlegmatic'
p999
S'unemotional; calm in temperament'
p1000
sS'avocation'
p1001
S'secondary occupation'
p1002
sS'regale'
p1003
S'to entertain'
p1004
sS'impermeable'
p1005
S'impossible to permeate'
p1006
sS'serendipity'
p1007
S'n. happy coincidence'
p1008
sS'bigot'
p1009
S'bekrompen, bevooroordeeld persoon(dogmatist, partisan)'
p1010
sS'savor'
p1011
S'to enjoy, have a distinctive flavor or smell'
p1012
sS'meager'
p1013
S'adj. scanty, inadequate'
p1014
sS'immune'
p1015
S'adj. resistant'
p1016
sS'cardinal'
p1017
S'of foremost importance'
p1018
sS'irascible'
p1019
S'easily angered'
p1020
sS'cavil'
p1021
S'make petty of unnecessary objections'
p1022
sS'ductile'
p1023
S'Malleable; flexible; pliable'
p1024
sS'paramount'
p1025
S'adj. supremely important'
p1026
sS'brazen'
p1027
S'bold; shameless'
p1028
sS'countermand'
p1029
S'to cancel or reverse one order or command with another that is contrary to the first'
p1030
sS'wistful'
p1031
S'vaguely longing, sadly thoughtful'
p1032
sS'hedonism'
p1033
S'the pursuit of or devotion to pleasure; seeking pleasure of the senses'
p1034
sS'coagulate'
p1035
S'thicken; congeal'
p1036
sS'flourish'
p1037
S'en embellishment or ornamentation'
p1038
sS'egotistical'
p1039
S'excessively self-centered; conceited'
p1040
sS'relinquish'
p1041
S'to retire from'
p1042
sS'cosmology'
p1043
S'study of the universe as a totality; theory of the origin and structure of the universe'
p1044
sS'propriety'
p1045
S'correct conduct, fitness'
p1046
sS'pulchritude'
p1047
S'n. beauty'
p1048
sS'bungle'
p1049
S'v. make a mess of(exacerbate)'
p1050
sS'innocuous'
p1051
S'harmless'
p1052
sS'canard'
p1053
S'false; deliberately misleading story'
p1054
sS'arabesque'
p1055
S'ornate design featuring intertwined curves; a ballet position in which one leg is extended in back while the other supports the weight of the body'
p1056
sS'dyspeptic'
p1057
S'adj. bad-tempered having an upset stomach'
p1058
sS'irresolute'
p1059
S'unsure of how to act; weak'
p1060
sS'avid'
p1061
S'adj. showing enthusiasm'
p1062
sS'relegate'
p1063
S'to consign to an inferior position'
p1064
sS'haughty'
p1065
S'adj. hauteur,arrogant, condescending'
p1066
sS'apex'
p1067
S'the highest point'
p1068
sS'sylvan'
p1069
S'related to the woods or forest'
p1070
sS'satyr'
p1071
S'a creature that is half-man, half beast, with the horns and legs of a goat'
p1072
sS'antipathy'
p1073
S'dislike; hostility'
p1074
sS'sate'
p1075
S'satisfy (a desire or an appetite) to the full'
p1076
sS'tonic'
p1077
S'refreshing'
p1078
sS'disparate'
p1079
S'dissimilar'
p1080
sS'amulet'
p1081
S'ornament worn as a charm against evil spirits'
p1082
sS'cloying'
p1083
S'adj. excessively sweet'
p1084
sS'qualified'
p1085
S'limited, restricted'
p1086
sS'pinnacle'
p1087
S'n. highest point'
p1088
sS'expedite'
p1089
S'to make easy, cause to progress faster'
p1090
sS'rescind'
p1091
S'to cancel'
p1092
sS'occult'
p1093
S'relating to practices connected with supernatural phenomena'
p1094
sS'minatory'
p1095
S'threatening; menacing'
p1096
sS'peregrination'
p1097
S'wandering from place to place'
p1098
sS'placate'
p1099
S'soothe; pacify'
p1100
sS'deify'
p1101
S'v. worship'
p1102
sS'furtive'
p1103
S'done slyly or stealthily, sneaky, secret, shifty; stolen'
p1104
sS'vexation'
p1105
S'irritation, annoyance'
p1106
sS'vogue'
p1107
S'prevailing fashion or practice'
p1108
sS'menagerie'
p1109
S'a variety of animals kept together'
p1110
sS'grouse'
p1111
S'to complain'
p1112
sS'treacherous'
p1113
S'adj. untrustworthy'
p1114
sS'bovine'
p1115
S'cowlike'
p1116
sS'inopportune'
p1117
S'Untimely; poorly chosen'
p1118
sS'supplant'
p1119
S'to replace, substitute'
p1120
sS'aloof'
p1121
S'not desiring to associate with others'
p1122
sS'flaccid'
p1123
S'(adj.) limp, not firm; lacking vigor or effectiveness'
p1124
sS'antagonist (n)'
p1125
S'an opponent, adversary, an opposing force'
p1126
sS'abide'
p1127
S'endure'
p1128
sS'dire'
p1129
S'very bad'
p1130
sS'condole'
p1131
S'v. express sympathy for someone'
p1132
sS'nominal'
p1133
S'appearing in name only; negligible or of low amount'
p1134
sS'imperative'
p1135
S'adj. very important'
p1136
sS'viable'
p1137
S'practicable, capable of developing'
p1138
sS'insular'
p1139
S'isolated'
p1140
sS'ascendant'
p1141
S'adj. rising in power'
p1142
sS'virtuoso'
p1143
S'someone with master skills, expert musician'
p1144
sS'gaffe'
p1145
S'tavla, blunder'
p1146
sS'ominous'
p1147
S'adj. relating to an evil omen'
p1148
sS'vestige'
p1149
S'n. remnant'
p1150
sS'homily'
p1151
S'sermon; tedious moralizing lecture'
p1152
sS'pundit'
p1153
S'one who gives expert opinions'
p1154
sS'vehemently'
p1155
S'adv. marked by intense force or emotion'
p1156
sS'quibble'
p1157
S'to argue over insignificant and irrelevant details'
p1158
sS'desultory'
p1159
S'random; disconnected; rambling'
p1160
sS'exotic'
p1161
S'strikingly different'
p1162
sS'feign'
p1163
S'to pretend something'
p1164
sS'petulant'
p1165
S'rude; peevish'
p1166
sS'clumsy'
p1167
S'adj. always breaking things'
p1168
sS'consecrate'
p1169
S'to declare sacred'
p1170
sS'languish'
p1171
S'v. grow weak'
p1172
sS'impetuous'
p1173
S'impulsive, characterized by sudden or rash action'
p1174
sS'categorical'
p1175
S'absolute; without exception'
p1176
sS'murky'
p1177
S'dark and gloomy, obscure; lacking in clarity and precision; stygian'
p1178
sS'callous'
p1179
S'thick-skinned; insensitive'
p1180
sS'purloin'
p1181
S'steal'
p1182
sS'lambaste'
p1183
S'to trash verbally or physically'
p1184
sS'convention'
p1185
S'practice widely observed in a group; custom; accepted technique or device'
p1186
sS'daunt'
p1187
S'to discourage; intimidate; dishearten'
p1188
sS'artless'
p1189
S'guileless; natural'
p1190
sS'gaudy'
p1191
S'Excessively showy or extravagant.'
p1192
sS'soporific'
p1193
S'sleep producing'
p1194
sS'artifact'
p1195
S'item made by human craft'
p1196
sS'disabuse'
p1197
S'free from a misconception'
p1198
sS'interdict'
p1199
S'to forbid; prohibit'
p1200
sS'enigma'
p1201
S'puzzle, mystery'
p1202
sS'sextant'
p1203
S'navigation tool that determines latitude and longitude'
p1204
sS'heretical'
p1205
S'adj. departing from accepted beliefs or standards, oppositional'
p1206
sS'infiltrate'
p1207
S'(v.) to pass through or gain entrance to gradually or stealthily'
p1208
sS'coax'
p1209
S'Influence or persuade by talking in a gentle and friendly way'
p1210
sS'tawdry'
p1211
S'adj. cheap and dirty'
p1212
sS'cower'
p1213
S'v. hunch over in fear, to cringer in fear'
p1214
sS'quotidian'
p1215
S'adj. happening every day'
p1216
sS'distill'
p1217
S'extract the essential elements'
p1218
sS'savant'
p1219
S'n. person with a particularly developed knowledge or skill'
p1220
sS'sere'
p1221
S'withered, dry'
p1222
sS'blandishment'
p1223
S'flattery'
p1224
sS'impinge'
p1225
S'to strike; encroach'
p1226
sS'profuse'
p1227
S'(especially of something offered or discharged) exuberantly plentiful; abundant'
p1228
sS'sublime'
p1229
S'noble'
p1230
sS'contentious'
p1231
S'quarrelsome; causing quarrels'
p1232
sS'recalcitrant'
p1233
S'resisting authority or control'
p1234
sS'onomatopoeia'
p1235
S'formation or use of words that imitate sounds of the actions they refer to'
p1236
sS'polemic'
p1237
S'Controversial argument against a controversial issue; iconoclastic'
p1238
sS'revolt'
p1239
S'The action of protesting against authority.\xe5\x8f\x8d\xe6\x8a\x97\xe3\x80\x82\xe8\xb5\xb7\xe7\xbe\xa9\xe3\x80\x82\xe5\x8f\x9b\xe4\xba\x82\xe3\x80\x82'
p1240
sS'nefarious'
p1241
S'adj. very mean and wicked'
p1242
sS'salutation'
p1243
S'n. greeting'
p1244
sS'stolid'
p1245
S'having or showing little emotion'
p1246
sS'knead'
p1247
S'v. squeeze and fold with the hands'
p1248
sS'acumen'
p1249
S'keen, accurate judgement or insight'
p1250
sS'mendicant'
p1251
S'beggar'
p1252
sS'appellation'
p1253
S'name'
p1254
sS'inept'
p1255
S'incompetent, clumsy, unskilled'
p1256
sS'indelible'
p1257
S'cannot be erased'
p1258
sS'squalor'
p1259
S'filthy, wretched condition'
p1260
sS'remunerate'
p1261
S'v. pay'
p1262
sS'abut'
p1263
S'v. adjacent, skirt'
p1264
sS'barrage'
p1265
S'(n.) An overwhelming quantity or explosion, as of words, blows, or criticisms'
p1266
sS'rationale'
p1267
S'fundamental reason'
p1268
sS'saunter'
p1269
S'(n.) A leisurely walk, a stroll; (v.) To walk at a leisurely pace, to stroll slowly'
p1270
sS'conspicuous'
p1271
S'Obvious'
p1272
sS'annul'
p1273
S'Make void'
p1274
sS'pernicious'
p1275
S'adj. very destructive or harmful'
p1276
sS'glutton'
p1277
S'n. one who over indulges in food and drink'
p1278
sS'permeable'
p1279
S'penetrable'
p1280
sS'bacchanalian'
p1281
S'pertaining to riotous or drunken festivity; pertaining to revelry'
p1282
sS'unassailable'
p1283
S'Not open to attack; untenable;unimpeachable'
p1284
sS'infuriate'
p1285
S'Enrage; anger'
p1286
sS'supposition'
p1287
S'the act of assuming to be true or real'
p1288
sS'dirge'
p1289
S'funeral hymn'
p1290
sS'broach'
p1291
S'to mention for the first time'
p1292
sS'profligate'
p1293
S'Dissipated; wasteful; wildly immoral'
p1294
sS'fulsome'
p1295
S'so excessive as to be disgusting'
p1296
sS'plumb'
p1297
S'to examine deeply; determine the depth'
p1298
sS'preternatural'
p1299
S'supernatural; beyond the normal use of nature'
p1300
sS'travesty'
p1301
S'parody, exaggerated imitation, caricature'
p1302
sS'usury'
p1303
S'a practice of lending money at exorbitant rates'
p1304
sS'froward'
p1305
S'stubbornly contrary; obstinately disobedient'
p1306
sS'loath'
p1307
S'unwilling, reluctant'
p1308
sS'factotum'
p1309
S'a person who does all sorts of work; a handyman'
p1310
sS'badinage'
p1311
S'light and playful conversation'
p1312
sS'beseech'
p1313
S'beg; implore'
p1314
sS'deprecate'
p1315
S'(v.) to express mild disapproval; to belittle'
p1316
sS'obliterate'
p1317
S'destroy utterly; wipe out.'
p1318
sS'denouement'
p1319
S'outcome; unraveling of the plot of a play or work of literature'
p1320
sS'myopic'
p1321
S'shortsighted'
p1322
sS'disparage'
p1323
S'to belittle'
p1324
sS'morose'
p1325
S'ill-humored; sullen'
p1326
sS'expiate'
p1327
S'to atone for'
p1328
sS'pellucid'
p1329
S'transparent; easily understood'
p1330
sS'culpable'
p1331
S'deserving blame'
p1332
sS'stigma'
p1333
S'mark of disgrace or inferiority'
p1334
sS'asperity'
p1335
S'severity; harshness; irritability'
p1336
sS'nostrum'
p1337
S'medicine or remedy of doubtful effectiveness'
p1338
sS'steadfast'
p1339
S'Firm and unchanging'
p1340
sS'limber'
p1341
S'Flexible(not lissome,lithe)'
p1342
sS'bathetic'
p1343
S'adj. characterized by exceptional commonplaceness( trite,commonplace, stale, stereotyped)'
p1344
sS'denizen'
p1345
S'an inhabitant; a regular visitor'
p1346
sS'perspicuous'
p1347
S'adj. clear and easy to understand'
p1348
sS'anodyne'
p1349
S'something that calms or soothes pain'
p1350
sS'presage'
p1351
S'to foretell; indicate in advance'
p1352
sS'caucus'
p1353
S'smaller group within an organization'
p1354
sS'pitiless'
p1355
S'adj. without pity'
p1356
sS'satiate'
p1357
S'to satisfy'
p1358
sS'panache'
p1359
S'Flair; flamboyance'
p1360
sS'tacit'
p1361
S'silently understood, implied'
p1362
sS'rapacious'
p1363
S'adj. violently greedy;avarice'
p1364
sS'jovial'
p1365
S'adj. good-humored'
p1366
sS'animus'
p1367
S'n. strong dislike (a...)'
p1368
sS'distrait'
p1369
S'inattentive; preoccupied'
p1370
sS'jaunty'
p1371
S'Lighthearted; animated'
p1372
sS'oust'
p1373
S'drive out or expel (someone) from a position or place.'
p1374
sS'puerile'
p1375
S'adj. childishly foolish; immature or trivial'
p1376
sS'fissure'
p1377
S'crevice'
p1378
sS'tractable'
p1379
S'obedient, yielding'
p1380
sS'fulminate'
p1381
S'to attack loudly; denounce'
p1382
sS'ethnocentric'
p1383
S"based on the attitude tha one's group is superior"
p1384
sS'demur'
p1385
S'to express doubt; question or oppose'
p1386
sS'tout'
p1387
S'to promote or praise energetically'
p1388
sS'delirium'
p1389
S'great excitement'
p1390
sS'nonentity'
p1391
S'n. unimportant person or thing'
p1392
sS'evict'
p1393
S'expel'
p1394
sS'terse'
p1395
S'adj. using only the words that are need to make a point'
p1396
sS'ineluctable'
p1397
S'not to be avoided or escaped; inevitable'
p1398
sS'dispatch'
p1399
S'efficient speed'
p1400
sS'buoyancy'
p1401
S'Ability to float'
p1402
sS'epistemology'
p1403
S'branch of philosophy tha examines the nature of knowledge'
p1404
sS'caricature'
p1405
S'portrait (distorted)'
p1406
sS'repine'
p1407
S'fret, complain'
p1408
sS'maladroit'
p1409
S'Not good at dealing with people or problem'
p1410
sS'depravity'
p1411
S'1. corruption 2. corrupt act'
p1412
sS'linguistic'
p1413
S'pertaining to language'
p1414
sS'diatribe'
p1415
S'bitter verbal attack'
p1416
sS'torpor'
p1417
S'lethargy, dormancy, sluggishness'
p1418
sS'impugn'
p1419
S'insult'
p1420
sS'exasperate'
p1421
S'to make angry,vex'
p1422
sS'dissipate'
p1423
S'cause to diminish,disperse,dispel'
p1424
sS'homely'
p1425
S'lacking in physical attractiveness; not beautiful; unattractive'
p1426
sS'abject'
p1427
S'miserable; pitiful'
p1428
sS'extant'
p1429
S'in existence; not lost'
p1430
sS'diffuse'
p1431
S'to spread out'
p1432
sS'sedition'
p1433
S'behaviour prompting rebellion'
p1434
sS'profane'
p1435
S'Violate; desecrate; treat unworthily'
p1436
sS'invigorate'
p1437
S'v. give energy'
p1438
sS'refractory'
p1439
S'stubborn, resisting ordinary methods of treatment'
p1440
sS'implacable'
p1441
S'inflexible; incable of being pleased or calmed down'
p1442
sS'misanthrope'
p1443
S'one who hates humanity; one who dislikes others'
p1444
sS'palliate'
p1445
S'v. soothe, reduce the impact of'
p1446
sS'recumbent'
p1447
S'in a reclining position, lying down, in the posture of one sleeping or resting'
p1448
sS'nautical'
p1449
S'Of or pertaining to sailors, ships, or navigation'
p1450
sS'canon'
p1451
S'an established set of principles; a basis or standard for judgment; a group of literary works'
p1452
sS'dubious'
p1453
S'doubtful'
p1454
sS'incubate'
p1455
S'develop slowly'
p1456
sS'volition'
p1457
S'n. willingness'
p1458
sS'ingrained'
p1459
S'firmly rooted'
p1460
sS'moratorium'
p1461
S'(n.) a suspension of activity; an offical waiting period; an authorized period of delay'
p1462
sS'belie'
p1463
S'to contradict; misrepresent; give a false impression'
p1464
sS'quagmire'
p1465
S'marsh, difficult situation'
p1466
sS'deference'
p1467
S"respect; regard for another's wish"
p1468
sS'document'
p1469
S'to provide with written evidence to support'
p1470
sS'pedantic'
p1471
S'Characterized by a narrow, often ostentatious concern for book learning and formal rules'
p1472
sS'libido'
p1473
S'sexual desire'
p1474
sS'deft'
p1475
S'adj. skillful'
p1476
sS'meteorological'
p1477
S'concerned with the weather'
p1478
sS'callow'
p1479
S'adj. inexperienced'
p1480
sS'drivel'
p1481
S'Nonsense; foolishness'
p1482
sS'odium'
p1483
S'n. widespread hatred'
p1484
sS'perennial'
p1485
S'present throughout the years; persistent'
p1486
sS'intermittent'
p1487
S'Recurring. Stopping and starting; sporadic'
p1488
sS'substantive'
p1489
S'essential'
p1490
sS'suppliant'
p1491
S'beseeching, a person making a humble plea to someone in power or authority'
p1492
sS'bravura'
p1493
S'great technical skill and brilliance shown in a performance or activity.(masterful, adroit, dexterous)'
p1494
sS'miscellany'
p1495
S'mixture of writtings on various subjects'
p1496
sS'parody'
p1497
S'a humorous imitation intended for ridicule or comic effect, esp. in literature and art; travesty;pastiche'
p1498
sS'diffident'
p1499
S'Lacking self-confidence, timid'
p1500
sS'elysian'
p1501
S'delightful; blissful'
p1502
sS'amalgamate'
p1503
S'to combine into a unified whole'
p1504
sS'pariah'
p1505
S'one who has been rejected by society, social outcast'
p1506
sS'homeostasis'
p1507
S'automatic maintenance by an organism in balance with itself'
p1508
sS'tirade'
p1509
S'long, violent speech, verbal assault'
p1510
sS'domicile'
p1511
S'n. home'
p1512
sS'sinuous'
p1513
S'intricate, complex'
p1514
sS'doyen'
p1515
S'man who is the eldest or senior member of a group, profession, or society'
p1516
sS'exult'
p1517
S'rejoice, delight, glory, jubilate, joy, rejoice, triumph,'
p1518
sS'seamy'
p1519
S'unwholesome; sordid'
p1520
sS'earnest'
p1521
S'intensely serious and sincere'
p1522
sS'tremulous'
p1523
S'trembling, frugal, timid'
p1524
sS'multifarious'
p1525
S'diverse'
p1526
sS'engross'
p1527
S'preoccupy,immerse, fascinate, grip, absorb'
p1528
sS'expository'
p1529
S'explanatory'
p1530
sS'militate'
p1531
S'to work against'
p1532
sS'captious'
p1533
S'faultfinding; intended to entrap, as in an argument'
p1534
sS'debilitate'
p1535
S'Make weak'
p1536
sS'servile'
p1537
S'submissive, obedient'
p1538
sS'dingy'
p1539
S'dirty or faded'
p1540
sS'phoenix'
p1541
S'anything that is restored after suffering great destruction'
p1542
sS'riveting'
p1543
S'Absorbing; engrossing'
p1544
sS'fusty'
p1545
S'Smelling stale, damp, or stuffy: "the fusty odor of decay".  2.\tOld-fashioned in attitude or style'
p1546
sS'corrosive'
p1547
S'adj. erosive, caustic, liable to eat away at things'
p1548
sS'juggernaut'
p1549
S'huge froce destroying everything in its path'
p1550
sS'apocalyptic'
p1551
S'Prophetic; pertaining to revelations'
p1552
sS'intimate'
p1553
S'marked by close acquaintance'
p1554
sS'voracious'
p1555
S'adj. wanting large amounts of food'
p1556
sS'prattle'
p1557
S'meaningless, foolish talk'
p1558
sS'vacillate'
p1559
S'to waver, oscillate'
p1560
sS'piety'
p1561
S'devoutness'
p1562
sS'contagion'
p1563
S'Infection'
p1564
sS'acclimate'
p1565
S'v. become accustomed to'
p1566
sS'comely'
p1567
S'adj. attractive'
p1568
sS'stratagem'
p1569
S'Deceptive scheme;a plan or scheme, especially one used to outwit an opponent or achieve an end'
p1570
sS'dilettante'
p1571
S'amateur,nonexpert,one who dabbles in art and science'
p1572
sS'chivalry'
p1573
S'the qualities idealized by knighthood such as bravery and gallantry toward women'
p1574
sS'renovate'
p1575
S'v. make as if new again'
p1576
sS'ambrosia'
p1577
S'something delicious; the food of the gods'
p1578
sS'resuscitate'
p1579
S'v. bring back to life'
p1580
sS'hew'
p1581
S'(v.) to shape or cut down with an ax; to hold to'
p1582
sS'log'
p1583
S'record of a voyage; record of daily activities'
p1584
sS'stealth'
p1585
S'Secret'
p1586
sS'bromide'
p1587
S'a statement which is intended to make someone less angry but which is not effective'
p1588
sS'futile'
p1589
S'ineffective; useless; fruitless'
p1590
sS'galvanize'
p1591
S'Stimulate by shock; stir up; revitalize'
p1592
sS'mollify'
p1593
S'to soothe'
p1594
sS'condone'
p1595
S'to overlook voluntarily; forgive'
p1596
sS'immaculate'
p1597
S'perfectly clean, spotless'
p1598
sS'verbatim'
p1599
S'adj. word for word; exactly as written or spoken'
p1600
sS'fanatic'
p1601
S'n. blindly keen person'
p1602
sS'tranquility'
p1603
S'state of calm, serenity or quiet'
p1604
sS'shroud'
p1605
S'cover or hide something'
p1606
sS'recoil'
p1607
S'(v.) to spring back, shrink; (n.) the act of springing back'
p1608
sS'rouse'
p1609
S'v\xc3\xa4cka, elda, uppr\xc3\xb6ra'
p1610
sS'emancipate'
p1611
S'v. release from slavery'
p1612
sS'plucky'
p1613
S'adj. brave'
p1614
sS'regimen'
p1615
S'n. set of rules or suggested habits'
p1616
sS'flamboyant'
p1617
S'praktfull, extravagant, tending to attract attention because of their exuberance, confidence, and stylishness. \tostentatious, exuberant, confident, lively, buoyant, animated'
p1618
sS'default'
p1619
S'to fail to act'
p1620
sS'attenuate'
p1621
S'to weaken'
p1622
sS'excruciate'
p1623
S'v. make feel uncomfortable'
p1624
sS'ruse'
p1625
S'trick, crafty stratagem'
p1626
sS'impute'
p1627
S'to attribute the fault to; relate to a particular cause or source'
p1628
sS'histrionic'
p1629
S'relating to exaggerated emotional behavior calculated for effect; theatrical acts or performances'
p1630
sS'eschew'
p1631
S'to avoid'
p1632
sS'atavism'
p1633
S'in biology, the reappearance of a characteristic in an organism after several generations of absence; individual or a part that exhibits atavism; return of a trait after a period of absence'
p1634
sS'ennui'
p1635
S'n. boredom'
p1636
sS'charlatan'
p1637
S'(n.) one who feigns knowledge or ability; a pretender, impostor, or quack'
p1638
sS'patois'
p1639
S'jargon; a regional dialect'
p1640
sS'celestial'
p1641
S'concerned with sky or heavens; sublime'
p1642
sS'gratuitous'
p1643
S'unnecessary'
p1644
sS'conundrum'
p1645
S'riddle; puzzle with no solution'
p1646
sS'awry'
p1647
S'not in the correct position'
p1648
sS'quandary'
p1649
S'dilemma'
p1650
sS'saturnine'
p1651
S'gloomy'
p1652
sS'plangent'
p1653
S'(of a sound) loud, reverberating, and often melancholy.'
p1654
sS'garrulous'
p1655
S'very talkative; wordy'
p1656
sS'deterrent'
p1657
S'something that discourages or hinders'
p1658
sS'flock'
p1659
S'a groups of birds or sheep; A group of people folks'
p1660
sS'onerous'
p1661
S'burdensome'
p1662
sS'pensive'
p1663
S'engaged in, involving, or reflecting deep or serious thought'
p1664
sS'sanguine'
p1665
S'hoping for the best'
p1666
sS'stalwart'
p1667
S'adj. loyal, reliable'
p1668
sS'proliferate'
p1669
S'to increase rapidly'
p1670
sS'fetid'
p1671
S'having a bad smell'
p1672
sS'prudent'
p1673
S"Careful or discreet in managing one's conduct; circumspect."
p1674
sS'anachronism'
p1675
S'something out of the proper time'
p1676
sS'delineate'
p1677
S'to represent or depict'
p1678
sS'dabble'
p1679
S'Take part in an activity that is not serious'
p1680
sS'apathy'
p1681
S'indifference'
p1682
sS'variegated'
p1683
S'varied, marked with different colors'
p1684
sS'mimic'
p1685
S'v. imitate(not mimetic)'
p1686
sS'forswear'
p1687
S'renounce; repudiate'
p1688
sS'resolution'
p1689
S'determination, resolve'
p1690
sS'caste'
p1691
S'any of the hereditary social classes in Hindu society; social stratification'
p1692
sS'founder'
p1693
S'to sink; fail; colapse'
p1694
sS'expatiate'
p1695
S'to speak or write at length'
p1696
sS'importune'
p1697
S'v. beg'
p1698
sS'asylum'
p1699
S'place of refuge or shelter'
p1700
sS'pique'
p1701
S"a feeling of irritation or resentment resulting from a slight, esp. to one's pride"
p1702
sS'debris'
p1703
S'(n.) The scattered remains of something broken or destroyed; rubble or wreckage'
p1704
sS'renege'
p1705
S"to go back on one's word"
p1706
sS'homage'
p1707
S'respect; honor tribute'
p1708
sS'assuage'
p1709
S'to make less severe'
p1710
sS'extraneous'
p1711
S'not essencial'
p1712
sS'odyssey'
p1713
S'a long, adventurous voyage; a quest'
p1714
sS'foster'
p1715
S'v. allow to grow'
p1716
sS'tantalize'
p1717
S'Tease by arousing expectations'
p1718
sS'fervor'
p1719
S'warmth and intensity of emotion'
p1720
sS'immutable'
p1721
S'inchangeable'
p1722
sS'iconoclastic'
p1723
S'attacking cherished traditions'
p1724
sS'facetious'
p1725
S'treating serious issues with deliberately inappropriate humour; flippant'
p1726
sS'crestfallen'
p1727
S'Dejected; dispirited'
p1728
sS'malinger'
p1729
S'to feign illness to escape duty'
p1730
sS'dapper'
p1731
S'strikingly neat and trim in style and appearance, natty,sharp,snappy, stilig, prydlig'
p1732
sS'gainsay'
p1733
S'to deny; dispute; oppose'
p1734
sS'elated'
p1735
S'very happy'
p1736
sS'effluvium'
p1737
S'n. unpleasant odor, stench'
p1738
sS'guileless'
p1739
S'free of cunning or deceit; artless'
p1740
sS'laud'
p1741
S'praise'
p1742
sS'harry'
p1743
S'(v.) To disturb or distress by repeated attacks; harass'
p1744
sS'vanquish'
p1745
S'(v.) To defeat in a battle; To overcome an enemy or opponent'
p1746
sS'immanent'
p1747
S'1.  Existing or remaining within; inherent: believed in a God immanent in humans.  2.  Restricted entirely to the mind; subjective.'
p1748
sS'abridge'
p1749
S'v. make shorter'
p1750
sS'preposterous'
p1751
S'adj. ridiculous, silly'
p1752
sS'synergy'
p1753
S'1+1 bigger than 2'
p1754
sS'burnish'
p1755
S'to polish'
p1756
sS'vivacious'
p1757
S'lively'
p1758
sS'query'
p1759
S'question'
p1760
sS'canvass'
p1761
S'(v.) To solicit votes, subscriptions, opinions, or the like from; To examine carefully or discuss thoroughly'
p1762
sS'exodus'
p1763
S'(n.) a large scale departure or flight'
p1764
sS'affable'
p1765
S'easy to approach, friendly'
p1766
sS'hamper'
p1767
S'Obstruct'
p1768
sS'skeptic'
p1769
S'one who doubts'
p1770
sS'forestall'
p1771
S'to prevent; delay'
p1772
sS'eminent'
p1773
S'distinguished'
p1774
sS'succinct'
p1775
S'adj. short and precise;concise;laconic; pithy'
p1776
sS'tribute'
p1777
S'homage'
p1778
sS'turmoil'
p1779
S'n. a turbulent scenario'
p1780
sS'sentient'
p1781
S'aware, concious, able to perceive'
p1782
sS'mendacious'
p1783
S'dishonest'
p1784
sS'epitome'
p1785
S'a summary, condensed account; an instance that represents a larger reality'
p1786
sS'stupor'
p1787
S'State of apathy; daze; lack of awareness'
p1788
sS'piquant'
p1789
S'pleasantly pungent; attractive'
p1790
sS'scurry'
p1791
S'(v.) To move about or proceed hurriedly, scamper, to run quickly, dash or scramble'
p1792
sS'riposte'
p1793
S'a quick clever reply to an insult or criticism'
p1794
sS'cessation'
p1795
S'n. end, halt'
p1796
sS'raze'
p1797
S'v. to tear down;obliterate'
p1798
sS'pathological'
p1799
S'departing from normal condition'
p1800
sS'vaporizer'
p1801
S'n. device for creating vapor'
p1802
sS'whimsical'
p1803
S'fanciful, unpredictable'
p1804
sS'verbose'
p1805
S'wordy'
p1806
sS'fatuous'
p1807
S'foolishly self-satisfied'
p1808
sS'snub'
p1809
S'treat coldly, scornfully, or with contempt; cold treatment'
p1810
sS'sanction'
p1811
S'to approve, ratify, permit'
p1812
sS'aberrant'
p1813
S'deviating from what is normal'
p1814
sS'libertine'
p1815
S'one without moral restraint'
p1816
sS'zenith'
p1817
S'peak, highest point (z...)'
p1818
sS'composure'
p1819
S'extreme calm and confidence'
p1820
sS'codify'
p1821
S'to systematize'
p1822
sS'anathema'
p1823
S'something despised or under a curse'
p1824
sS'rustic'
p1825
S'(n.) An unsophisticated country person; (adj.) Characteristic of dwelling in the country'
p1826
sS'hegemony'
p1827
S'n. dominance of a leader or nation over its subjects'
p1828
sS'exigency'
p1829
S'crisis; urgent requirements'
p1830
sS'brisk'
p1831
S'active, fast, and energetic.(kinetic,frisky'
p1832
sS'flag'
p1833
S'to droop; grow weak'
p1834
sS'nomad'
p1835
S'One who travels with no fixed home'
p1836
sS'dissident'
p1837
S'person who disagrees about beliefs'
p1838
sS'cunning'
p1839
S'to be wily, having street smarts'
p1840
sS'gauche'
p1841
S'coarse and uncouth; clumsy'
p1842
sS'centrifugal'
p1843
S'moving away from a center'
p1844
sS'forbearance'
p1845
S'patience'
p1846
sS'caveat'
p1847
S'a warning or caution'
p1848
sS'aspirant'
p1849
S'adj. having specific ambitions'
p1850
sS'excursion'
p1851
S'n. trip'
p1852
sS'atrocious'
p1853
S'adj. extremely bad'
p1854
sS'visage'
p1855
S'appearance, aspect'
p1856
sS'buttress'
p1857
S'to reinforce; support'
p1858
sS'shard'
p1859
S'a piece of broken glass or pottery'
p1860
sS'coerce'
p1861
S'to force someone by threatening or physically empowering him'
p1862
sS'metamorphosis'
p1863
S'change; transformation'
p1864
sS'terrestrial'
p1865
S'earthly, commonplace'
p1866
sS'stymie'
p1867
S'hinder'
p1868
sS'goad'
p1869
S'to prod; urge on'
p1870
sS'rapport'
p1871
S'n. relationship with good communication'
p1872
sS'redoubtable'
p1873
S'formidable, arousing fear'
p1874
sS'cajole'
p1875
S'Persuade someone to do something by making promises or flattering'
p1876
sS'emollient'
p1877
S'soothing; mollifying'
p1878
sS'bawdy'
p1879
S'obscene'
p1880
sS'ensemble'
p1881
S'a group of performers'
p1882
sS'abdicate'
p1883
S'to give up a position, right, or power'
p1884
sS'emulate'
p1885
S'to imitate; copy'
p1886
sS'regress'
p1887
S'Return to an earlier and usually worse condition or state'
p1888
sS'replete'
p1889
S'full; satiate; sated; stuffed; surfeited'
p1890
sS'obstreperous'
p1891
S'unruly; defiant; boisterous'
p1892
sS'deluge'
p1893
S'n. downpour; flood of something'
p1894
sS'meticulous'
p1895
S'very careful; picky; fastidious'
p1896
sS'denude'
p1897
S'v. make bare'
p1898
sS'blunder'
p1899
S'misstag, groda'
p1900
sS'extrapolation'
p1901
S'the act of estimation by projecting known information'
p1902
sS'curmudgeon'
p1903
S'a person who is mean or miserly; a person who is grumpy, irritable or cantankerous'
p1904
sS'retaliate'
p1905
S'v. repay evil with a similar evil, to pay back in kind'
p1906
sS'lampoon'
p1907
S'Ridicule'
p1908
sS'magnanimity'
p1909
S'generosity; nobility'
p1910
sS'taxonomy'
p1911
S'science of classification'
p1912
sS'oblique'
p1913
S'neither parallel nor at a right angle to a specified or implied line; slanting.'
p1914
sS'nugatory'
p1915
S'trifling; invalid'
p1916
sS'preempt'
p1917
S'to supersede; appropiate for oneself'
p1918
sS'dawdle'
p1919
S'to waste time, to loiter'
p1920
sS'discrepancy'
p1921
S'difference between'
p1922
sS'prevaricate'
p1923
S'to quibble; evade the truth'
p1924
sS'emaciated'
p1925
S'thin and wasted'
p1926
sS'susceptible'
p1927
S'adj. likely to be harmed'
p1928
sS'jettison'
p1929
S'Get rid of something'
p1930
sS'stricture'
p1931
S'something that restrains, negative criticism'
p1932
sS'purport'
p1933
S'to profess, suppose, claim'
p1934
sS'dross'
p1935
S'waste; worthless matter'
p1936
sS'censorious'
p1937
S'severely critical'
p1938
sS'clamor'
p1939
S'noisy outcry'
p1940
sS'wry'
p1941
S'Grimly humorous.'
p1942
sS'motley'
p1943
S'many colored; made up of many parts'
p1944
sS'eulogy'
p1945
S'a tribute to someone who has just died'
p1946
sS'coeval'
p1947
S'n. a person of nearly the same age as another'
p1948
sS'neophyte'
p1949
S'novice; beginner'
p1950
sS'blight'
p1951
S'n. disease affecting crops'
p1952
sS'inception'
p1953
S'beginning, birth (i...)'
p1954
sS'reticent'
p1955
S'nor speaking freely, reserved, reluctant'
p1956
sS'debacle'
p1957
S'sudden downfall; complete disaster'
p1958
sS'grandeur'
p1959
S'impressiveness; stateliness; majesty'
p1960
sS'boisterous'
p1961
S'Violent; rough; noisy(vociferous, blatant, clamorous, raucous, rowdy)'
p1962
sS'inherent'
p1963
S'firmly established by nature or habit'
p1964
sS'dichotomy'
p1965
S'division into two usually contradictory parts'
p1966
sS'sartorial'
p1967
S'pertaining to tailors'
p1968
sS'contiguous'
p1969
S'touching; neighboring; connecting without a break'
p1970
sS'beneficent'
p1971
S'kindly; doing good'
p1972
sS'exorbitant'
p1973
S'exceeding all bounds'
p1974
sS'deride'
p1975
S'to mock'
p1976
sS'talisman'
p1977
S'charm to bring good luck and avert misfortune'
p1978
sS'anarchy'
p1979
S'absence of government; state of disorder'
p1980
sS'reverent'
p1981
S'expressing deep respect, worshipful'
p1982
sS'vertigo'
p1983
S'dizziness'
p1984
sS'effete'
p1985
S'depleted of vitality; overrefined; decadent'
p1986
sS'presumptuous'
p1987
S'rude; improperly bold'
p1988
sS'clandestine'
p1989
S'Secret'
p1990
sS'vitiate'
p1991
S'to impair the quality of, corrupt morally'
p1992
sS'congenial'
p1993
S'similar in tastes and habits; friendly; suited to'
p1994
sS'proscribe'
p1995
S'to condemn, forbid, outlaw'
p1996
sS'meteoric'
p1997
S'(adj.) Very fast and bright; Fleeting and spectacular'
p1998
sS'solvent'
p1999
S'able to meet financial obligations'
p2000
sS'inert'
p2001
S'unable to move; sluggish'
p2002
sS'platitude'
p2003
S'stale; overused expression'
p2004
sS'ponderous'
p2005
S'adj. unusually weighty or forcible, massive, unwieldy'
p2006
sS'foible'
p2007
S'(n.) physically or mentally weak(feeble)'
p2008
sS'paucity'
p2009
S'scarcity'
p2010
sS'disposition'
p2011
S"One's usual qualities of mind or character."
p2012
sS'clique'
p2013
S'a small, exclusive group'
p2014
sS'desiccate'
p2015
S'to dry completely'
p2016
sS'reproach'
p2017
S'to find fault with, blame'
p2018
sS'fiat'
p2019
S'an arbitrary order, a formal authorization or proposition'
p2020
sS'indulgent'
p2021
S'adj. yielding to the wishes or demands of others'
p2022
sS'wither'
p2023
S'Shrivel; decay'
p2024
sS'anecdote'
p2025
S'Short account of an amusing or interesting event'
p2026
sS'existential'
p2027
S'having to do with existence'
p2028
sS'euphemism'
p2029
S'use of agreeable or inoffensive language in place of offensive language'
p2030
sS'perturb'
p2031
S'to disturb greatly; make uneasy or anxious'
p2032
sS'unfeigned'
p2033
S'not false, genuine'
p2034
sS'mimetic'
p2035
S'adj. pertaining to imitation or mimicry(not mimic): A person who mimic'
p2036
sS'purvey'
p2037
S'Seller, supplier'
p2038
sS'sequester'
p2039
S'Isolate; retire from public life; seclude'
p2040
sS'ethereal'
p2041
S'(adj.) light, airy, delicate; highly refined; suggesting what is heavenly'
p2042
sS'bland'
p2043
S'not stimulating; dull'
p2044
sS'scathing'
p2045
S'adj. very critical ; witheringly scornful; severely critical'
p2046
sS'ostracize'
p2047
S'v. exclude from society'
p2048
sS'probity'
p2049
S'honesty; high-mindedness'
p2050
sS'litany'
p2051
S'lengthy recitation; repetitive chant'
p2052
sS'hallowed'
p2053
S'holy; sacred'
p2054
sS'zealot'
p2055
S'one who is fanatically devoted to a cause'
p2056
sS'aver'
p2057
S'to affirm; declare to be true'
p2058
sS'travail'
p2059
S'work, especially arduous work'
p2060
sS'dissemble'
p2061
S"to pretend; disguise one's motives"
p2062
sS'megalomania'
p2063
S'delusions of power or importance'
p2064
sS'stifle'
p2065
S'make (someone) unable to breathe properly; suffocate'
p2066
sS'oscillate'
p2067
S'to move back and forth'
p2068
sS'testy'
p2069
S'easily irritated; characterized by impatience and exasperation'
p2070
sS'obfuscate'
p2071
S'v. confuse'
p2072
sS'dank'
p2073
S'damp'
p2074
sS'uncanny'
p2075
S'myterious, strange'
p2076
sS'sedate'
p2077
S'adj. calm;serene'
p2078
sS'garble'
p2079
S'(v.) to distort in such a way as to make something unintelligible'
p2080
sS'swerve'
p2081
S'(n.) A sudden turn; (v.) To turn sharply, to change direction suddenly'
p2082
sS'desuetude'
p2083
S'state of disuse'
p2084
sS'shrewd'
p2085
S'clever, astute or sharp in practical manners'
p2086
sS'waft'
p2087
S'Moved gently by wind or waves'
p2088
sS'cognizant'
p2089
S'informed; conscious; aware'
p2090
sS'protrude'
p2091
S'Stick out'
p2092
sS'gall'
p2093
S'audacity'
p2094
sS'mawkish'
p2095
S'nauseatingly sentimental'
p2096
sS'sensual'
p2097
S'relating to the senses, gratifying the physical (sexual) senses'
p2098
sS'boorish'
p2099
S'rude; insensitive'
p2100
sS'evasion'
p2101
S'n. the act of avoiding someone. slippery, fugitive'
p2102
sS'refute'
p2103
S'to contradict, disprove'
p2104
sS'tarnish'
p2105
S'stain'
p2106
sS'jeopardize'
p2107
S'v. put in danger'
p2108
sS'commotion'
p2109
S'n. state of confused disturbance'
p2110
sS'recondite'
p2111
S'abstruse, profound'
p2112
sS'ancillary'
p2113
S'subordinate or supplementary, auxiliary, accessory(subsidiary,subordinate)'
p2114
sS'serene'
p2115
S'adj. calm;sedate'
p2116
sS'alleviate'
p2117
S'to relieve; improve partially'
p2118
sS'fresco'
p2119
S'a painting done on plaster'
p2120
sS'tryst'
p2121
S'agreement between lovest to meet, rendez-vous'
p2122
sS'confluence'
p2123
S'the flowing together of several things or ideas'
p2124
sS'bridle'
p2125
S'to restrain'
p2126
sS'gregarious'
p2127
S'outgoing; sociable'
p2128
sS'apposite'
p2129
S'strikingly appropriate and relevant'
p2130
sS'saturate'
p2131
S'imbue througout, soak thoroughly'
p2132
sS'panegyric'
p2133
S'elaborate praise; formal hymn of praise'
p2134
sS'succor'
p2135
S'relief, help in time of distress or want'
p2136
sS'squelch'
p2137
S'squash'
p2138
sS'parsimonious'
p2139
S'adj. unwilling to spend money'
p2140
sS'despise'
p2141
S'abhor,abominate, detest,execrate,loathe, disregard,flout,regard with loathing or contempt'
p2142
sS'ennoble'
p2143
S'v. make into a lord'
p2144
sS'languid'
p2145
S'Weary; sluggish; listless'
p2146
sS'acerbic'
p2147
S'having a sour or bitter taste or characteristic; sharp; biting(Pungent)'
p2148
sS'tenet'
p2149
S'belief, doctrine'
p2150
sS'exacerbate'
p2151
S'to aggravate; make worse'
p2152
sS'friable'
p2153
S'Easily crumbled: "the soil was friable between her fingers".'
p2154
sS'aggravate'
p2155
S'v. make angry'
p2156
sS'grotesque'
p2157
S'adj. deliberately ugly'
p2158
sS'herbivorous'
p2159
S'an animal that feeds mainly on plants'
p2160
sS'nonchalance'
p2161
S'n. carefree outlook'
p2162
sS'grandiloquent'
p2163
S'pompous; bombastic'
p2164
sS'convoluted'
p2165
S'twisted; complicated'
p2166
sS'credulous'
p2167
S'Gullible'
p2168
sS'intractable'
p2169
S'not easily managed'
p2170
sS'prowess'
p2171
S'Extraordinary ability'
p2172
sS'cantankerous'
p2173
S'irritable; ill-humored'
p2174
sS'spurious'
p2175
S'false; counterfeit'
p2176
sS'strut'
p2177
S'to swagger, display to impress others'
p2178
sS'pristine'
p2179
S'untouched; uncorrupted'
p2180
sS'avarice'
p2181
S'greed'
p2182
sS'interminable'
p2183
S'having no end'
p2184
sS'resolve'
p2185
S'determination, firmness of purpose'
p2186
sS'chasten'
p2187
S'to correct by punishment or reproof; to restrain or subdue'
p2188
sS'baroque'
p2189
S'extravagantly ornate, florid, and convoluted in character or style'
p2190
sS'doctrinaire'
p2191
S'dogmatic; unyielding'
p2192
sS'relentless'
p2193
S'(adj.) unyielding, harsh, without pity'
p2194
sS'insensible'
p2195
S'unconscious; unresponsive'
p2196
sS'cynical'
p2197
S'adj. exhibiting moral skepticism and contempt'
p2198
sS'largesse'
p2199
S'generosity in giving; lavish or bountiful contributions'
p2200
sS'intemperate'
p2201
S'immoderate in indulgence of appetite or passion.'
p2202
sS'plausible'
p2203
S'Seemingly credible or worthy of acceptance.'
p2204
sS'venerate'
p2205
S'to adore, honor, respect'
p2206
sS'bard'
p2207
S'poet'
p2208
sS'bifurcate'
p2209
S'to divide into two parts'
p2210
sS'plasticity'
p2211
S'pliability; condition of being able to be shaped or formed'
p2212
sS'lachrymose'
p2213
S'adj. tearful'
p2214
sS'equivocate'
p2215
S'intentionally use vague language'
p2216
sS'avuncular'
p2217
S'like an uncle, benevolent and tolerant'
p2218
sS'premeditate'
p2219
S'plan in advance'
p2220
sS'myriad'
p2221
S'many, a lot'
p2222
sS'abrade'
p2223
S'v. wear down by grinding'
p2224
sS'distraught'
p2225
S'Upset; distracted by anxiety'
p2226
sS'beatify'
p2227
S'to sanctify; to bless; to ascribe a virtue to'
p2228
sS'frugality'
p2229
S'thrift'
p2230
sS'candor'
p2231
S'truthfulness; honesty'
p2232
sS'complement'
p2233
S'something that completes or makes up a whole'
p2234
sS'deracinate'
p2235
S'to uproot, eradicate, extirpate, expunge'
p2236
sS'baleful'
p2237
S'exerts evil influence of foreshadows evil. (not harmful in itself)'
p2238
sS'striated'
p2239
S'marked with thin, narrow grooves or channels'
p2240
sS'dally'
p2241
S'to waste time'
p2242
sS'geniality'
p2243
S'cheerfulness; kindliness; sociability'
p2244
sS'defunct'
p2245
S'no longer existing'
p2246
sS'ignominy'
p2247
S'humiliation'
p2248
sS'quell'
p2249
S'suppress;quash'
p2250
sS'secrete'
p2251
S'produce and release substance into organism'
p2252
sS'lustrous'
p2253
S'shining'
p2254
sS'dwindle'
p2255
S'v. diminish gradually'
p2256
sS'incandescent'
p2257
S'intensely bright'
p2258
sS'rave'
p2259
S'overwhelmingly favorable review'
p2260
sS'supple'
p2261
S'adj. bendy;bending and moving easily and gracefully; flexible'
p2262
sS'acrid'
p2263
S'Sharp; bitterly pungent'
p2264
sS'bolster'
p2265
S'to give a boost to; prop up; support'
p2266
sS'satire'
p2267
S'n. mode of writing that aims at ridiculing a target'
p2268
sS'adulterate'
p2269
S'to corrupt or make impure'
p2270
sS'reciprocate'
p2271
S'Repay or respond in similar manner; respond to kindness'
p2272
sS'omniscient'
p2273
S'adj. knowing everything'
p2274
sS'veneer'
p2275
S'n. thin surface layer'
p2276
sS'exculpate'
p2277
S'to clear of blame; vindicate'
p2278
sS'champion'
p2279
S'to defend or support'
p2280
sS'fretful'
p2281
S'adj. feeling distress'
p2282
sS'rupture'
p2283
S'v. break, especially a body part'
p2284
sS'inclement'
p2285
S'Stormy; unkind'
p2286
sS'puissant'
p2287
S'powerful'
p2288
sS'empirical'
p2289
S'derived from observation or experiment'
p2290
sS'clout'
p2291
S'Great influence'
p2292
sS'barricade'
p2293
S'n an obstruction or rampart thrown up across a way or passage(fence, hedge, wall, barrier, obstacle, blcokade, obstruction)'
p2294
sS'bedizen'
p2295
S'to dress in a vulgar, showy manner'
p2296
sS'mordant'
p2297
S'adj. sarcastic'
p2298
sS'credence'
p2299
S'acceptance of something as true'
p2300
sS'rancor'
p2301
S'Angry feeling of hatred'
p2302
sS'confound'
p2303
S'to baffle; perplex; mix up'
p2304
sS'quail'
p2305
S'to cower, lose heart'
p2306
sS'enervate'
p2307
S'to weaken'
p2308
sS'hyperbole'
p2309
S'purposeful exaggeration for effect'
p2310
sS'seduce'
p2311
S'attract (someone) to a belief or into a course of action that is inadvisable or foolhardy'
p2312
sS'subliminal'
p2313
S"adj. affecting someone's mind without being aware of it; subconscious"
p2314
sS'benign'
p2315
S'gentle; kind'
p2316
sS'discredit'
p2317
S'to dishonor; disgrace'
p2318
sS'bristle'
p2319
S'v. show angry distaste'
p2320
sS'premonition'
p2321
S'forewarning; presentiment'
p2322
sS'shirk'
p2323
S'(v.) To avoid work, duty or responsibility; To slough off'
p2324
sS'contravene'
p2325
S'infringe, come into conflict with'
p2326
sS'covetous'
p2327
S'desiring something owned by another'
p2328
sS'waddled'
p2329
S'vaggade;walk with short steps and a clumsy swaying motion'
p2330
sS'banter'
p2331
S'playful conversation'
p2332
sS'epithet'
p2333
S'n. descriptive phrase,\xe5\xa4\x96\xe5\x8f\xb7'
p2334
sS'monolithic'
p2335
S'solid and uniform; constituing a single, unified whole'
p2336
sS'impede'
p2337
S'to hinder; block'
p2338
sS'rabid'
p2339
S'(adj.) furious, violently intense, unreasonably extreme.'
p2340
sS'aggregate'
p2341
S'amounting to a whole; total'
p2342
sS'robust'
p2343
S'sturdy ; (of a person or their body) strongly and solidly built'
p2344
sS'knack'
p2345
S'Ability or talent'
p2346
sS'perspicacious'
p2347
S'adj. having good judgment;acumen'
p2348
sS'finesse'
p2349
S'to handle with a deceptive or evasive strategy; refined in performance'
p2350
sS'supersede'
p2351
S'to replace, especially to displace as inferior or antiquated'
p2352
sS'solemnity'
p2353
S'Seriousness'
p2354
sS'craven'
p2355
S'cowardly'
p2356
sS'savvy'
p2357
S'smart and informed'
p2358
sS'recant'
p2359
S'retract a statement of opinion'
p2360
sS'abstain'
p2361
S'refrain'
p2362
sS'vindictive'
p2363
S'vengeful, unforgiving'
p2364
sS'scrupulous'
p2365
S'Conscientious; extremely thorough'
p2366
sS'incongruity'
p2367
S'state of not fitting'
p2368
sS'salve'
p2369
S"soothe (wounded pride or one's conscience)"
p2370
sS'belabor'
p2371
S'v. explain or worry excessively'
p2372
sS'vigilant'
p2373
S'alert'
p2374
sS'abstemious'
p2375
S'moderate in appetite'
p2376
sS'disseminate'
p2377
S'to spread; scatter; disperse'
p2378
sS'interregnum'
p2379
S'interval between reigns; gap in continuity'
p2380
sS'prudish'
p2381
S'overly concerned with being modest or proper'
p2382
sS'problematic'
p2383
S'posing a problem; doubtful'
p2384
sS'soliloquy'
p2385
S'literary or dramatic speech by one character, not adressed to others'
p2386
sS'vendor'
p2387
S'(n.) a person who sells something'
p2388
sS'vindicate'
p2389
S'to free from blame'
p2390
sS'astringent'
p2391
S'harsh; severe'
p2392
sS'conscript'
p2393
S'a person compulsorily enrolled for military service'
p2394
sS'jibe'
p2395
S'to be in agreement'
p2396
sS'extricate'
p2397
S'to release with difficulty'
p2398
sS'opprobrium'
p2399
S'public disgrace; contempt'
p2400
sS'translucent'
p2401
S'partially transparent'
p2402
sS'blemish'
p2403
S'n. flaw, imperfection'
p2404
sS'pertinent'
p2405
S'relevant to the matter being discussed'
p2406
sS'manifest'
p2407
S'Show clearly'
p2408
sS'flux'
p2409
S'flowing; a continuous moving'
p2410
sS'deleterious'
p2411
S'harmful'
p2412
sS'crescendo'
p2413
S'Increase in the volume or intensity'
p2414
sS'sprightly'
p2415
S'adj. lively'
p2416
sS'amicable'
p2417
S'friendly( affable,genial)'
p2418
sS'dilapidated'
p2419
S'in disrepair; decaying'
p2420
sS'feckless'
p2421
S'unlikely to be successful'
p2422
sS'rectitude'
p2423
S'(n.) uprightness, righteousness; correctness'
p2424
sS'inimical'
p2425
S'adj. harmful, dangerous'
p2426
sS'ungainly'
p2427
S'adj. clumsy'
p2428
sS'meretricious'
p2429
S'gaudy; specious; falsely attractive'
p2430
sS'mettlesome'
p2431
S'full of courage and fortitude'
p2432
sS'conversant'
p2433
S'adj. familiar with'
p2434
sS'effusive'
p2435
S'Expressing emotion in a heartfelt, unrestrained manner; gushing.'
p2436
sS'respite'
p2437
S'a short period of rest or relief from something difficult or unpleasant'
p2438
sS'elixir'
p2439
S'a sustance believed to have the power to cure ills'
p2440
sS'dormant'
p2441
S'in a state of rest or inactivity'
p2442
sS'rarefied'
p2443
S'belonging to, or appealing to an exclusive group; esoteric'
p2444
sS'disjointed'
p2445
S'lacking order or coherence; dislocated'
p2446
sS'tortuous'
p2447
S'having many twists and turns, highly complex'
p2448
sS'conciliatory'
p2449
S'overcoming distrust or hostility'
p2450
sS'paroxysm'
p2451
S'n. sudden attack of a physical condition'
p2452
sS'anterior'
p2453
S'Front'
p2454
sS'maelstrom'
p2455
S'whirlpool; turmoil'
p2456
sS'plethora'
p2457
S'excess; overabundance'
p2458
sS'ensue'
p2459
S'Follow immediately; occur as a result'
p2460
sS'appropriate'
p2461
S"to take possession of for one's own use; confiscate"
p2462
sS'conscientious'
p2463
S'Scrupulous; careful'
p2464
sS'convulsion'
p2465
S'sudden occurrence of an uncontrollable condition'
p2466
sS'martinet'
p2467
S'Strict disciplinarian'
p2468
sS'unctuous'
p2469
S'adj. unpleasantly and excessively suave'
p2470
sS'gouge'
p2471
S'to tear out; scoop out; overcharge'
p2472
sS'acquiesce'
p2473
S'comply, agree, give in'
p2474
sS'pallid'
p2475
S'lacking color or liveliness'
p2476
sS'chide'
p2477
S'To scold or rebuke; to express disapproval of.'
p2478
sS'lithe'
p2479
S'adj. slim, athletic(not limber,lissome0'
p2480
sS'droll'
p2481
S'oddly amusing'
p2482
sS'calumny'
p2483
S'false and malicious accusation; slander'
p2484
sS'errant'
p2485
S'mistaken; straying from the proper course'
p2486
sS'mundane'
p2487
S'worldy as opposed to spiritual; concerned with the ordinary'
p2488
sS'plunge'
p2489
S'] jump or dive quickly and energetically'
p2490
sS'impudent'
p2491
S'rude;impertinent'
p2492
sS'byzantine'
p2493
S'highly complicated or intricate; characterized by devious plotting'
p2494
sS'audacious'
p2495
S'bold; daring'
p2496
sS'archaic'
p2497
S'outdated; associated with an earlier, perhaps more primitive, time'
p2498
sS'quiescent'
p2499
S'inactive, still'
p2500
sS'carping'
p2501
S'to find fault; complain'
p2502
sS'usurp'
p2503
S"steal someone's power"
p2504
sS'harangue'
p2505
S'long, pompous speech; tirade'
p2506
sS'quorum'
p2507
S'number of memeber necessary to conduct a meeting'
p2508
sS'discomfit'
p2509
S'to make uneasy; disconcert'
p2510
sS'nonplussed'
p2511
S'bewildered'
p2512
sS'limpid'
p2513
S'clear; transparent'
p2514
sS'politic'
p2515
S'seeming sensible and judicious under the circumstances ; Expedient; prudent; well advised'
p2516
sS'aversion'
p2517
S'n. dislike'
p2518
sS'autonomous'
p2519
S'self-governing; independent'
p2520
sS'curt'
p2521
S'rude and short in tone or behavior'
p2522
sS'tautology'
p2523
S'unnecessary repetition'
p2524
sS'precept'
p2525
S'principle; law'
p2526
sS'prescience'
p2527
S'foreknowledge of events; knowing of events prior to their occurring'
p2528
sS'apropos'
p2529
S'relevant'
p2530
sS'evocative'
p2531
S'tending to call to mind or produce a reaction'
p2532
sS'effervescence'
p2533
S'state of high spirits or liveliness; process of bubling as gas escapes'
p2534
sS'intrepid'
p2535
S'resolutely fearless, daunting, bold, courageous, and brave'
p2536
sS'abscission'
p2537
S'the act of cutting; the natural separation of a leaf or other part of a plant'
p2538
sS'gustatory'
p2539
S'affecting the sense of taste'
p2540
sS'lucid'
p2541
S'bright; clear; intelligible'
p2542
sS'bravado'
p2543
S'n. intimidating boldness'
p2544
sS'barren'
p2545
S'(adj.) Vast emptiness without life'
p2546
sS'effrontery'
p2547
S'shameless; boldness; presumptuousness'
p2548
sS'antecedent'
p2549
S'something that comes before'
p2550
sS'dispassionate'
p2551
S'adj. emotionless'
p2552
sS'conjugal'
p2553
S'pertaining to marriage agreement'
p2554
sS'essay'
p2555
S'to make an attempt; subject to a test'
p2556
sS'dogged'
p2557
S'determined'
p2558
sS'coda'
p2559
S'concluding part of a literary or musical composition; something that summarizes or concludes'
p2560
sS'wrangle'
p2561
S'(v.) to quarrel or argue in a noisy, angry way; to obtain by argument; to herd; (n.) a noisy quarrel'
p2562
sS'fecund'
p2563
S'1. fertile 2. highly imaginative'
p2564
sS'discordant'
p2565
S'not in tune'
p2566
sS'ruminate'
p2567
S'v. to meditate, think about at length, chew on;pensive'
p2568
sS'barter'
p2569
S'(n.) an exchange in trade; (v.) to exchange goods'
p2570
sS'vacuous'
p2571
S'empty, void, lacking intelligence'
p2572
sS'welter'
p2573
S'wallow or roll, toss about, be in turmoil'
p2574
sS'obstinate'
p2575
S'adj. stubborn; inflexible'
p2576
sS'breach'
p2577
S'n. gap where barriers are broken through'
p2578
sS'moribund'
p2579
S'(adj.) dying, on the way out'
p2580
sS'implausible'
p2581
S'unlikely; unbelievable'
p2582
sS'subservient'
p2583
S'adj. obedient'
p2584
sS'converge'
p2585
S'to approach; come together; tend to meet'
p2586
sS'clement'
p2587
S'adj. mild and gentle'
p2588
sS'bedeck'
p2589
S'v. adorn(make more attractive by adding something that is beautiful adorn, decorate)'
p2590
sS'physiognomy'
p2591
S'facial features'
p2592
sS'stodgy'
p2593
S'(adj.) Dull, unimaginative, and commonplace'
p2594
sS'stiff'
p2595
S'not easily bent or changed in shape; rigid'
p2596
sS'iniquity'
p2597
S'n. sin, wickedness'
p2598
sS'insuperable'
p2599
S'insurmountable; unconquerable'
p2600
sS'supine'
p2601
S'lying in the back, marked by lethargy'
p2602
sS'trite'
p2603
S'adj. uninteresting, overused'
p2604
sS'cloister'
p2605
S'to confine; seclude'
p2606
sS'sedentary'
p2607
S'sitting down, accustomed to sitting or taking little exercise'
p2608
sS'thespian'
p2609
S'an actor or actress'
p2610
sS'dilute'
p2611
S'lessen strength'
p2612
sS'exuberant'
p2613
S'adj. overflowing with vitality and good spirits'
p2614
sS'languor'
p2615
S'Lassitude; depression'
p2616
sS'inveterate'
p2617
S'confirmed; long standing'
p2618
sS'aboveboard'
p2619
S'adj. legal'
p2620
sS'ribald'
p2621
S'adj. vulgar, coarse'
p2622
sS'edifice'
p2623
S'Large and usually impressive building'
p2624
sS'vituperative'
p2625
S'using or containing harsh, abusive censure'
p2626
sS'volatile'
p2627
S'tending to vary frequently, fickle'
p2628
sS'oration'
p2629
S'a formal speech, especially one given on a ceremonial occasion.'
p2630
sS'proffer'
p2631
S'Offer; put before a person for acceptance'
p2632
sS'infuse'
p2633
S'v. spread through'
p2634
sS'stanch'
p2635
S'to stop or check the flow of'
p2636
sS'peripatetic'
p2637
S'adj. moving or walking about'
p2638
sS'puckish'
p2639
S'playful, especially in a mischievous ways'
p2640
sS'gloat'
p2641
S'Express evil satisfaction; view malevolently'
p2642
sS'abnegate'
p2643
S'v. deny oneself'
p2644
sS'preamble'
p2645
S'preliminary statement'
p2646
sS'implicit'
p2647
S'implied; understood but not stated'
p2648
sS'gullible'
p2649
S'easily deceived'
p2650
sS'requite'
p2651
S'(v.) to make suitable repayment, as for a kindness, service, or favor; to make retaliation, as for an injury or wrong; to reciprocate'
p2652
sS'abominate'
p2653
S'to have an intense dislike or hatred for'
p2654
sS'dissolute'
p2655
S'lacking restraint'
p2656
sS'miscreant'
p2657
S'villain; criminal'
p2658
sS'plutocracy'
p2659
S'society ruled by the wealthy'
p2660
sS'apt'
p2661
S'(adj.) suitable, fitting, likely; quick to learn'
p2662
sS'limn'
p2663
S'to draw, describe'
p2664
sS'extirpate'
p2665
S'to root up; to destroy'
p2666
sS'causal'
p2667
S'involving a cause'
p2668
sS'dissonance'
p2669
S'discord; lack of harmony'
p2670
sS'pusillanimous'
p2671
S'cowardly; showing a lack of courage or determination; timid'
p2672
sS'procrastinate'
p2673
S'v. put off till tomorrow or till a future time'
p2674
sS'modicum'
p2675
S'limited quantity'
p2676
sS'circuitous'
p2677
S'roundabout'
p2678
sS'harrowing'
p2679
S'extremely distressing; terrifying'
p2680
sS'depreciate'
p2681
S'to lower in value, disparage, belittle, to decline in price'
p2682
sS'engender'
p2683
S'to cause; produce'
p2684
sS'lacerate'
p2685
S'to rip, maul, tear, mutilate, mangle'
p2686
sS'transient'
p2687
S'temporary, fleeting'
p2688
sS'entangle'
p2689
S'v. catch in'
p2690
sS'disingenuous'
p2691
S'not candid, crafty'
p2692
sS'lapse'
p2693
S'n. temporary decline'
p2694
sS'cornucopia'
p2695
S'horn overflowing with fruit and grain; state of abundance'
p2696
sS'inculpate'
p2697
S'v. accuse'
p2698
sS'cherubic'
p2699
S'(adj.) angelic'
p2700
sS'internecine'
p2701
S'deadly to both sides'
p2702
sS'poseur'
p2703
S'person who affects an attitude to impress others'
p2704
sS'vaunt'
p2705
S'to boast, drag'
p2706
sS'beleaguer'
p2707
S'to surround; to harass'
p2708
sS'rapt'
p2709
S'adj. having attention completely taken up'
p2710
sS'atone'
p2711
S'v. make amends'
p2712
sS'vivisection'
p2713
S'dissection, surgery, or painful experiments performed on a living animal for the purpose of scientific research'
p2714
sS'counterfeit'
p2715
S'adj. imitation of something valuable'
p2716
sS'ambivalence'
p2717
S'the state of having conflicting emotional attitudes'
p2718
sS'tamper'
p2719
S'(v.) To interfere with; To meddle'
p2720
sS'patronize'
p2721
S'treat with an apparent kindness that betrays a feeling of superiority'
p2722
sS'babble'
p2723
S'Chatter idly'
p2724
sS'elliptical'
p2725
S'extremely concise in speech or writing'
p2726
sS'occlude'
p2727
S'to shut; block'
p2728
sS'singular'
p2729
S'unique, extraordinary, odd'
p2730
sS'impenitent'
p2731
S'not repentent, shameless, unashamed, unrepentant'
p2732
sS'prolix'
p2733
S'adj. excessively wordy'
p2734
sS'impecunious'
p2735
S'poor; having no money'
p2736
sS'foment'
p2737
S'to incite; arouse'
p2738
sS'ambiguous'
p2739
S'unclear or doubtful in meaning'
p2740
sS'amenable'
p2741
S'agreeable; cooperative; suited'
p2742
sS'xenophobia'
p2743
S'intense fear of people from other countries'
p2744
sS'arduous'
p2745
S'extremely difficult; laborious'
p2746
sS'tendentious'
p2747
S'biased; showing marked tendencies'
p2748
sS'alloy'
p2749
S'a combination; a mixture of two or more metals'
p2750
sS'sedulous'
p2751
S'diligent, assiduous'
p2752
sS'alacrity'
p2753
S'cheerful willingness; eagerness; speed'
p2754
sS'abstruse'
p2755
S'Hard to understand'
p2756
sS'embezzle'
p2757
S'misuse entrusted money or property'
p2758
sS'vilify'
p2759
S"adj to slander or defame someone's name or reputation"
p2760
sS'badger'
p2761
S'to annoy;'
p2762
sS'subversive'
p2763
S'intended to undermine or underthrow, especially an established government'
p2764
sS'industrious'
p2765
S'working hard'
p2766
sS'equanimity'
p2767
S'composure; calmness'
p2768
sS'decorum'
p2769
S'proper behavior'
p2770
sS'brook'
p2771
S'v. to bear, suffer, or tolerate.'
p2772
sS'nostalgia'
p2773
S'sentimental longing for a past time'
p2774
sS'sinecure'
p2775
S'well-paying job that requieres little or no work'
p2776
sS'primordial'
p2777
S'original; existing from the beginning'
p2778
sS'latitude'
p2779
S'Freedom fron narrow limitations'
p2780
sS'choleric'
p2781
S'hot-tempered'
p2782
sS'derelict'
p2783
S'adj. abandoned; discarded'
p2784
sS'machinations'
p2785
S'plots or schemes'
p2786
sS'impervious'
p2787
S'incapable of being affected; impossible to penetrate'
p2788
sS'trenchant'
p2789
S'adj. energetic, vigorous'
p2790
sS'denigrate'
p2791
S"to slur someone's reputation"
p2792
sS'flout'
p2793
S'to treat scornfully'
p2794
sS'negligent'
p2795
S'adj. failing to take proper care in doing something. careless'
p2796
sS'placid'
p2797
S'calm'
p2798
sS'pompous'
p2799
S'Showing an exaggerated air of importance; bombastic; grandiloquent'
p2800
sS'serpentine'
p2801
S'Winding; twisting'
p2802
sS'profound'
p2803
S'deep, not superficial'
p2804
sS'laconic'
p2805
S'using few words'
p2806
sS'concave'
p2807
S'curving inward'
p2808
sS'virulent'
p2809
S'extremely harmful or poisonous; bitterly hostile or antagonistic'
p2810
sS'dogmatic'
p2811
S'stating opinions without proof'
p2812
sS'veracious'
p2813
S'truthful, accurate'
p2814
sS'homogeneous'
p2815
S'composed of identical parts; uniform in composition'
p2816
sS'thwart'
p2817
S'Prevent; frustrate; oppose and defeat'
p2818
sS'intangible'
p2819
S'not material'
p2820
sS'castigate'
p2821
S'to scold'
p2822
sS'banal'
p2823
S'commonplace; trite'
p2824
sS'gallant'
p2825
S'(of a person or their behaviour) brave; heroic'
p2826
sS'loquacious'
p2827
S'talkative'
p2828
sS'fallow'
p2829
S'plowed but not sowed; uncultivated'
p2830
sS'fathom'
p2831
S'to comprehend'
p2832
sS'remiss'
p2833
S'negligent'
p2834
sS'invective'
p2835
S'Abuse; stream of harsh words'
p2836
sS'provident'
p2837
S'providing for future need, frugal'
p2838
sS'enfranchise'
p2839
S'Admit citizenship'
p2840
sS'implode'
p2841
S'collapse inward violently'
p2842
sS'craving'
p2843
S'n. strong physical desire'
p2844
sS'substantiate'
p2845
S'to support with proof or evidence'
p2846
sS'overweening'
p2847
S'presumptuous; arrogant'
p2848
sS'facilitate'
p2849
S'to make less difficult'
p2850
sS'incarnate'
p2851
S'having bodily form'
p2852
sS'platonic'
p2853
S'spiritual; theoretical'
p2854
sS'felicitous'
p2855
S'well chosen or suited to the circumstances'
p2856
sS'introspective'
p2857
S"contemplating one's own thoughts and feelings"
p2858
sS'instill'
p2859
S'(v.) to add gradually; to introduce or cause to be taken in'
p2860
sS'opportune'
p2861
S'(of a time) well-chosen or particularly favorable or appropriate.'
p2862
sS'salutary'
p2863
S'expecting an improvement, favorable to health'
p2864
sS'extrinsic'
p2865
S'not inherent or essential'
p2866
sS'compliant'
p2867
S'yielding'
p2868
sS'accretion'
p2869
S'growth in size or increase in amount'
p2870
sS'natty'
p2871
S'accurate, trim, tidy, careful'
p2872
sS'pervasive'
p2873
S'spread throughout every part'
p2874
sS'chagrin'
p2875
S'embarrassment; shame'
p2876
sS'argot'
p2877
S'a specialized vocabulary used by a group'
p2878
sS'retrench'
p2879
S'Cut down; economize'
p2880
sS'dreary'
p2881
S'dismal, bleak, sad, boring or dull'
p2882
sS'burlesque'
p2883
S'ludicrous, mocking, or exaggerated imitation'
p2884
sS'expatriate'
p2885
S'to send into exile'
p2886
sS'venal'
p2887
S'mercenary, corruptible'
p2888
sS'neologism'
p2889
S'new word or expression'
p2890
sS'viscous'
p2891
S'thick, syrupy'
p2892
sS'prune'
p2893
S'trim'
p2894
sS'churlish'
p2895
S'rude; boorish'
p2896
sS'frugal'
p2897
S'sparing or economical as regards money or food.'
p2898
sS'transgression'
p2899
S'act of trespassing or violating a law or rule'
p2900
sS'lilliputian'
p2901
S'extremely small'
p2902
sS'torrent'
p2903
S'large amount of something that is released suddenly'
p2904
sS'gambol'
p2905
S'to frolic; leap playfully'
p2906
sS'stipple'
p2907
S'v. draw using dots'
p2908
sS'sardonic'
p2909
S'cynical, scornfully mocking'
p2910
sS'metaphysics'
p2911
S'a branch of philosophy tha tinvestigates the ultimate nature of reality'
p2912
sS'catholic'
p2913
S'adj. all-embracing'
p2914
sS'florid'
p2915
S'ruddy; reddish; flowery'
p2916
sS'ephemeral'
p2917
S'short-lived; fleeting'
p2918
sS'apprise'
p2919
S'to inform'
p2920
sS'precipice'
p2921
S'n. cliff'
p2922
sS'adjunct'
p2923
S'something added, attached, or joined'
p2924
sS'singe'
p2925
S'v. burn lightly'
p2926
sS'divert'
p2927
S'to draw attention from something'
p2928
sS'cozen'
p2929
S'to mislead by trick or fraud; decieve'
p2930
sS'mongrel'
p2931
S'n. of mixed breeds'
p2932
sS'axiomatic'
p2933
S'taken for granted; self-evident truth'
p2934
sS'procure'
p2935
S'Obtain or acquire something by special means'
p2936
sS'cipher'
p2937
S'n. secret code'
p2938
sS'delve'
p2939
S'(v.) to dig; to search deeply and thoroughly into'
p2940
sS'awe'
p2941
S'Solemn wonder'
p2942
sS'truce'
p2943
S'(n.) An agreement between opposing groups'
p2944
sS'clasp'
p2945
S'Fastening device; firm grip'
p2946
sS'inexorable'
p2947
S'unstoppable'
p2948
sS'admonish'
p2949
S'to caution or reprimand'
p2950
sS'dent'
p2951
S'L. tooth (indent)'
p2952
sS'penitent'
p2953
S'feeling or showing sorrow and regret for having done wrong; repentant: a penitent expression.'
p2954
sS'discursive'
p2955
S'desultory,digressional,excursive, rambling, lengthy with digressions'
p2956
sS'absurd'
p2957
S'adj. meaninglessly illogical'
p2958
sS'seclude'
p2959
S'Withdraw into solitude'
p2960
sS'rubric'
p2961
S'protocol, title or heading'
p2962
sS'utter'
p2963
S'complete; absolute.'
p2964
sS'obsequious'
p2965
S'overly submissive'
p2966
sS'litigation'
p2967
S'legal proceedings'
p2968
sS'cavort'
p2969
S'to romp or prance around exuberantly; to make merry'
p2970
sS'scurrilous'
p2971
S'remarks, articles etc contain damaging and untrue statements about someone'
p2972
sS'jaundiced'
p2973
S'having a yellowish discoloration of the skin; affected by envy'
p2974
sS'flinch'
p2975
S'Hesitate; shrink'
p2976
sS'dodge'
p2977
S'v. to avoid being hit by something by moving quickly to one side.'
p2978
sS'gratify'
p2979
S'v. to please or indulge'
p2980
sS'aphorism'
p2981
S'n. short statement expressing wisdom or wit'
p2982
sS'perigee'
p2983
S'point in an orbit that is closest to the earth'
p2984
sS'skimp'
p2985
S'(v.) To provide scantily; To live very economically'
p2986
sS'accrue'
p2987
S'to accumulate; grow by additions'
p2988
sS'schism'
p2989
S'Division; split'
p2990
sS'malaise'
p2991
S'Uneasiness; vague feeling of ill health'
p2992
sS'syllogism'
p2993
S'a form of deductive reasoning with a major premise, a minor premise, and a conclusion'
p2994
sS'extemporaneous'
p2995
S'unrehearsed'
p2996
sS'defame'
p2997
S"to malign; harm someone's reputation"
p2998
sS'hauteur'
p2999
S'haughty,Haughtiness in bearing and attitude; arrogance. haughty'
p3000
sS'genteel'
p3001
S'Refined; polished'
p3002
sS'cachet'
p3003
S'n. a sign or expression of approval, especially from a person who has a great deal of prestige.'
p3004
sS'solicitous'
p3005
S'concerned, attentive, eager'
p3006
sS'juxtapose'
p3007
S'place side by side'
p3008
sS'theocracy'
p3009
S'government by priests representing a god'
p3010
sS'gerrymander'
p3011
S'to divide an area into voting districts in a way that favors a political party'
p3012
sS'luminous'
p3013
S'bright; brilliant; glowing'
p3014
sS'literati'
p3015
S'scholarly or learned persons'
p3016
sS'partisan'
p3017
S'one-sided; committed to a party, group or cause'
p3018
sS'imprecation'
p3019
S'curse; damnation'
p3020
sS'diverge'
p3021
S'to vary; go in different directions from the same point'
p3022
sS'unwonted'
p3023
S'not usual or expected; not in character'
p3024
sS'sabotage'
p3025
S'to secretely damage or destroy equipment, vehicles etc.'
p3026
sS'browbeat'
p3027
S'v. yell at'
p3028
sS'antics'
p3029
S'(n. pl.) ridiculous and unpredictable behavior or actions'
p3030
sS'interpolate'
p3031
S'to insert; change by adding new words or material'
p3032
sS'specious'
p3033
S'seeming to be logical and sound, but not really so'
p3034
sS'solace'
p3035
S'n. comfort from pain or grief; consolation'
p3036
sS'tantrum'
p3037
S'an uncontrolled outburst of anger and frustration, typically in a young child; caprice'
p3038
sS'inundate'
p3039
S'to cover with water, overwhelm'
p3040
sS'asunder'
p3041
S'adv. into separate parts or pieces'
p3042
sS'perfidious'
p3043
S'faithless; disloyal; untrustworthy'
p3044
sS'fester'
p3045
S'to rot'
p3046
sS'commend'
p3047
S'to praise; to extol'
p3048
sS'blatant'
p3049
S'noisy; glaring'
p3050
sS'stentorian'
p3051
S'extremely loud'
p3052
sS'shiftless'
p3053
S'(adj.) lazy, lacking in ambition and energy; inefficient'
p3054
sS'derivative'
p3055
S'something derived; unoriginal'
p3056
sS'altruism'
p3057
S'n. doing good for others(opp: egoism)'
p3058
sS'cacophonous'
p3059
S'unpleasant or harsh-sounding'
p3060
sS'vapid'
p3061
S'tasteless, dull'
p3062
sS'asexual'
p3063
S'adj. having no interest in sex'
p3064
sS'pandemonium'
p3065
S'n. chaotic confusion'
p3066
sS'fallacious'
p3067
S'based on a false idea or fact; misleading'
p3068
sS'ensconce'
p3069
S'Settle confortably, bury, cache, conceal, roost, nestle, perch, lodge'
p3070
sS'venomous'
p3071
S'(adj.) Malicious, spiteful, and mean'
p3072
sS'lassitude'
p3073
S'lethargy; sluggishness'
p3074
sS'amenity'
p3075
S'something that increases comfort'
p3076
sS'concerted'
p3077
S'(adj.)  planned or preformed in cooperation with others'
p3078
sS'lascivious'
p3079
S'lustful'
p3080
sS'askew'
p3081
S'crooked; off to one side'
p3082
sS'ostentatious'
p3083
S'showy; pretentious'
p3084
sS'dilate'
p3085
S'v. make wider'
p3086
sS'untoward'
p3087
S'not favorable, troublesome, unruly'
p3088
sS'eulogize'
p3089
S'v. to praise, to say good things about (as in eulogy)'
p3090
sS'propensity'
p3091
S'inclination, tendency'
p3092
sS'painstaking'
p3093
S'Showing diligent effort or care; careful.'
p3094
sS'tempestuous'
p3095
S'adj. stormy'
p3096
sS'schematic'
p3097
S'relating to or in the form of an outline or diagram'
p3098
sS'misogynist'
p3099
S'one who hates women'
p3100
sS'frivolous'
p3101
S'not important'
p3102
sS'garish'
p3103
S'dressed too brightly'
p3104
sS'balk'
p3105
S'(n.) An barrier, obstacle or hindrance causing defeat; (v.) To stop short and refuse to go on'
p3106
sS'bale'
p3107
S'n. suffering as a result of evil'
p3108
sS'spleenful'
p3109
S'full of or displaying spleen; ill humored; irritable or peevish; spiteful; splenetic'
p3110
sS'appall'
p3111
S'to shock and disgust'
p3112
sS'impeccable'
p3113
S'(adj.) faultless, beyond criticism or blame'
p3114
sS'compendium'
p3115
S'brief, comprehensive summary'
p3116
sS'retard'
p3117
S'delay or hold back in terms of progress, development, or accomplishment'
p3118
sS'warranted'
p3119
S'justified'
p3120
sS'timbre'
p3121
S'voice tone color'
p3122
sS'castigation'
p3123
S'punishment; chastisement; criticism'
p3124
sS'nebulous'
p3125
S'in the form of a cloud or haze; hazy. Vague; hazy; cloudy'
p3126
sS'contumacious'
p3127
S'disobedient; rebellious'
p3128
sS'simile'
p3129
S'comparison of one thing with another using "like" or "as"'
p3130
sS'draconian'
p3131
S'extremely harsh or severe'
p3132
sS'intransigence'
p3133
S'stubbornness; refusal to compromise'
p3134
sS'ratify'
p3135
S'approve'
p3136
sS'glut'
p3137
S'(v.) to provide more than is needed or wanted; to feed or fill to the point of overstuffing; (n.) an oversupply'
p3138
sS'inveigle'
p3139
S'to win over by flattering or coaxing'
p3140
sS'evince'
p3141
S'to show plainly; be an indication of'
p3142
sS'interim'
p3143
S'(n.) the time between; (adj.) temporary, coming between two points in time'
p3144
sS'apostasy'
p3145
S'n. renunciation of religious belief'
p3146
sS'dais'
p3147
S'a platform in a room that you stand on to make a speech'
p3148
sS'distend'
p3149
S'to expand; swell out'
p3150
sS'temerity'
p3151
S'boldness'
p3152
sS'penchant'
p3153
S'inclination'
p3154
sS'demographic'
p3155
S'related to population balance'
p3156
sS'undulating'
p3157
S'moving in waves'
p3158
sS'arrest'
p3159
S'to stop; to seize'
p3160
sS'crass'
p3161
S'adj. unrefined, coarse or thick in nature'
p3162
sS'enact'
p3163
S'to make proposed legislation into law'
p3164
sS'tumid'
p3165
S'swollen, distended'
p3166
sS'frieze'
p3167
S'ornamental band on a wall'
p3168
sS'eleemosynary'
p3169
S'charitable, philanthropic, beneficent'
p3170
sS'masquerade'
p3171
S'n. the wearing of a disguise'
p3172
sS'crux'
p3173
S'main point; central issue; heart of the matter'
p3174
sS'feral'
p3175
S'existing in a wild or untamed state'
p3176
sS'truculence'
p3177
S'aggressiveness, ferocity'
p3178
sS'perpetual'
p3179
S'never ending or changing; permanent'
p3180
sS'porous'
p3181
S'full of holes; permeable to liquids'
p3182
sS'incendiary'
p3183
S'deliberatelky setting or causing fires; designed to start fires; tending to stir up strife or rebellion; (n) one who deliberately sets fires, arsonist; one who cause strife'
p3184
sS'vortex'
p3185
S'whirpool, center of turbulence'
p3186
sS'divest'
p3187
S'to strip; deprive; rid'
p3188
sS'therapeutic'
p3189
S'having or exhibiting healing powers'
p3190
sS'parity'
p3191
S'n. equality of treatment'
p3192
sS'repartee'
p3193
S'Quick, witty reply; riposte'
p3194
sS'corroborate'
p3195
S'confirm as true'
p3196
sS'vicarious'
p3197
S'Acting as a substitute'
p3198
sS'convex'
p3199
S'curved outward'
p3200
sS'elephantine'
p3201
S'1. slow and heavy 2. enormous 3. similar to an elephant'
p3202
sS'leery'
p3203
S'suspicious'
p3204
sS'staccato'
p3205
S'marked by abrupt, clear-cut sounds'
p3206
sS'discretion'
p3207
S'quality of showing self-restraint in speech or actions'
p3208
sS'mutation'
p3209
S'n. change in genes'
p3210
sS'pilfer'
p3211
S'v. steal'
p3212
sS'voluptuous'
p3213
S'adj. of or relating to luxury'
p3214
sS'slur'
p3215
S'smear; insinuation of an insult'
p3216
sS'ornithologist'
p3217
S'scientist who studies birds'
p3218
sS'obsequy'
p3219
S'funeral ceremony'
p3220
sS'subsume'
p3221
S'to include, incorporate'
p3222
sS'retribution'
p3223
S'Vengeance; compensation; punishment for offenses'
p3224
sS'throng'
p3225
S'Crowd'
p3226
sS'abstinence'
p3227
S'the giving up of certain pleasures'
p3228
sS'complaisance'
p3229
S'the willingness to comply with the wishes of others'
p3230
sS'scorch'
p3231
S'to burn slightly, dry up or criticize sharply'
p3232
sS'diabolical'
p3233
S'adj. like the devil'
p3234
sS'tome'
p3235
S'book, usually large and academic'
p3236
sS'dulcet'
p3237
S'adj. sweet and mild'
p3238
sS'stultify'
p3239
S'to impair or reduce to uselessness'
p3240
sS'perfervid'
p3241
S'intense and impassioned'
p3242
sS'vulgarity'
p3243
S'n. coarseness'
p3244
sS'articulate'
p3245
S'adj. having the ability to speak coherently'
p3246
sS'chronic'
p3247
S'constant; lasting a long time'
p3248
sS'assiduous'
p3249
S'diligent; hard-working'
p3250
sS'esteem'
p3251
S'n. respect'
p3252
sS'negate'
p3253
S'to cancel out; nullify'
p3254
sS'fawning'
p3255
S'give a servile display of exaggerated flattery or affection, typically in order to gain favor'
p3256
sS'noxious'
p3257
S'harmful, injurious'
p3258
sS'luminary'
p3259
S'n. famous or distinguished person'
p3260
sS'stamina'
p3261
S'the ability to sustain prolonged physical or mental effort'
p3262
sS'scintillating'
p3263
S'adj. sparkling'
p3264
sS'rococo'
p3265
S'excessively ornate'
p3266
sS'glib'
p3267
S'fluent in an insincere way; offhand'
p3268
sS'complacency'
p3269
S'n.  self-satisfied ignorance of danger'
p3270
sS'amity'
p3271
S'harmony, friendship'
p3272
sS'elicit'
p3273
S'to provoke; draw out'
p3274
sS'congruity'
p3275
S'n. state of belonging or making sense together'
p3276
sS'wince'
p3277
S'(n.) A shrinking or startled movement or gesture; (v.) To draw back or tense the body, to flinch'
p3278
sS'strident'
p3279
S'loud, harsh, unpleasantly noisy'
p3280
sS'paean'
p3281
S'song of joy or triumph; a fervent expression of joy'
p3282
sS'behemoth'
p3283
S'huge creature; anything very large and powerful'
p3284
sS'oligarchy'
p3285
S'form of government in which power belongs to only a few leaders'
p3286
sS'dearth'
p3287
S'scarcity'
p3288
sS'lissome'
p3289
S'adj. supple, athletic(not lithe, limber)'
p3290
sS'pastiche'
p3291
S'n. humorous imitation; parody; travesty'
p3292
sS'sobriety'
p3293
S'seriousness'
p3294
sS'unimpeachable'
p3295
S'not able to be doubted, questioned, or criticized; entirely ; Unassailable'
p3296
sS'dilatory'
p3297
S'Delaying'
p3298
sS'boon'
p3299
S'n. something to be grateful for'
p3300
sS'fledgling'
p3301
S'beginner; novice'
p3302
sS'incorrigible'
p3303
S'Unable to be changed, corrected, or reformed.'
p3304
sS'ecstatic'
p3305
S'delighted'
p3306
sS'dismantle'
p3307
S'destroy in an orderly way'
p3308
sS'vignette'
p3309
S'n. a brief descriptive passage in writing'
p3310
sS'seismic'
p3311
S'relating to earthquakes'
p3312
sS'repeal'
p3313
S'Revoke; annul'
p3314
sS'extort'
p3315
S'v. obtain by force'
p3316
sS'ramble'
p3317
S'v. to talk on and on pointlessly'
p3318
sS'insipid'
p3319
S'lacking in flavor; dull'
p3320
sS'coquette'
p3321
S'woman who flirts'
p3322
sS'mercenary'
p3323
S'motivated by money'
p3324
sS'torrid'
p3325
S'Passionate; hot or scorching'
p3326
sS'abhor'
p3327
S'hate'
p3328
s.